 WinAudit

 Timestamp is 6266a107 (Mon Apr 25 14:24:23 2022)

 Preferred load address is 00400000

 Start         Length     Name                   Class
 0001:00000000 000d8350H .text$mn                CODE
 0001:000d8350 0000eae7H .text$x                 CODE
 0002:00000000 00000758H .idata$5                DATA
 0002:00000758 00000008H .00cfg                  DATA
 0002:00000760 00000004H .CRT$XCA                DATA
 0002:00000764 00000004H .CRT$XCAA               DATA
 0002:00000768 00000004H .CRT$XCZ                DATA
 0002:0000076c 00000004H .CRT$XIA                DATA
 0002:00000770 00000004H .CRT$XIAA               DATA
 0002:00000774 00000004H .CRT$XIAC               DATA
 0002:00000778 00000010H .CRT$XIC                DATA
 0002:00000788 00000004H .CRT$XIZ                DATA
 0002:0000078c 00000004H .CRT$XPA                DATA
 0002:00000790 00000008H .CRT$XPX                DATA
 0002:00000798 00000004H .CRT$XPXA               DATA
 0002:0000079c 00000004H .CRT$XPZ                DATA
 0002:000007a0 00000004H .CRT$XTA                DATA
 0002:000007a4 00000004H .CRT$XTZ                DATA
 0002:000007a8 000012d0H .gfids                  DATA
 0002:00001a78 00000000H .gfids$y                DATA
 0002:00001a78 00000018H .giats                  DATA
 0002:00001a84 00000000H .giats$y                DATA
 0002:00001a90 0005e570H .rdata                  DATA
 0002:00060000 00000000H .rdata$CastGuardVftablesA DATA
 0002:00060000 00000000H .rdata$CastGuardVftablesC DATA
 0002:00060000 00000b64H .rdata$r                DATA
 0002:00060b64 0000099cH .rdata$sxdata           DATA
 0002:00061500 000000b8H .rdata$voltmd           DATA
 0002:000615b8 0000037cH .rdata$zzzdbg           DATA
 0002:00061934 00000004H .rtc$IAA                DATA
 0002:00061938 00000004H .rtc$IZZ                DATA
 0002:0006193c 00000004H .rtc$TAA                DATA
 0002:00061940 00000008H .rtc$TZZ                DATA
 0002:00061948 0000f4c0H .xdata$x                DATA
 0002:00070e08 00000000H .edata                  DATA
 0002:00070e08 0000017cH .idata$2                DATA
 0002:00070f84 00000014H .idata$3                DATA
 0002:00070f98 00000758H .idata$4                DATA
 0002:000716f0 00001e58H .idata$6                DATA
 0003:00000000 00000870H .data                   DATA
 0003:00000870 000001b8H .data$r                 DATA
 0003:00000a28 00000388H .data$rs                DATA
 0003:00000db0 00000a40H .bss                    DATA
 0004:00000000 00001180H .rsrc$01                DATA
 0004:00001180 0007d750H .rsrc$02                DATA

  Address         Publics by Value              Rva+Base       Lib:Object

 0000:00000000       ___guard_eh_cont_count     00000000     <absolute>
 0000:00000000       ___arm64x_redirection_metadata 00000000     <absolute>
 0000:00000000       ___arm64x_extra_rfe_table  00000000     <absolute>
 0000:00000000       ___guard_longjmp_table     00000000     <absolute>
 0000:00000000       ___x64_code_ranges_to_entry_points 00000000     <absolute>
 0000:00000000       ___arm64x_native_entrypoint 00000000     <absolute>
 0000:00000000       ___guard_eh_cont_table     00000000     <absolute>
 0000:00000000       ___hybrid_code_map         00000000     <absolute>
 0000:00000000       __except_list              00000000     <absolute>
 0000:00000000       ___arm64x_extra_rfe_table_size 00000000     <absolute>
 0000:00000000       ___x64_code_ranges_to_entry_points_count 00000000     <absolute>
 0000:00000000       ___hybrid_code_map_count   00000000     <absolute>
 0000:00000000       ___hybrid_auxiliary_iat    00000000     <absolute>
 0000:00000000       ___dynamic_value_reloc_table 00000000     <absolute>
 0000:00000000       ___guard_longjmp_count     00000000     <absolute>
 0000:00000000       ___guard_check_icall_a64n_fptr 00000000     <absolute>
 0000:00000000       ___arm64x_redirection_metadata_count 00000000     <absolute>
 0000:00000000       ___AbsoluteZero            00000000     <absolute>
 0000:00000000       ___enclave_config          00000000     <absolute>
 0000:00000000       ___hybrid_auxiliary_iat_copy 00000000     <absolute>
 0000:00000002       ___guard_iat_count         00000002     <absolute>
 0000:00000267       ___safe_se_handler_count   00000267     <absolute>
 0000:000003c3       ___guard_fids_count        000003c3     <absolute>
 0000:10017500       ___guard_flags             10017500     <absolute>
 0000:00000000       ___ImageBase               00400000     <linker-defined>
 0001:00000000       ___local_stdio_printf_options 00401000 f i AccessDatabase.obj
 0001:00000020       ?StringCchCopyW@@YGJPA_WIPB_W@Z 00401020 f i AccessDatabase.obj
 0001:000000a0       ?StringCchPrintfW@@YAJPA_WIPB_WZZ 004010a0 f i AccessDatabase.obj
 0001:00000120       ??1AccessDatabase@@QAE@XZ  00401120 f   AccessDatabase.obj
 0001:00000200       ?ComQuit@AccessDatabase@@QAEXJ@Z 00401200 f   AccessDatabase.obj
 0001:00000400       ?CreateIDBInitialize@AccessDatabase@@AAEXXZ 00401400 f   AccessDatabase.obj
 0001:00000520       ?OleDbCreate@AccessDatabase@@QAEXABVString@@@Z 00401520 f   AccessDatabase.obj
 0001:00000920       ?OleDbConnect@AccessDatabase@@QAEXABVString@@00@Z 00401920 f   AccessDatabase.obj
 0001:00000de0       ?OleDbExecute@AccessDatabase@@QAEXABVString@@@Z 00401de0 f   AccessDatabase.obj
 0001:00001180       ?ComInvoke@AccessDatabase@@CAXPAUIDispatch@@PB_WGPAUtagDISPPARAMS@@PAUtagVARIANT@@@Z 00402180 f   AccessDatabase.obj
 0001:000015a0       ?GetOleDbErrorString@AccessDatabase@@CAXPAVString@@@Z 004025a0 f   AccessDatabase.obj
 0001:00001800       ?MakeOleDbErrorString@AccessDatabase@@CAXKPAUIErrorInfo@@PAUISQLErrorInfo@@PAVString@@@Z 00402800 f   AccessDatabase.obj
 0001:00001c10       ??1AuditData@@QAE@XZ       00402c10 f   AuditData.obj
 0001:00001c10       ??1SmbiosInformation@@QAE@XZ 00402c10 f   SmbiosInformation.obj
 0001:00001c20       ?GetBIOSIdentificationRecord@AuditData@@SAXPAVAuditRecord@@@Z 00402c20 f   AuditData.obj
 0001:00001e00       ?GetCategoryName@AuditData@@SAXKPAVString@@@Z 00402e00 f   AuditData.obj
 0001:00001e80       ?GetCategoryRecords@AuditData@@QAEXKABVString@@PAV?$TArray@VAuditRecord@@@@@Z 00402e80 f   AuditData.obj
 0001:00002e40       ?GetEnvironmentVarsRecords@AuditData@@SAXPAV?$TArray@VAuditRecord@@@@@Z 00403e40 f   AuditData.obj
 0001:00003240       ?GetMemoryInformationRecord@AuditData@@QAEKPAVAuditRecord@@@Z 00404240 f   AuditData.obj
 0001:00003740       ?GetOleDbProviderRecords@AuditData@@SAXPAV?$TArray@VAuditRecord@@@@@Z 00404740 f   AuditData.obj
 0001:00003980       ?GetOleDbProviders@AuditData@@SAXPAV?$TArray@VNameValue@@@@@Z 00404980 f   AuditData.obj
 0001:000041c0       ?GetOperatingSystemRecord@AuditData@@SAXPAVAuditRecord@@@Z 004051c0 f   AuditData.obj
 0001:00004a00       ?GetOtherIdentifier@AuditData@@SAXPAVString@@@Z 00405a00 f   AuditData.obj
 0001:00004a40       ?GetRegionalSettingsRecords@AuditData@@SAXPAV?$TArray@VAuditRecord@@@@@Z 00405a40 f   AuditData.obj
 0001:000053a0       ?GetSystemOverviewRecord@AuditData@@QAEXABVString@@PAVAuditRecord@@@Z 004063a0 f   AuditData.obj
 0001:000064a0       ?MakeAuditMasterRecord@AuditData@@SAXPAVAuditRecord@@@Z 004074a0 f   AuditData.obj
 0001:000066c0       ?MakeComputerMasterRecord@AuditData@@QAEXPAVAuditRecord@@@Z 004076c0 f   AuditData.obj
 0001:00006f60       ?TranslateCalenderType@AuditData@@CAXPB_WPAVString@@@Z 00407f60 f   AuditData.obj
 0001:00007120       ??1?$TArray@VNameValue@@@@QAE@XZ 00408120 f i AuditData.obj
 0001:000071a0       ?Get@?$TArray@VNameValue@@@@QBEABVNameValue@@I@Z 004081a0 f i AuditData.obj
 0001:00007200       ??1?$TArray@VAuditRecord@@@@QAE@XZ 00408200 f i AuditData.obj
 0001:00007290       ??1?$TArray@U_ADDRESS_INDEX@TcpIpInformation@@@@QAE@XZ 00408290 f i TcpIpInformation.obj
 0001:00007290       ??1?$TArray@U_TYPE_PORT_INFO@OpenNetworkPortInformation@@@@QAE@XZ 00408290 f i OpenNetworkPortInformation.obj
 0001:00007290       ??1?$TArray@K@@QAE@XZ      00408290 f i AuditThreadParameter.obj
 0001:00007290       ??1?$TArray@U_TYPE_PROCESS_INFO@ProcessInformation@@@@QAE@XZ 00408290 f i ProcessInformation.obj
 0001:00007290       ??1?$TArray@I@@QAE@XZ      00408290 f i EventLogInformation.obj
 0001:00007290       ??1?$TArray@E@@QAE@XZ      00408290 f i AuditData.obj
 0001:00007300       ?Get@?$TArray@E@@QBEABEI@Z 00408300 f i AuditData.obj
 0001:00007360       ??_ENameValue@@QAEPAXI@Z   00408360 f i AuditData.obj
 0001:000073e0       ??_EAuditRecord@@QAEPAXI@Z 004083e0 f i AuditData.obj
 0001:00007460       ?Insert@?$TArray@VNameValue@@@@QAEXIABVNameValue@@@Z 00408460 f i AuditData.obj
 0001:00007660       ?Insert@?$TArray@VAuditRecord@@@@QAEXIABVAuditRecord@@@Z 00408660 f i AuditData.obj
 0001:00007880       ??0AuditDatabase@@QAE@XZ   00408880 f   AuditDatabase.obj
 0001:000079c0       ??1AuditDatabase@@QAE@XZ   004089c0 f   AuditDatabase.obj
 0001:000079e0       ?IdentifyComputerID@AuditDatabase@@QAEJABVAuditRecord@@@Z 004089e0 f   AuditDatabase.obj
 0001:00008f60       ?InsertAuditMaster@AuditDatabase@@QAEJJABVAuditRecord@@@Z 00409f60 f   AuditDatabase.obj
 0001:00009e60       ?InsertComputerMaster@AuditDatabase@@QAEJABVAuditRecord@@@Z 0040ae60 f   AuditDatabase.obj
 0001:0000b7e0       ?ComputerMasterRecordToValues@AuditDatabase@@ABEXABVAuditRecord@@PAVString@@111111111@Z 0040c7e0 f   AuditDatabase.obj
 0001:0000bce0       ??0AuditRecord@@QAE@XZ     0040cce0 f   AuditRecord.obj
 0001:0000bd10       ??1AuditRecord@@QAE@XZ     0040cd10 f   AuditRecord.obj
 0001:0000bd20       ?Add@AuditRecord@@QAEXKABVString@@@Z 0040cd20 f   AuditRecord.obj
 0001:0000bfc0       ?GetCategoryIdAndValues@AuditRecord@@QBEXPAKPAVStringArray@@@Z 0040cfc0 f   AuditRecord.obj
 0001:0000c020       ?GetItemValue@AuditRecord@@QBEXKPAVString@@@Z 0040d020 f   AuditRecord.obj
 0001:0000c280       ?ToString@AuditRecord@@QBEXPAVString@@@Z 0040d280 f   AuditRecord.obj
 0001:0000c520       ??_EAuditThread@@UAEPAXI@Z 0040d520 f i * CIL library *:* CIL module *
 0001:0000c520       ??_GAuditThread@@UAEPAXI@Z 0040d520 f i AuditThread.obj
 0001:0000c560       ??1AuditThread@@UAE@XZ     0040d560 f   AuditThread.obj
 0001:0000c5a0       ?DoAuditLocked@AuditThread@@ABEKPAVAuditThreadParameter@@@Z 0040d5a0 f   AuditThread.obj
 0001:0000c880       ?RunWorkerThread@AuditThread@@EAEKXZ 0040d880 f   AuditThread.obj
 0001:0000c980       ?Get@?$TArray@K@@QBEABKI@Z 0040d980 f i AuditThread.obj
 0001:0000c9e0       ??1AuditThreadParameter@@QAE@XZ 0040d9e0 f   AuditThreadParameter.obj
 0001:0000ca00       ?GetAuditRecords@CommunicationPortInformation@@SAXPAV?$TArray@VAuditRecord@@@@@Z 0040da00 f   CommunicationPortInformation.obj
 0001:0000ce60       ?TranslatePortType@CommunicationPortInformation@@CAXKPAVString@@@Z 0040de60 f   CommunicationPortInformation.obj
 0001:0000cfa0       ??0ConfigurationSettings@@QAE@XZ 0040dfa0 f   ConfigurationSettings.obj
 0001:0000d100       ??1ConfigurationSettings@@QAE@XZ 0040e100 f   ConfigurationSettings.obj
 0001:0000d1a0       ??4ConfigurationSettings@@QAEAAV0@ABV0@@Z 0040e1a0 f   ConfigurationSettings.obj
 0001:0000d360       ?MakeDataCategoriesArray@ConfigurationSettings@@QBEXPAV?$TArray@K@@@Z 0040e360 f   ConfigurationSettings.obj
 0001:0000d8a0       ?Insert@?$TArray@K@@QAEXIABK@Z 0040e8a0 f i ConfigurationSettings.obj
 0001:0000d950       ??1CpuInformation@@QAE@XZ  0040e950 f   CpuInformation.obj
 0001:0000d950       ??1ProcessInformation@@QAE@XZ 0040e950 f   ProcessInformation.obj
 0001:0000d960       ?GetBasicDataRecord@CpuInformation@@QAEXEPAVAuditRecord@@@Z 0040e960 f   CpuInformation.obj
 0001:0000e080       ?GetDiagnostics@CpuInformation@@QAEXPAVString@@@Z 0040f080 f   CpuInformation.obj
 0001:000101c0       ?GetFeatures@CpuInformation@@QAEXEPAVStringArray@@@Z 004111c0 f   CpuInformation.obj
 0001:000102c0       ?GetFeaturesAmd@CpuInformation@@CAXPAVStringArray@@@Z 004112c0 f   CpuInformation.obj
 0001:00010ac0       ?GetFeaturesIntel@CpuInformation@@CAXPAVStringArray@@@Z 00411ac0 f   CpuInformation.obj
 0001:000112c0       ?GetNameAndSpeedMHz@CpuInformation@@QAEXEPAVString@@PAK@Z 004122c0 f   CpuInformation.obj
 0001:000113c0       ?GetPackageIDs@CpuInformation@@QAEXPAV?$TArray@E@@@Z 004123c0 f   CpuInformation.obj
 0001:000114e0       ?Cpuid@CpuInformation@@CAXKPAK000@Z 004124e0 f   CpuInformation.obj
 0001:000116a0       ?FillLogicalApics@CpuInformation@@AAEXXZ 004126a0 f   CpuInformation.obj
 0001:000118a0       ?GetApicID@CpuInformation@@CAEXZ 004128a0 f   CpuInformation.obj
 0001:000118e0       ?GetApicsIDs@CpuInformation@@ABEXEPAVString@@@Z 004128e0 f   CpuInformation.obj
 0001:00011a80       ?GetCacheAndTLBInfo@CpuInformation@@CAXPAVString@@0@Z 00412a80 f   CpuInformation.obj
 0001:00011cc0       ?GetCacheDescriptionsAmd@CpuInformation@@CAXPAVStringArray@@@Z 00412cc0 f   CpuInformation.obj
 0001:00011fc0       ?GetCacheDescriptionsIntel@CpuInformation@@CAXPAVStringArray@@@Z 00412fc0 f   CpuInformation.obj
 0001:00012860       ?GetManufacturerID@CpuInformation@@CAKXZ 00413860 f   CpuInformation.obj
 0001:00012960       ?GetManufacturerName@CpuInformation@@CAXPAVString@@@Z 00413960 f   CpuInformation.obj
 0001:00012a80       ?GetName@CpuInformation@@CAXPAVString@@@Z 00413a80 f   CpuInformation.obj
 0001:00012c00       ?GetNumberLogicalsInPackage@CpuInformation@@ABEEE@Z 00413c00 f   CpuInformation.obj
 0001:00012cc0       ?GetPackageIDFromApicID@CpuInformation@@CAEE@Z 00413cc0 f   CpuInformation.obj
 0001:00012da0       ?GetRegistersAsString@CpuInformation@@CAX_NPAVString@@@Z 00413da0 f   CpuInformation.obj
 0001:00013360       ?GetSpeedEstimateMHz@CpuInformation@@CAKXZ 00414360 f   CpuInformation.obj
 0001:00013740       ?GetSpeedRegistryMHz@CpuInformation@@ABEKE@Z 00414740 f   CpuInformation.obj
 0001:000138a0       ?GetType@CpuInformation@@CAXPAVString@@@Z 004148a0 f   CpuInformation.obj
 0001:00013a00       ?GetVendorString@CpuInformation@@CAXPAVString@@@Z 00414a00 f   CpuInformation.obj
 0001:00013b80       ?RunCurrentThreadOnPackageID@CpuInformation@@ABEKE@Z 00414b80 f   CpuInformation.obj
 0001:00013d40       ?Insert@?$TArray@E@@QAEXIABE@Z 00414d40 f i CpuInformation.obj
 0001:00013de0       ?Append@?$TArray@E@@QAEXABV1@@Z 00414de0 f i CpuInformation.obj
 0001:00013e80       ??0DatabaseAdministrationDialog@@QAE@XZ 00414e80 f   DatabaseAdministrationDialog.obj
 0001:00014280       ??_EDatabaseAdministrationDialog@@UAEPAXI@Z 00415280 f i * CIL library *:* CIL module *
 0001:00014280       ??_GDatabaseAdministrationDialog@@UAEPAXI@Z 00415280 f i DatabaseAdministrationDialog.obj
 0001:000142c0       ??1DatabaseAdministrationDialog@@UAE@XZ 004152c0 f   DatabaseAdministrationDialog.obj
 0001:00014560       ?GetConfigurationSettings@DatabaseAdministrationDialog@@QBEXPAVConfigurationSettings@@@Z 00415560 f   DatabaseAdministrationDialog.obj
 0001:000145c0       ?CommandEvent@DatabaseAdministrationDialog@@MAEJIJ@Z 004155c0 f   DatabaseAdministrationDialog.obj
 0001:00014820       ?InitDialogEvent@DatabaseAdministrationDialog@@MAEXXZ 00415820 f   DatabaseAdministrationDialog.obj
 0001:00015960       ?AddCreateAuditDataSql@DatabaseAdministrationDialog@@CAXABVString@@00PAVStringArray@@@Z 00416960 f   DatabaseAdministrationDialog.obj
 0001:00015c20       ?AddCreateAuditMasterSql@DatabaseAdministrationDialog@@CAXABVString@@0000PAVStringArray@@@Z 00416c20 f   DatabaseAdministrationDialog.obj
 0001:00015f40       ?AddCreateComputerMasterSql@DatabaseAdministrationDialog@@CAXABVString@@0000PAVStringArray@@@Z 00416f40 f   DatabaseAdministrationDialog.obj
 0001:000163e0       ?AddCreateDisplayNamesSql@DatabaseAdministrationDialog@@CAXABVString@@0PAVStringArray@@@Z 004173e0 f   DatabaseAdministrationDialog.obj
 0001:00016be0       ?AddCreateGrants@DatabaseAdministrationDialog@@ABEXPAVStringArray@@@Z 00417be0 f   DatabaseAdministrationDialog.obj
 0001:00017280       ?AddCreateViews@DatabaseAdministrationDialog@@CAXABVString@@PAVStringArray@@@Z 00418280 f   DatabaseAdministrationDialog.obj
 0001:00017ea0       ?ConnectDB@DatabaseAdministrationDialog@@AAEX_N@Z 00418ea0 f   DatabaseAdministrationDialog.obj
 0001:00018260       ?CreateAccessDatabase@DatabaseAdministrationDialog@@AAEXXZ 00419260 f   DatabaseAdministrationDialog.obj
 0001:00018c40       ?CreateDatabase@DatabaseAdministrationDialog@@AAEXXZ 00419c40 f   DatabaseAdministrationDialog.obj
 0001:00018e60       ?CreateServerDatabase@DatabaseAdministrationDialog@@AAEXXZ 00419e60 f   DatabaseAdministrationDialog.obj
 0001:000199c0       ?DeleteOldAudits@DatabaseAdministrationDialog@@AAEXXZ 0041a9c0 f   DatabaseAdministrationDialog.obj
 0001:0001a140       ?GetDatabaseSpecificKeywords@DatabaseAdministrationDialog@@AAEXPAVString@@0000000@Z 0041b140 f   DatabaseAdministrationDialog.obj
 0001:0001a540       ?MakeReportSql@DatabaseAdministrationDialog@@ABEXABVString@@PAV2@@Z 0041b540 f   DatabaseAdministrationDialog.obj
 0001:0001a760       ?RunReport@DatabaseAdministrationDialog@@AAEXXZ 0041b760 f   DatabaseAdministrationDialog.obj
 0001:0001b340       ?SetProgressMessage@DatabaseAdministrationDialog@@AAEXABVString@@@Z 0041c340 f   DatabaseAdministrationDialog.obj
 0001:0001b480       ?Get@?$TArray@VStaticControl@@@@QBEABVStaticControl@@I@Z 0041c480 f i DatabaseAdministrationDialog.obj
 0001:0001b4e0       ?Set@?$TArray@VStaticControl@@@@QAEXIABVStaticControl@@@Z 0041c4e0 f i DatabaseAdministrationDialog.obj
 0001:0001b540       ?Insert@?$TArray@VStaticControl@@@@QAEXIABVStaticControl@@@Z 0041c540 f i DatabaseAdministrationDialog.obj
 0001:0001b720       ??_EStaticControl@@QAEPAXI@Z 0041c720 f i DatabaseAdministrationDialog.obj
 0001:0001b7a0       ??1DeviceInformation@@QAE@XZ 0041c7a0 f   DeviceInformation.obj
 0001:0001b800       ?FillData@DeviceInformation@@AAEIXZ 0041c800 f   DeviceInformation.obj
 0001:0001bb20       ?GetDeviceStatus@DeviceInformation@@CAXKPBU_GUID@@PAKPA_WI@Z 0041cb20 f   DeviceInformation.obj
 0001:0001bd40       ?GetDriverInfo@DeviceInformation@@CAXPAXPAU_SP_DEVINFO_DATA@@PA_WI2I2I@Z 0041cd40 f   DeviceInformation.obj
 0001:0001c100       ?GetNextDeviceType@DeviceInformation@@AAEIPAVString@@PAV?$TArray@VAuditRecord@@@@@Z 0041d100 f   DeviceInformation.obj
 0001:0001c760       ?Reset@DeviceInformation@@AAEXXZ 0041d760 f   DeviceInformation.obj
 0001:0001c7c0       ?TranslateDeviceCode@DeviceInformation@@CAXKPAVString@@@Z 0041d7c0 f   DeviceInformation.obj
 0001:0001cc00       ?Append@?$TArray@VAuditRecord@@@@QAEXABV1@@Z 0041dc00 f i DeviceInformation.obj
 0001:0001cde0       ??1?$TList@U_TYPE_DEVICE_INFO@DeviceInformation@@@@QAE@XZ 0041dde0 f i DeviceInformation.obj
 0001:0001ce80       ?Append@?$TList@U_TYPE_DEVICE_INFO@DeviceInformation@@@@QAEXABU_TYPE_DEVICE_INFO@DeviceInformation@@@Z 0041de80 f i DeviceInformation.obj
 0001:0001cf40       ?GetPointer@?$TList@U_TYPE_DEVICE_INFO@DeviceInformation@@@@QBEPAU_TYPE_DEVICE_INFO@DeviceInformation@@XZ 0041df40 f i DeviceInformation.obj
 0001:0001cfa0       ?AllocateNode@?$TList@U_TYPE_DEVICE_INFO@DeviceInformation@@@@AAEPAU_TYPE_NODE@1@ABU_TYPE_DEVICE_INFO@DeviceInformation@@@Z 0041dfa0 f i DeviceInformation.obj
 0001:0001d080       ?GetDiagnostics@DiskInformation@@QAEXPAVString@@@Z 0041e080 f   DiskInformation.obj
 0001:0001dc40       ?GetAuditRecords@DiskInformation@@QAEXPAV?$TArray@VAuditRecord@@@@@Z 0041ec40 f   DiskInformation.obj
 0001:0001ec00       ?CreateDiskHandle@DiskInformation@@AAEPAXABVString@@@Z 0041fc00 f   DiskInformation.obj
 0001:0001eca0       ?DiskSerialHexToSerialNumber@DiskInformation@@CAXABVString@@PAV2@@Z 0041fca0 f   DiskInformation.obj
 0001:0001ef80       ?ExtractIddStringValue@DiskInformation@@CA_NPBEIPAVString@@@Z 0041ff80 f   DiskInformation.obj
 0001:0001f040       ?FormatDiskFirmwareDataBlock@DiskInformation@@CAXPBU_IDENTIFY_DEVICE_DATA@PXSDDK@@PAVString@@@Z 00420040 f   DiskInformation.obj
 0001:0001f300       ?FormatIddStructureAsString@DiskInformation@@CAXPBU_IDENTIFY_DEVICE_DATA@PXSDDK@@PAVString@@@Z 00420300 f   DiskInformation.obj
 0001:00021800       ?GetConfigManagerDiskData@DiskInformation@@CAXPAVString@@@Z 00422800 f   DiskInformation.obj
 0001:00021e40       ?GetDataIdd@DiskInformation@@AAE_NEPAGPAVString@@1PA_N2@Z 00422e40 f   DiskInformation.obj
 0001:000220c0       ?GetDataIoctl@DiskInformation@@AAEXEPAVString@@0@Z 004230c0 f   DiskInformation.obj
 0001:000224a0       ?GetDataWMI@DiskInformation@@CA_NEPA_K0PAK1PAVString@@2222@Z 004234a0 f   DiskInformation.obj
 0001:000229e0       ?GetDiskPartionInfo@DiskInformation@@CAXPAXPAVString@@@Z 004239e0 f   DiskInformation.obj
 0001:00023520       ?GetDisksAndDevicesData@DiskInformation@@AAEXPAVString@@@Z 00424520 f   DiskInformation.obj
 0001:00024220       ?GetIDDScsiMiniPort@DiskInformation@@AAE_NEPAU_IDENTIFY_DEVICE_DATA@PXSDDK@@@Z 00425220 f   DiskInformation.obj
 0001:00024600       ?GetIDDSmart@DiskInformation@@AAE_NEPAU_IDENTIFY_DEVICE_DATA@PXSDDK@@@Z 00425600 f   DiskInformation.obj
 0001:00024b80       ?GetIdentifyDeviceData@DiskInformation@@AAE_NEPAU_IDENTIFY_DEVICE_DATA@PXSDDK@@@Z 00425b80 f   DiskInformation.obj
 0001:00024ca0       ?GetRawDiskData@DiskInformation@@AAEXPAVString@@@Z 00425ca0 f   DiskInformation.obj
 0001:00024f40       ?GetScsiAddressData@DiskInformation@@CAXPAXPAVString@@@Z 00425f40 f   DiskInformation.obj
 0001:00025380       ?GetScsiCapabilities@DiskInformation@@CAXPAXPAVString@@@Z 00426380 f   DiskInformation.obj
 0001:00025660       ?GetScsiInquiryData@DiskInformation@@CAXPAXPAVString@@@Z 00426660 f   DiskInformation.obj
 0001:00026740       ?GetSmartTestResult@DiskInformation@@AAE_NEPAVString@@@Z 00427740 f   DiskInformation.obj
 0001:00026a60       ?GetStorageAdapterProperty@DiskInformation@@CAXPAXPAVString@@@Z 00427a60 f   DiskInformation.obj
 0001:00027260       ?GetStorageDeviceProperties@DiskInformation@@CA_NPAXPAVString@@11111111@Z 00428260 f   DiskInformation.obj
 0001:000276e0       ?GetWmiDiskDriveData@DiskInformation@@CAXPAVString@@@Z 004286e0 f   DiskInformation.obj
 0001:00027ce0       ?PhysDriveNumToDiskNum@DiskInformation@@CA_NEPAE@Z 00428ce0 f   DiskInformation.obj
 0001:00027f20       ?ResolveManufacturer@DiskInformation@@CAXABVString@@PAV2@@Z 00428f20 f   DiskInformation.obj
 0001:000280e0       ?TranslateIdeDeviceType@DiskInformation@@CAXEPAVString@@@Z 004290e0 f   DiskInformation.obj
 0001:000282e0       ?TranslateStorageBusType@DiskInformation@@CAXEPAVString@@@Z 004292e0 f   DiskInformation.obj
 0001:00028580       ?GetAdapterRecords@DisplayInformation@@SAXPAV?$TArray@VAuditRecord@@@@@Z 00429580 f   DisplayInformation.obj
 0001:00029320       ?GetDescriptionString@DisplayInformation@@SAXPAVString@@@Z 0042a320 f   DisplayInformation.obj
 0001:000293e0       ?GetDiagnostics@DisplayInformation@@SAXPAVString@@@Z 0042a3e0 f   DisplayInformation.obj
 0001:0002b920       ?GetIdentificationRecords@DisplayInformation@@SAXPAV?$TArray@VAuditRecord@@@@@Z 0042c920 f   DisplayInformation.obj
 0001:0002bb80       ?GetDesktopMonitorIDs@DisplayInformation@@CAXPAVStringArray@@0@Z 0042cb80 f   DisplayInformation.obj
 0001:0002be60       ?GetDisplayRecord@DisplayInformation@@CAXIABVString@@0PAVAuditRecord@@@Z 0042ce60 f   DisplayInformation.obj
 0001:0002c880       ?GetPrimaryMonitorRecord@DisplayInformation@@CAXPAVAuditRecord@@@Z 0042d880 f   DisplayInformation.obj
 0001:0002cb20       ?GetProductIdSizeString@DisplayInformation@@CAXPAVString@@@Z 0042db20 f   DisplayInformation.obj
 0001:0002cde0       ?GetResolutionString@DisplayInformation@@CAXPAVString@@@Z 0042dde0 f   DisplayInformation.obj
 0001:0002d140       ?ReadEdidDataBlock@DisplayInformation@@CA_NABVString@@PAEIPAV2@@Z 0042e140 f   DisplayInformation.obj
 0001:0002d600       ?TranslateEdidData@DisplayInformation@@CAXPBEIPA_N1PAVString@@222222222222222@Z 0042e600 f   DisplayInformation.obj
 0001:0002e2c0       ?TranslateEdidDescriptorBlock@DisplayInformation@@CAXPBEIPAVString@@11@Z 0042f2c0 f   DisplayInformation.obj
 0001:0002e560       ?TranslateIdManufacturerCode@DisplayInformation@@CAXABVString@@PAV2@@Z 0042f560 f   DisplayInformation.obj
 0001:0002f6e0       ?GetTotalHDDCapacity@DriveInformation@@SA_KXZ 004306e0 f   DriveInformation.obj
 0001:0002f860       ?TranslateDriveType@DriveInformation@@SAXIPAVString@@@Z 00430860 f   DriveInformation.obj
 0001:0002fa00       ?GetVolumneRecord@DriveInformation@@CA_N_WPAVAuditRecord@@@Z 00430a00 f   DriveInformation.obj
 0001:000303a0       ?GetAuditFailureRecords@EventLogInformation@@SAXIPAV?$TArray@VAuditRecord@@@@@Z 004313a0 f   EventLogInformation.obj
 0001:00030480       ?GetErrorRecords@EventLogInformation@@SAXIPAV?$TArray@VAuditRecord@@@@@Z 00431480 f   EventLogInformation.obj
 0001:00030700       ?GetSoftwareMeteringRecords@EventLogInformation@@QAEXPAV?$TArray@VAuditRecord@@@@@Z 00431700 f   EventLogInformation.obj
 0001:00030fc0       ?GetUptimeStatsRecord@EventLogInformation@@QAEXPAVAuditRecord@@@Z 00431fc0 f   EventLogInformation.obj
 0001:00031660       ?GetUserLogonRecords@EventLogInformation@@QAEXPAV?$TArray@VAuditRecord@@@@@Z 00432660 f   EventLogInformation.obj
 0001:00031fc0       ?FindMeteringData@EventLogInformation@@AAE_NABVString@@PAV?$TList@U_TYPE_METERING_DATA@EventLogInformation@@@@PAU_TYPE_METERING_DATA@1@@Z 00432fc0 f   EventLogInformation.obj
 0001:000320c0       ?FindUserData@EventLogInformation@@AAE_NABVString@@PAV?$TList@U_TYPE_USER_DATA@EventLogInformation@@@@PAU_TYPE_USER_DATA@1@@Z 004330c0 f   EventLogInformation.obj
 0001:000321c0       ?GetSourceNameAuditRecords@EventLogInformation@@CAXKKKKKPB_WGIPAV?$TArray@VAuditRecord@@@@@Z 004331c0 f   EventLogInformation.obj
 0001:000325e0       ?GetEventLogRecords@EventLogInformation@@CAXPB_W_NPBKIGIPAV?$TList@VEventLogRecord@@@@@Z 004335e0 f   EventLogInformation.obj
 0001:00032a00       ?GetFileNameAndVersionInfo@EventLogInformation@@CAXABVString@@PAV2@111@Z 00433a00 f   EventLogInformation.obj
 0001:00032ce0       ?GetParameterString@EventLogInformation@@CAXKABVStringArray@@PAVString@@@Z 00433ce0 f   EventLogInformation.obj
 0001:00032ec0       ?MakeEventLogDescription@EventLogInformation@@CAXPB_WPBVEventLogRecord@@PAVString@@@Z 00433ec0 f   EventLogInformation.obj
 0001:00033820       ?SetSize@?$TArray@VAuditRecord@@@@QAEXI@Z 00434820 f i EventLogInformation.obj
 0001:00033a00       ?Get@?$TArray@I@@QBEABII@Z 00434a00 f i EventLogInformation.obj
 0001:00033a60       ??1?$TList@U_TYPE_METERING_DATA@EventLogInformation@@@@QAE@XZ 00434a60 f i EventLogInformation.obj
 0001:00033a60       ??1?$TList@U_TYPE_USER_DATA@EventLogInformation@@@@QAE@XZ 00434a60 f i EventLogInformation.obj
 0001:00033b00       ?Append@?$TList@U_TYPE_METERING_DATA@EventLogInformation@@@@QAEXABU_TYPE_METERING_DATA@EventLogInformation@@@Z 00434b00 f i EventLogInformation.obj
 0001:00033bc0       ?GetPointer@?$TList@U_TYPE_METERING_DATA@EventLogInformation@@@@QBEPAU_TYPE_METERING_DATA@EventLogInformation@@XZ 00434bc0 f i EventLogInformation.obj
 0001:00033c20       ?Set@?$TList@U_TYPE_METERING_DATA@EventLogInformation@@@@QAEXABU_TYPE_METERING_DATA@EventLogInformation@@@Z 00434c20 f i EventLogInformation.obj
 0001:00033ca0       ?Append@?$TList@U_TYPE_USER_DATA@EventLogInformation@@@@QAEXABU_TYPE_USER_DATA@EventLogInformation@@@Z 00434ca0 f i EventLogInformation.obj
 0001:00033d60       ?GetPointer@?$TList@U_TYPE_USER_DATA@EventLogInformation@@@@QBEPAU_TYPE_USER_DATA@EventLogInformation@@XZ 00434d60 f i EventLogInformation.obj
 0001:00033dc0       ?Set@?$TList@U_TYPE_USER_DATA@EventLogInformation@@@@QAEXABU_TYPE_USER_DATA@EventLogInformation@@@Z 00434dc0 f i EventLogInformation.obj
 0001:00033e40       ??1?$TList@VEventLogRecord@@@@QAE@XZ 00434e40 f i EventLogInformation.obj
 0001:00033e80       ?Append@?$TList@VEventLogRecord@@@@QAEXABVEventLogRecord@@@Z 00434e80 f i EventLogInformation.obj
 0001:00033f40       ?GetPointer@?$TList@VEventLogRecord@@@@QBEPAVEventLogRecord@@XZ 00434f40 f i EventLogInformation.obj
 0001:00033fa0       ?RemoveAll@?$TList@VEventLogRecord@@@@QAEXXZ 00434fa0 f i EventLogInformation.obj
 0001:00034020       ?AllocateNode@?$TList@U_TYPE_METERING_DATA@EventLogInformation@@@@AAEPAU_TYPE_NODE@1@ABU_TYPE_METERING_DATA@EventLogInformation@@@Z 00435020 f i EventLogInformation.obj
 0001:00034100       ?AllocateNode@?$TList@U_TYPE_USER_DATA@EventLogInformation@@@@AAEPAU_TYPE_NODE@1@ABU_TYPE_USER_DATA@EventLogInformation@@@Z 00435100 f i EventLogInformation.obj
 0001:000341e0       ?AllocateNode@?$TList@VEventLogRecord@@@@AAEPAU_TYPE_NODE@1@ABVEventLogRecord@@@Z 004351e0 f i EventLogInformation.obj
 0001:00034290       ??1EventLogRecord@@QAE@XZ  00435290 f   EventLogRecord.obj
 0001:000342a0       ?GetEventID@EventLogRecord@@QBEGXZ 004352a0 f   EventLogRecord.obj
 0001:000342e0       ?GetNumberOfStrings@EventLogRecord@@QBEGXZ 004352e0 f   EventLogRecord.obj
 0001:00034320       ?GetSourceName@EventLogRecord@@QBEXPAVString@@@Z 00435320 f   EventLogRecord.obj
 0001:000343e0       ?GetString@EventLogRecord@@QBEXKPAVString@@@Z 004353e0 f   EventLogRecord.obj
 0001:000344a0       ?GetTimeGenerated@EventLogRecord@@QBE_JXZ 004354a0 f   EventLogRecord.obj
 0001:000344e0       ?Set@EventLogRecord@@QAEXPBU_EVENTLOGRECORD@@@Z 004354e0 f   EventLogRecord.obj
 0001:00034560       ?GetGroupRecords@GroupUserInformation@@SAXPAV?$TArray@VAuditRecord@@@@@Z 00435560 f   GroupUserInformation.obj
 0001:00034ae0       ?GetGroupMemberRecords@GroupUserInformation@@SAXPAV?$TArray@VAuditRecord@@@@@Z 00435ae0 f   GroupUserInformation.obj
 0001:00035160       ?GetGroupPolicyRecords@GroupUserInformation@@SAXPAV?$TArray@VAuditRecord@@@@@Z 00436160 f   GroupUserInformation.obj
 0001:00035480       ?GetUserRecords@GroupUserInformation@@SAXPAV?$TArray@VAuditRecord@@@@@Z 00436480 f   GroupUserInformation.obj
 0001:00036120       ?GetGlobalGroupNames@GroupUserInformation@@CAXPAVStringArray@@@Z 00437120 f   GroupUserInformation.obj
 0001:000362a0       ?GetGroupPrivileges@GroupUserInformation@@CAXABVString@@PAVStringArray@@@Z 004372a0 f   GroupUserInformation.obj
 0001:00036860       ?GetLocalGroupNames@GroupUserInformation@@CAXPAVStringArray@@@Z 00437860 f   GroupUserInformation.obj
 0001:000369e0       ?GetUserGlobalGroups@GroupUserInformation@@CAXABVString@@PAV2@@Z 004379e0 f   GroupUserInformation.obj
 0001:00036c20       ?GetUserLocalGroups@GroupUserInformation@@CAXABVString@@PAV2@@Z 00437c20 f   GroupUserInformation.obj
 0001:00036e60       ?TranslateUserAccountFlags@GroupUserInformation@@CAXKPAVString@@@Z 00437e60 f   GroupUserInformation.obj
 0001:00036fe0       ?Get@?$TArray@VAuditRecord@@@@QBEABVAuditRecord@@I@Z 00437fe0 f i GroupUserInformation.obj
 0001:00037030       ?StringCchCopyA@@YGJPADIPBD@Z 00438030 f i KerberosTicketInformation.obj
 0001:000370a0       ?GetKerberosPolicyRecords@KerberosTicketInformation@@SAXPAV?$TArray@VAuditRecord@@@@@Z 004380a0 f   KerberosTicketInformation.obj
 0001:00037480       ?GetKerberosTicketRecords@KerberosTicketInformation@@SAXPAV?$TArray@VAuditRecord@@@@@Z 00438480 f   KerberosTicketInformation.obj
 0001:00037840       ?MakeAuditRecords@KerberosTicketInformation@@CAXPAU_KERB_QUERY_TKT_CACHE_RESPONSE@@PAV?$TArray@VAuditRecord@@@@@Z 00438840 f   KerberosTicketInformation.obj
 0001:00037e40       ?TranslateEncryptionType@KerberosTicketInformation@@CAXJPAVString@@@Z 00438e40 f   KerberosTicketInformation.obj
 0001:00038080       _WinMain@16                00439080 f   main.obj
 0001:00038900       ?GetServiceRecords@NtServiceInformation@@SAXPAV?$TArray@VAuditRecord@@@@@Z 00439900 f   NtServiceInformation.obj
 0001:00039100       ?GetServiceConfig@NtServiceInformation@@CAXPAUSC_HANDLE__@@PB_WPAVString@@22@Z 0043a100 f   NtServiceInformation.obj
 0001:00039660       ?GetAuditRecords@ObjectPermissionInformation@@SAXPAV?$TArray@VAuditRecord@@@@@Z 0043a660 f   ObjectPermissionInformation.obj
 0001:00039bc0       ?GetAccountNameFromSid@ObjectPermissionInformation@@CAXQAXPAVString@@@Z 0043abc0 f   ObjectPermissionInformation.obj
 0001:00039de0       ?GetObjectPermissionRecords@ObjectPermissionInformation@@CAXABVString@@W4_SE_OBJECT_TYPE@@PAV?$TArray@VAuditRecord@@@@@Z 0043ade0 f   ObjectPermissionInformation.obj
 0001:0003a000       ?MakeObjectPermissionRecords@ObjectPermissionInformation@@CAXABVString@@W4_SE_OBJECT_TYPE@@_NPAXPAV?$TArray@VAuditRecord@@@@@Z 0043b000 f   ObjectPermissionInformation.obj
 0001:0003b000       ?TranslateAccessMask@ObjectPermissionInformation@@CAXKW4_SE_OBJECT_TYPE@@_NPAVString@@@Z 0043c000 f   ObjectPermissionInformation.obj
 0001:0003b280       ?TranslateAceFlags@ObjectPermissionInformation@@CAXJPAVString@@@Z 0043c280 f   ObjectPermissionInformation.obj
 0001:0003b3c0       ?TranslateAdsSpecificRights@ObjectPermissionInformation@@CAXKPAVString@@@Z 0043c3c0 f   ObjectPermissionInformation.obj
 0001:0003b520       ?TranslateDesktopSpecificRights@ObjectPermissionInformation@@CAXKPAVString@@@Z 0043c520 f   ObjectPermissionInformation.obj
 0001:0003b680       ?TranslateFileSpecificRights@ObjectPermissionInformation@@CAXKPAVString@@@Z 0043c680 f   ObjectPermissionInformation.obj
 0001:0003b7e0       ?TranslateGenericRights@ObjectPermissionInformation@@CAXKPAVString@@@Z 0043c7e0 f   ObjectPermissionInformation.obj
 0001:0003b900       ?TranslatePrinterSpecificRights@ObjectPermissionInformation@@CAXKPAVString@@@Z 0043c900 f   ObjectPermissionInformation.obj
 0001:0003b9e0       ?TranslateServiceSpecificRights@ObjectPermissionInformation@@CAXKPAVString@@@Z 0043c9e0 f   ObjectPermissionInformation.obj
 0001:0003bb20       ?TranslateSpecificRights@ObjectPermissionInformation@@CAXKW4_SE_OBJECT_TYPE@@_NPAVString@@@Z 0043cb20 f   ObjectPermissionInformation.obj
 0001:0003bd00       ?TranslateStandardRights@ObjectPermissionInformation@@CAXKPAVString@@@Z 0043cd00 f   ObjectPermissionInformation.obj
 0001:0003be40       ?TranslateWorkstationSpecificRights@ObjectPermissionInformation@@CAXKPAVString@@@Z 0043ce40 f   ObjectPermissionInformation.obj
 0001:0003bfa0       ?GetFileDataSourceNames@Odbc@@SAXPAVStringArray@@@Z 0043cfa0 f   Odbc.obj
 0001:0003c1e0       ?GetInstalledDrivers@Odbc@@SAXPAVStringArray@@@Z 0043d1e0 f   Odbc.obj
 0001:0003c500       ?GetSystemOrUserDSNs@Odbc@@SAX_NPAV?$TArray@VNameValue@@@@@Z 0043d500 f   Odbc.obj
 0001:0003c940       ?MakeConnectionString@Odbc@@SAXABVString@@000000AAV2@@Z 0043d940 f   Odbc.obj
 0001:0003caa0       ?SqlNumericStructToDouble@Odbc@@SANPBUtagSQL_NUMERIC_STRUCT@@@Z 0043daa0 f   Odbc.obj
 0001:0003cce0       ?AllocHandle@Odbc@@SAXFPAXPAPAX@Z 0043dce0 f   Odbc.obj
 0001:0003ce00       ?BindCol@Odbc@@SAXPAXGF0JPAJ@Z 0043de00 f   Odbc.obj
 0001:0003cf40       ?ColAttribute@Odbc@@SAXPAXGG0FPAFPAJ@Z 0043df40 f   Odbc.obj
 0001:0003d080       ?DriverConnect@Odbc@@SAXPAXPAUHWND__@@ABVString@@PAV3@G@Z 0043e080 f   Odbc.obj
 0001:0003d4c0       ?EndTran@Odbc@@SAXFPAXF@Z  0043e4c0 f   Odbc.obj
 0001:0003d5c0       ?ExecDirect@Odbc@@SAXPAXABVString@@@Z 0043e5c0 f   Odbc.obj
 0001:0003d820       ?Fetch@Odbc@@QAEFPAX@Z     0043e820 f   Odbc.obj
 0001:0003d960       ?FreeHandle@Odbc@@SAXFPAX@Z 0043e960 f   Odbc.obj
 0001:0003da40       ?FreeStmt@Odbc@@SAXPAXG@Z  0043ea40 f   Odbc.obj
 0001:0003db60       ?GetInfo@Odbc@@SAXPAXG0FPAF@Z 0043eb60 f   Odbc.obj
 0001:0003dca0       ?RowCount@Odbc@@SAXPAXPAJ@Z 0043eca0 f   Odbc.obj
 0001:0003ddc0       ?SetConnectAttr@Odbc@@SAXPAXJ0J@Z 0043edc0 f   Odbc.obj
 0001:0003dee0       ?SetDescField@Odbc@@SAXPAXFF0J@Z 0043eee0 f   Odbc.obj
 0001:0003dfe0       ?SetStmtAttr@Odbc@@SAXPAXJ0J@Z 0043efe0 f   Odbc.obj
 0001:0003e100       ?MakeAccessConnString@Odbc@@CAXABVString@@000PAV2@@Z 0043f100 f   Odbc.obj
 0001:0003e520       ?MakeErrorMsg@Odbc@@CAXFFPAXPAVString@@@Z 0043f520 f   Odbc.obj
 0001:0003eb20       ?MakeMySqlConnString@Odbc@@CAXABVString@@00000PAV2@@Z 0043fb20 f   Odbc.obj
 0001:0003ee60       ?MakePostGreConnString@Odbc@@CAXABVString@@0000PAV2@@Z 0043fe60 f   Odbc.obj
 0001:0003f060       ?MakeSqlServerConnString@Odbc@@CAXABVString@@0000PAV2@@Z 00440060 f   Odbc.obj
 0001:0003f400       ??1OdbcDatabase@@QAE@XZ    00440400 f   OdbcDatabase.obj
 0001:0003f520       ?BeginTrans@OdbcDatabase@@QAEXXZ 00440520 f   OdbcDatabase.obj
 0001:0003f5c0       ?CommitTrans@OdbcDatabase@@QAEXXZ 004405c0 f   OdbcDatabase.obj
 0001:0003f6a0       ?Connect@OdbcDatabase@@QAEXABVString@@KKPAUHWND__@@@Z 004406a0 f   OdbcDatabase.obj
 0001:0003ff80       ?Disconnect@OdbcDatabase@@QAEXXZ 00440f80 f   OdbcDatabase.obj
 0001:000401c0       ?ExecuteDirect@OdbcDatabase@@QAEJABVString@@@Z 004411c0 f   OdbcDatabase.obj
 0001:000403c0       ?ExecuteSelectSqlInteger@OdbcDatabase@@QAE_NABVString@@PAJ@Z 004413c0 f   OdbcDatabase.obj
 0001:00040580       ?ExecuteTrans@OdbcDatabase@@QAEXABVString@@J@Z 00441580 f   OdbcDatabase.obj
 0001:00040760       ?FixUpStringSQL@OdbcDatabase@@QBEXABVString@@FPAV2@@Z 00441760 f   OdbcDatabase.obj
 0001:000409a0       ?GetDbKeyWord@OdbcDatabase@@QAEXPB_WPAVString@@@Z 004419a0 f   OdbcDatabase.obj
 0001:00040b60       ?GetMajorMinorVersion@OdbcDatabase@@QBEXPAH0@Z 00441b60 f   OdbcDatabase.obj
 0001:00040d00       ?GetSupportsSqlType@OdbcDatabase@@QAE_NFPAVString@@@Z 00441d00 f   OdbcDatabase.obj
 0001:00041020       ?IsCaseSensitiveSort@OdbcDatabase@@QBE_NXZ 00442020 f   OdbcDatabase.obj
 0001:000410c0       ?RollbackTrans@OdbcDatabase@@QAEXXZ 004420c0 f   OdbcDatabase.obj
 0001:000411a0       ?StartedTrans@OdbcDatabase@@QAE_NXZ 004421a0 f   OdbcDatabase.obj
 0001:00041300       ?SupportsQueryTimeOut@OdbcDatabase@@QBE_NXZ 00442300 f   OdbcDatabase.obj
 0001:00041380       ?SupportsStoredProcedures@OdbcDatabase@@QAE_NXZ 00442380 f   OdbcDatabase.obj
 0001:00041540       ?FreeTransactionStatement@OdbcDatabase@@AAEXXZ 00442540 f   OdbcDatabase.obj
 0001:00041580       ?GetKeywordCurrentTimestamp@OdbcDatabase@@AAEXPAVString@@@Z 00442580 f   OdbcDatabase.obj
 0001:00041680       ?GetKeywordUpper@OdbcDatabase@@AAEXPAVString@@@Z 00442680 f   OdbcDatabase.obj
 0001:00041740       ?GetKeywordUtcTimestamp@OdbcDatabase@@AAEXPAVString@@@Z 00442740 f   OdbcDatabase.obj
 0001:00041980       ?SetQueryTimeoutAttr@OdbcDatabase@@AAEXPAX@Z 00442980 f   OdbcDatabase.obj
 0001:00041a20       ??0OdbcExportDialog@@QAE@XZ 00442a20 f   OdbcExportDialog.obj
 0001:00041f60       ??_EOdbcExportDialog@@UAEPAXI@Z 00442f60 f i * CIL library *:* CIL module *
 0001:00041f60       ??_GOdbcExportDialog@@UAEPAXI@Z 00442f60 f i OdbcExportDialog.obj
 0001:00041fa0       ??1OdbcExportDialog@@UAE@XZ 00442fa0 f   OdbcExportDialog.obj
 0001:00042220       ?ExportRecordsToDatabase@OdbcExportDialog@@QAEXPAVAuditDatabase@@PAVString@@@Z 00443220 f   OdbcExportDialog.obj
 0001:00042f40       ?SetAuditRecords@OdbcExportDialog@@QAEXABVAuditRecord@@0ABV?$TArray@VAuditRecord@@@@@Z 00443f40 f   OdbcExportDialog.obj
 0001:00043040       ?CommandEvent@OdbcExportDialog@@MAEJIJ@Z 00444040 f   OdbcExportDialog.obj
 0001:00043340       ?InitDialogEvent@OdbcExportDialog@@MAEXXZ 00444340 f   OdbcExportDialog.obj
 0001:00044920       ?AllocateAuditDataBindBuffers@OdbcExportDialog@@AAEXPAVAuditDatabase@@@Z 00445920 f   OdbcExportDialog.obj
 0001:00044de0       ?ExportRecords@OdbcExportDialog@@AAEXXZ 00445de0 f   OdbcExportDialog.obj
 0001:000456c0       ?FillAuditDataBindBuffers@OdbcExportDialog@@AAEXJJ@Z 004466c0 f   OdbcExportDialog.obj
 0001:00045cd0       ?FreeAuditDataBindBuffers@OdbcExportDialog@@AAEXXZ 00446cd0 f   OdbcExportDialog.obj
 0001:00045d80       ?SetProgressMessage@OdbcExportDialog@@AAEXABVString@@@Z 00446d80 f   OdbcExportDialog.obj
 0001:00045ec0       ?ShowAdminDialog@OdbcExportDialog@@AAEXXZ 00446ec0 f   OdbcExportDialog.obj
 0001:000463a0       ?UpdateConfigurationSettings@OdbcExportDialog@@AAEXXZ 004473a0 f   OdbcExportDialog.obj
 0001:00046620       ?GetDataSourceRecords@OdbcInformation@@SAXPAV?$TArray@VAuditRecord@@@@@Z 00447620 f   OdbcInformation.obj
 0001:00046aa0       ?GetDriversRecords@OdbcInformation@@SAXPAV?$TArray@VAuditRecord@@@@@Z 00447aa0 f   OdbcInformation.obj
 0001:000471e0       ??0OdbcRecordSet@@QAE@XZ   004481e0 f   OdbcRecordSet.obj
 0001:000472a0       ??1OdbcRecordSet@@QAE@XZ   004482a0 f   OdbcRecordSet.obj
 0001:00047340       ?Close@OdbcRecordSet@@QAEXXZ 00448340 f   OdbcRecordSet.obj
 0001:000473c0       ?FieldValue@OdbcRecordSet@@QAEABVString@@II@Z 004483c0 f   OdbcRecordSet.obj
 0001:000474a0       ?GetColumnDisplayName@OdbcRecordSet@@QBEPB_WI@Z 004484a0 f   OdbcRecordSet.obj
 0001:00047520       ?GetColumnSqlType@OdbcRecordSet@@QBEFI@Z 00448520 f   OdbcRecordSet.obj
 0001:000475a0       ?Move@OdbcRecordSet@@QAE_NI@Z 004485a0 f   OdbcRecordSet.obj
 0001:00047800       ?MoveNext@OdbcRecordSet@@QAE_NXZ 00448800 f   OdbcRecordSet.obj
 0001:00047860       ?Open@OdbcRecordSet@@QAEXABVString@@PAVOdbcDatabase@@@Z 00448860 f   OdbcRecordSet.obj
 0001:00047b40       ?AllocateCache@OdbcRecordSet@@AAEXXZ 00448b40 f   OdbcRecordSet.obj
 0001:00047f20       ?BindCache@OdbcRecordSet@@AAEXXZ 00448f20 f   OdbcRecordSet.obj
 0001:000482e0       ?DataBufferToString@OdbcRecordSet@@AAEXPAEPAU_TYPE_COLUMN_PROPERTIES@1@@Z 004492e0 f   OdbcRecordSet.obj
 0001:00048760       ?FillCache@OdbcRecordSet@@AAEIFJ@Z 00449760 f   OdbcRecordSet.obj
 0001:00048a60       ?FlllColumnDisplayName@OdbcRecordSet@@AAEXXZ 00449a60 f   OdbcRecordSet.obj
 0001:00048ce0       ?FillColumnProperties@OdbcRecordSet@@AAEXABVString@@@Z 00449ce0 f   OdbcRecordSet.obj
 0001:000495e0       ?GetDataPointerInCache@OdbcRecordSet@@AAEPAEII@Z 0044a5e0 f   OdbcRecordSet.obj
 0001:000497c0       ?GetIndicatorValue@OdbcRecordSet@@AAEJII@Z 0044a7c0 f   OdbcRecordSet.obj
 0001:000499e0       ?UnbindAndDeleteCache@OdbcRecordSet@@AAEXXZ 0044a9e0 f   OdbcRecordSet.obj
 0001:00049a80       ?GetAuditRecords@OpenNetworkPortInformation@@QAEXPAV?$TArray@VAuditRecord@@@@@Z 0044aa80 f   OpenNetworkPortInformation.obj
 0001:0004a6a0       ?GetPortsIphlp@OpenNetworkPortInformation@@AAEXPAV?$TArray@U_TYPE_PORT_INFO@OpenNetworkPortInformation@@@@@Z 0044b6a0 f   OpenNetworkPortInformation.obj
 0001:0004acc0       ?GetPortsXPSP2@OpenNetworkPortInformation@@AAEXPAV?$TArray@U_TYPE_PORT_INFO@OpenNetworkPortInformation@@@@@Z 0044bcc0 f   OpenNetworkPortInformation.obj
 0001:0004b3a0       ?GetPortsXPSP2v6@OpenNetworkPortInformation@@AAEXPAV?$TArray@U_TYPE_PORT_INFO@OpenNetworkPortInformation@@@@@Z 0044c3a0 f   OpenNetworkPortInformation.obj
 0001:0004b940       ?Append@?$TArray@U_TYPE_PORT_INFO@OpenNetworkPortInformation@@@@QAEXABV1@@Z 0044c940 f i OpenNetworkPortInformation.obj
 0001:0004ba20       ?Get@?$TArray@U_TYPE_PORT_INFO@OpenNetworkPortInformation@@@@QBEABU_TYPE_PORT_INFO@OpenNetworkPortInformation@@I@Z 0044ca20 f i OpenNetworkPortInformation.obj
 0001:0004ba80       ?Insert@?$TArray@U_TYPE_PORT_INFO@OpenNetworkPortInformation@@@@QAEXIABU_TYPE_PORT_INFO@OpenNetworkPortInformation@@@Z 0044ca80 f i OpenNetworkPortInformation.obj
 0001:0004bb60       ?GetAuditRecords@PeripheralInformation@@SAXPAV?$TArray@VAuditRecord@@@@@Z 0044cb60 f   PeripheralInformation.obj
 0001:0004c140       ?GetKeyboardRecord@PeripheralInformation@@CAXPAVAuditRecord@@@Z 0044d140 f   PeripheralInformation.obj
 0001:0004c500       ?GetMappedDriveRecords@PeripheralInformation@@CAXPAV?$TArray@VAuditRecord@@@@@Z 0044d500 f   PeripheralInformation.obj
 0001:0004c8c0       ?GetMouseRecord@PeripheralInformation@@CAXPAVAuditRecord@@@Z 0044d8c0 f   PeripheralInformation.obj
 0001:0004cb60       ?GetPrinterRecords@PeripheralInformation@@CAXPAV?$TArray@VAuditRecord@@@@@Z 0044db60 f   PeripheralInformation.obj
 0001:0004ce60       ?GetAuditRecords@PrinterInformation@@SAXPAV?$TArray@VAuditRecord@@@@@Z 0044de60 f   PrinterInfomation.obj
 0001:0004dc20       ?GetPrinterDriverDetails@PrinterInformation@@CAXPB_WPAVString@@11111@Z 0044ec20 f   PrinterInfomation.obj
 0001:0004e120       ?TranslatePaperSize@PrinterInformation@@CAXFPAVString@@@Z 0044f120 f   PrinterInfomation.obj
 0001:0004e580       ?TranslateStatus@PrinterInformation@@CAXKPAVString@@@Z 0044f580 f   PrinterInfomation.obj
 0001:0004e8c0       ?ChangePrivilege@ProcessInformation@@SAXPB_W_N@Z 0044f8c0 f   ProcessInformation.obj
 0001:0004eb00       ?FillProcessesInfo@ProcessInformation@@QAEXXZ 0044fb00 f   ProcessInformation.obj
 0001:0004f080       ?GetExePath@ProcessInformation@@QBEXKPAVString@@@Z 00450080 f   ProcessInformation.obj
 0001:0004f1a0       ?GetRunningProcesseRecords@ProcessInformation@@QAEXPAV?$TArray@VAuditRecord@@@@@Z 004501a0 f   ProcessInformation.obj
 0001:0004f880       ?IsPrivilegeEnabled@ProcessInformation@@SA_NPB_W@Z 00450880 f   ProcessInformation.obj
 0001:0004fc20       ?Get@?$TArray@U_TYPE_PROCESS_INFO@ProcessInformation@@@@QBEABU_TYPE_PROCESS_INFO@ProcessInformation@@I@Z 00450c20 f i ProcessInformation.obj
 0001:0004fc80       ?Insert@?$TArray@U_TYPE_PROCESS_INFO@ProcessInformation@@@@QAEXIABU_TYPE_PROCESS_INFO@ProcessInformation@@@Z 00450c80 f i ProcessInformation.obj
 0001:0004fd60       ?GetLoggedOnUserPrivilegePrecords@SecurityInformation@@SAXPAV?$TArray@VAuditRecord@@@@@Z 00450d60 f   SecurityInformation.obj
 0001:000502e0       ?GetNetworkTimeProtocolRecords@SecurityInformation@@SAXPAV?$TArray@VAuditRecord@@@@@Z 004512e0 f   SecurityInformation.obj
 0001:00050560       ?GetRegistrySecurityValueRecods@SecurityInformation@@SAXPAV?$TArray@VAuditRecord@@@@@Z 00451560 f   SecurityInformation.obj
 0001:000510e0       ?GetRsopHtmlResult@SecurityInformation@@SAXPAVString@@@Z 004520e0 f   SecurityInformation.obj
 0001:00051840       ?GetRSOPSecuritySetting@SecurityInformation@@SAXPB_WGPAVString@@@Z 00452840 f   SecurityInformation.obj
 0001:00051aa0       ?GetSecuritySettingsRecords@SecurityInformation@@SAXPAV?$TArray@VAuditRecord@@@@@Z 00452aa0 f   SecurityInformation.obj
 0001:00052140       ?GetSystemRestorePointRecords@SecurityInformation@@SAXPAV?$TArray@VAuditRecord@@@@@Z 00453140 f   SecurityInformation.obj
 0001:00052640       ?GetUserRightsAssignmentRecords@SecurityInformation@@SAXPAV?$TArray@VAuditRecord@@@@@Z 00453640 f   SecurityInformation.obj
 0001:00052e80       ?EnumerationInformationToAccounts@SecurityInformation@@CAXPBU_LSA_ENUMERATION_INFORMATION@@KPAVString@@@Z 00453e80 f   SecurityInformation.obj
 0001:00053100       ?MakeAccountLockingRecords@SecurityInformation@@CAXPAV?$TArray@VAuditRecord@@@@@Z 00454100 f   SecurityInformation.obj
 0001:00053740       ?MakeAccountSettingsRecords@SecurityInformation@@CAXPAV?$TArray@VAuditRecord@@@@@Z 00454740 f   SecurityInformation.obj
 0001:00053d00       ?MakeAuditPolicyRecords@SecurityInformation@@CAXPAV?$TArray@VAuditRecord@@@@@Z 00454d00 f   SecurityInformation.obj
 0001:00054200       ?MakeAutoLogonRecord@SecurityInformation@@CAXPAVAuditRecord@@@Z 00455200 f   SecurityInformation.obj
 0001:00054500       ?MakeAutomaticUpdateRecords@SecurityInformation@@CAXPAV?$TArray@VAuditRecord@@@@@Z 00455500 f   SecurityInformation.obj
 0001:00054ac0       ?MakeExecuteDataRecord@SecurityInformation@@CAXPAV?$TArray@VAuditRecord@@@@@Z 00455ac0 f   SecurityInformation.obj
 0001:00055020       ?MakeInternetExplorerRecords@SecurityInformation@@CAXPAV?$TArray@VAuditRecord@@@@@Z 00456020 f   SecurityInformation.obj
 0001:000555c0       ?MakeNetworkAccessRecord@SecurityInformation@@CAXPAVAuditRecord@@@Z 004565c0 f   SecurityInformation.obj
 0001:00055a20       ?MakeNetworkSecurityRecords@SecurityInformation@@CAXPAV?$TArray@VAuditRecord@@@@@Z 00456a20 f   SecurityInformation.obj
 0001:00055dc0       ?MakePasswordPolicyRecords@SecurityInformation@@CAXPAV?$TArray@VAuditRecord@@@@@Z 00456dc0 f   SecurityInformation.obj
 0001:000567a0       ?MakeScreenSaverRecords@SecurityInformation@@CAXPAV?$TArray@VAuditRecord@@@@@Z 004577a0 f   SecurityInformation.obj
 0001:00057020       ?StringCchPrintfA@@YAJPADIPBDZZ 00458020 f i SmbiosInformation.obj
 0001:000570a0       ?GetAuditRecords@SmbiosInformation@@QAEXEPAV?$TArray@VAuditRecord@@@@@Z 004580a0 f   SmbiosInformation.obj
 0001:00057240       ?GetItemName@SmbiosInformation@@SAXKPAVString@@@Z 00458240 f   SmbiosInformation.obj
 0001:000572e0       ?GetSmbiosRecord@SmbiosInformation@@QBE_NEGPAVAuditRecord@@@Z 004582e0 f   SmbiosInformation.obj
 0001:00057520       ?GetStructureOffset@SmbiosInformation@@QBE_NEGPAG@Z 00458520 f   SmbiosInformation.obj
 0001:000576c0       ?GetSystemManufacturer@SmbiosInformation@@QBEXPAVString@@@Z 004586c0 f   SmbiosInformation.obj
 0001:00057760       ?GetSystemSerialNumber@SmbiosInformation@@QBEXPAVString@@@Z 00458760 f   SmbiosInformation.obj
 0001:00057800       ?GetSystemUUID@SmbiosInformation@@QBEXPAVString@@@Z 00458800 f   SmbiosInformation.obj
 0001:00057860       ?GetTotalRamMB@SmbiosInformation@@QBEKXZ 00458860 f   SmbiosInformation.obj
 0001:00057920       ?ReadSmbiosData@SmbiosInformation@@QAEXXZ 00458920 f   SmbiosInformation.obj
 0001:00057d40       ?FormatUUID@SmbiosInformation@@CAXPBEKPADI@Z 00458d40 f   SmbiosInformation.obj
 0001:00057e20       ?GetStringValue@SmbiosInformation@@ABE_NKGPAVString@@@Z 00458e20 f   SmbiosInformation.obj
 0001:00057fa0       ?GetItemSpecification@SmbiosInformation@@CAXKPAU_PXS_TYPE_SMBIOS_SPECIFICATION@@@Z 00458fa0 f   SmbiosInformation.obj
 0001:00058140       ?GetSmbiosValue@SmbiosInformation@@ABE_NKGPAU_TYPE_SMBIOS_VALUE@1@@Z 00459140 f   SmbiosInformation.obj
 0001:000586c0       ?GetString@SmbiosInformation@@CAXEPBEGPADI@Z 004596c0 f   SmbiosInformation.obj
 0001:00058820       ?GetType0_BiosRecord@SmbiosInformation@@ABE_NPAVAuditRecord@@@Z 00459820 f   SmbiosInformation.obj
 0001:000592e0       ?GetType1_SystemRecord@SmbiosInformation@@ABE_NPAVAuditRecord@@@Z 0045a2e0 f   SmbiosInformation.obj
 0001:00059740       ?GetType2_BaseBoardRecord@SmbiosInformation@@ABE_NGPAVAuditRecord@@@Z 0045a740 f   SmbiosInformation.obj
 0001:00059d80       ?GetType3_ChassisRecord@SmbiosInformation@@ABE_NPAVAuditRecord@@@Z 0045ad80 f   SmbiosInformation.obj
 0001:0005a420       ?GetType4_ProcessorRecord@SmbiosInformation@@ABE_NGPAVAuditRecord@@@Z 0045b420 f   SmbiosInformation.obj
 0001:0005b540       ?GetType5_MemoryControllerRecord@SmbiosInformation@@ABE_NGPAVAuditRecord@@@Z 0045c540 f   SmbiosInformation.obj
 0001:0005bce0       ?GetType6_MemoryModuleRecord@SmbiosInformation@@ABE_NGPAVAuditRecord@@@Z 0045cce0 f   SmbiosInformation.obj
 0001:0005c200       ?GetType7_CpuCacheRecord@SmbiosInformation@@ABE_NGPAVAuditRecord@@@Z 0045d200 f   SmbiosInformation.obj
 0001:0005cda0       ?GetType8_PortConnectorRecord@SmbiosInformation@@ABE_NGPAVAuditRecord@@@Z 0045dda0 f   SmbiosInformation.obj
 0001:0005d0e0       ?GetType9_SystemSlotRecord@SmbiosInformation@@ABE_NGPAVAuditRecord@@@Z 0045e0e0 f   SmbiosInformation.obj
 0001:0005dda0       ?GetType16_MemoryArrayRecord@SmbiosInformation@@ABE_NGPAVAuditRecord@@@Z 0045eda0 f   SmbiosInformation.obj
 0001:0005e7c0       ?GetType17_MemoryDeviceRecord@SmbiosInformation@@ABE_NGPAVAuditRecord@@@Z 0045f7c0 f   SmbiosInformation.obj
 0001:0005fa40       ?TranslateChassisState@SmbiosInformation@@CAXEPAVString@@@Z 00460a40 f   SmbiosInformation.obj
 0001:0005fc00       ?TranslateChassisType@SmbiosInformation@@CAXEPAVString@@@Z 00460c00 f   SmbiosInformation.obj
 0001:0005ff60       ?TranslateCpuCacheConfiguration@SmbiosInformation@@CAXGPAVString@@@Z 00460f60 f   SmbiosInformation.obj
 0001:000601a0       ?TranslateCpuCacheSramType@SmbiosInformation@@CAXGPAVString@@@Z 004611a0 f   SmbiosInformation.obj
 0001:00060280       ?TranslateMemoryControllerErrCorrection@SmbiosInformation@@CAXEPAVString@@@Z 00461280 f   SmbiosInformation.obj
 0001:00060360       ?TranslateMemoryControllerInterleave@SmbiosInformation@@CAXEPAVString@@@Z 00461360 f   SmbiosInformation.obj
 0001:00060520       ?TranslateMemoryDeviceType@SmbiosInformation@@CAXEPAVString@@@Z 00461520 f   SmbiosInformation.obj
 0001:000607e0       ?TranslateMemoryModuleBank@SmbiosInformation@@CAXEPAVString@@@Z 004617e0 f   SmbiosInformation.obj
 0001:000609c0       ?TranslateMemoryModuleSize@SmbiosInformation@@CAXEPAVString@@@Z 004619c0 f   SmbiosInformation.obj
 0001:00060b20       ?TranslateMemoryModuleType@SmbiosInformation@@CAXGPAVString@@@Z 00461b20 f   SmbiosInformation.obj
 0001:00060c20       ?TranslatePortConnectionType@SmbiosInformation@@CAXEPAVString@@@Z 00461c20 f   SmbiosInformation.obj
 0001:00061020       ?TranslatePortType@SmbiosInformation@@CAXEPAVString@@@Z 00462020 f   SmbiosInformation.obj
 0001:000613e0       ?TranslateProcessorFamily@SmbiosInformation@@CAXEPAVString@@@Z 004623e0 f   SmbiosInformation.obj
 0001:000621c0       ?TranslateProcessorStatus@SmbiosInformation@@CAXEPAVString@@@Z 004631c0 f   SmbiosInformation.obj
 0001:000623e0       ?TranslateProcessorUpgrade@SmbiosInformation@@CAXEPAVString@@@Z 004633e0 f   SmbiosInformation.obj
 0001:00062820       ?TranslateSystemSlotType@SmbiosInformation@@CAXEPAVString@@@Z 00463820 f   SmbiosInformation.obj
 0001:00062c20       ?GetActiveSetupRecords@SoftwareInformation@@SAXPAV?$TArray@VAuditRecord@@@@@Z 00463c20 f   SoftwareInformation.obj
 0001:00063160       ?GetDiagnostics@SoftwareInformation@@QAEXPAVString@@@Z 00464160 f   SoftwareInformation.obj
 0001:000645c0       ?GetInstalledSoftwareRecords@SoftwareInformation@@QAEXPAV?$TArray@VAuditRecord@@@@@Z 004655c0 f   SoftwareInformation.obj
 0001:00065080       ?GetSoftwareUpdateRecords@SoftwareInformation@@QAEXPAV?$TArray@VAuditRecord@@@@@Z 00466080 f   SoftwareInformation.obj
 0001:00065480       ?GetStartupProgramRecords@SoftwareInformation@@SAXPAV?$TArray@VAuditRecord@@@@@Z 00466480 f   SoftwareInformation.obj
 0001:00065be0       ?AddSoftwareInfoFromRegistry@SoftwareInformation@@AAE_NPAVRegistry@@PB_WABVString@@PAV?$TList@U_TYPE_INSTALLED_DATA@SoftwareInformation@@@@@Z 00466be0 f   SoftwareInformation.obj
 0001:000663a0       ?GetArpCacheData@SoftwareInformation@@CAKABVString@@PAHPAV2@2@Z 004673a0 f   SoftwareInformation.obj
 0001:000666a0       ?GetInstalledFromMsi@SoftwareInformation@@AAEXPAV?$TList@U_TYPE_INSTALLED_DATA@SoftwareInformation@@@@@Z 004676a0 f   SoftwareInformation.obj
 0001:00066ec0       ?GetInstalledFromRegistry@SoftwareInformation@@AAEXPAV?$TList@U_TYPE_INSTALLED_DATA@SoftwareInformation@@@@@Z 00467ec0 f   SoftwareInformation.obj
 0001:000671c0       ?GetInstalledMsoFromRegistry@SoftwareInformation@@AAEXPAV?$TList@U_TYPE_INSTALLED_DATA@SoftwareInformation@@@@@Z 004681c0 f   SoftwareInformation.obj
 0001:00067880       ?GetUpdatesFromRegistry@SoftwareInformation@@AAEXPAV?$TList@U_TYPE_UPDATE_DATA@SoftwareInformation@@@@@Z 00468880 f   SoftwareInformation.obj
 0001:00067ea0       ?GetUpdatesFromMsi@SoftwareInformation@@AAEXPAV?$TList@U_TYPE_UPDATE_DATA@SoftwareInformation@@@@@Z 00468ea0 f   SoftwareInformation.obj
 0001:00068360       ?GetUpdatesFromWmi@SoftwareInformation@@AAEXPAV?$TList@U_TYPE_UPDATE_DATA@SoftwareInformation@@@@@Z 00469360 f   SoftwareInformation.obj
 0001:000686a0       ?GetUpdatesFromWua@SoftwareInformation@@AAEXPAV?$TList@U_TYPE_UPDATE_DATA@SoftwareInformation@@@@@Z 004696a0 f   SoftwareInformation.obj
 0001:00068fe0       ?MergeInstalledSoftwareLists@SoftwareInformation@@AAEXPAV?$TList@U_TYPE_INSTALLED_DATA@SoftwareInformation@@@@0@Z 00469fe0 f   SoftwareInformation.obj
 0001:000694a0       ?MergeSoftwareUpdatesLists@SoftwareInformation@@AAEXPAV?$TList@U_TYPE_UPDATE_DATA@SoftwareInformation@@@@0@Z 0046a4a0 f   SoftwareInformation.obj
 0001:00069600       ?IsQorKbNumber@SoftwareInformation@@CA_NPB_W@Z 0046a600 f   SoftwareInformation.obj
 0001:00069680       ??1?$TList@U_TYPE_INSTALLED_DATA@SoftwareInformation@@@@QAE@XZ 0046a680 f i SoftwareInformation.obj
 0001:00069720       ?Append@?$TList@U_TYPE_INSTALLED_DATA@SoftwareInformation@@@@QAEXABU_TYPE_INSTALLED_DATA@SoftwareInformation@@@Z 0046a720 f i SoftwareInformation.obj
 0001:000697e0       ?GetPointer@?$TList@U_TYPE_INSTALLED_DATA@SoftwareInformation@@@@QBEPAU_TYPE_INSTALLED_DATA@SoftwareInformation@@XZ 0046a7e0 f i SoftwareInformation.obj
 0001:00069840       ??1?$TList@U_TYPE_UPDATE_DATA@SoftwareInformation@@@@QAE@XZ 0046a840 f i SoftwareInformation.obj
 0001:000698e0       ?Append@?$TList@U_TYPE_UPDATE_DATA@SoftwareInformation@@@@QAEXABU_TYPE_UPDATE_DATA@SoftwareInformation@@@Z 0046a8e0 f i SoftwareInformation.obj
 0001:000699a0       ?GetPointer@?$TList@U_TYPE_UPDATE_DATA@SoftwareInformation@@@@QBEPAU_TYPE_UPDATE_DATA@SoftwareInformation@@XZ 0046a9a0 f i SoftwareInformation.obj
 0001:00069a00       ?AllocateNode@?$TList@U_TYPE_INSTALLED_DATA@SoftwareInformation@@@@AAEPAU_TYPE_NODE@1@ABU_TYPE_INSTALLED_DATA@SoftwareInformation@@@Z 0046aa00 f i SoftwareInformation.obj
 0001:00069ae0       ?AllocateNode@?$TList@U_TYPE_UPDATE_DATA@SoftwareInformation@@@@AAEPAU_TYPE_NODE@1@ABU_TYPE_UPDATE_DATA@SoftwareInformation@@@Z 0046aae0 f i SoftwareInformation.obj
 0001:00069bc0       ?GetExecActionProperties@TaskSchedulerInformation@@CAXPAUIAction@@PAVString@@1@Z 0046abc0 f   TaskSchedulerInformation.obj
 0001:00069e40       ?GetRegisteredTaskProperties@TaskSchedulerInformation@@CAXPAUIRegisteredTask@@PAVString@@1111111@Z 0046ae40 f   TaskSchedulerInformation.obj
 0001:0006a2a0       ?GetRegisteredTaskMaxRunTime@TaskSchedulerInformation@@CAXPAUIRegisteredTask@@PAVString@@@Z 0046b2a0 f   TaskSchedulerInformation.obj
 0001:0006a4e0       ?GetRegisteredTaskRunCmd@TaskSchedulerInformation@@CAXPAUIRegisteredTask@@PAVString@@@Z 0046b4e0 f   TaskSchedulerInformation.obj
 0001:0006aa60       ?GetRegisteredTaskSchedule@TaskSchedulerInformation@@CAXPAUIRegisteredTask@@PAVString@@@Z 0046ba60 f   TaskSchedulerInformation.obj
 0001:0006af20       ?GetTaskProperties@TaskSchedulerInformation@@CAXPAUITask@@PAVString@@111111@Z 0046bf20 f   TaskSchedulerInformation.obj
 0001:0006b800       ?GetTasksInFolderRecords@TaskSchedulerInformation@@CAXPAUITaskService@@PA_WPAV?$TArray@VAuditRecord@@@@@Z 0046c800 f   TaskSchedulerInformation.obj
 0001:0006c0c0       ?GetType1TaskRecords@TaskSchedulerInformation@@CAXPAV?$TArray@VAuditRecord@@@@@Z 0046d0c0 f   TaskSchedulerInformation.obj
 0001:0006c9e0       ?GetType2TaskRecords@TaskSchedulerInformation@@CAXPAV?$TArray@VAuditRecord@@@@@Z 0046d9e0 f   TaskSchedulerInformation.obj
 0001:0006d040       ?GetMacAddress@TcpIpInformation@@SAXPAVString@@@Z 0046e040 f   TcpIpInformation.obj
 0001:0006d220       ?GetRoutingTableRecords@TcpIpInformation@@QBEXPAV?$TArray@VAuditRecord@@@@@Z 0046e220 f   TcpIpInformation.obj
 0001:0006dc80       ?GetAdaptersRecords6@TcpIpInformation@@CAXPAV?$TArray@VAuditRecord@@@@@Z 0046ec80 f   TcpIpInformation.obj
 0001:0006ed40       ?GetAdaptersRecordsLegacy@TcpIpInformation@@CAXPAV?$TArray@VAuditRecord@@@@@Z 0046fd40 f   TcpIpInformation.obj
 0001:0006f980       ?GetInterfaces@TcpIpInformation@@ABEXPAV?$TArray@U_ADDRESS_INDEX@TcpIpInformation@@@@@Z 00470980 f   TcpIpInformation.obj
 0001:0006fbc0       ?GetWmiAdapterData@TcpIpInformation@@CAXABVString@@PAKPAV2@2221@Z 00470bc0 f   TcpIpInformation.obj
 0001:00070020       ?TranslateConfigManError@TcpIpInformation@@CAXKPAVString@@@Z 00471020 f   TcpIpInformation.obj
 0001:00070400       ?TranslateNetConnectionStatus@TcpIpInformation@@CAXGPAVString@@@Z 00471400 f   TcpIpInformation.obj
 0001:00070660       ?Get@?$TArray@U_ADDRESS_INDEX@TcpIpInformation@@@@QBEABU_ADDRESS_INDEX@TcpIpInformation@@I@Z 00471660 f i TcpIpInformation.obj
 0001:000706c0       ?Insert@?$TArray@U_ADDRESS_INDEX@TcpIpInformation@@@@QAEXIABU_ADDRESS_INDEX@TcpIpInformation@@@Z 004716c0 f i TcpIpInformation.obj
 0001:000707a0       ??0WinAuditConfigDialog@@QAE@XZ 004717a0 f   WinAuditConfigDialog.obj
 0001:00071420       ??_GWinAuditConfigDialog@@UAEPAXI@Z 00472420 f i WinAuditConfigDialog.obj
 0001:00071420       ??_EWinAuditConfigDialog@@UAEPAXI@Z 00472420 f i * CIL library *:* CIL module *
 0001:00071460       ??1WinAuditConfigDialog@@UAE@XZ 00472460 f   WinAuditConfigDialog.obj
 0001:00071720       ?CommandEvent@WinAuditConfigDialog@@MAEJIJ@Z 00472720 f   WinAuditConfigDialog.obj
 0001:00072220       ?InitDialogEvent@WinAuditConfigDialog@@MAEXXZ 00473220 f   WinAuditConfigDialog.obj
 0001:00073c80       ??0WinAuditFrame@@QAE@XZ   00474c80 f   WinAuditFrame.obj
 0001:00075d00       ??_GWinAuditFrame@@UAEPAXI@Z 00476d00 f i WinAuditFrame.obj
 0001:00075d00       ??_EWinAuditFrame@@UAEPAXI@Z 00476d00 f i * CIL library *:* CIL module *
 0001:00075d40       ??1WinAuditFrame@@UAE@XZ   00476d40 f   WinAuditFrame.obj
 0001:00076d60       ?AuditThreadCallback@WinAuditFrame@@QAEKKKPBV?$TArray@VAuditRecord@@@@PBVException@@@Z 00477d60 f   WinAuditFrame.obj
 0001:00076e40       ?AuditThreadDone@WinAuditFrame@@QAEXXZ 00477e40 f   WinAuditFrame.obj
 0001:00077060       ?AuditStart@WinAuditFrame@@QAEXXZ 00478060 f   WinAuditFrame.obj
 0001:00077720       ?AuditThreadUpdate@WinAuditFrame@@QAEXXZ 00478720 f   WinAuditFrame.obj
 0001:00077d00       ?CreateControls@WinAuditFrame@@QAEXXZ 00478d00 f   WinAuditFrame.obj
 0001:00078a40       ?CreateMenuItems@WinAuditFrame@@QAEXXZ 00479a40 f   WinAuditFrame.obj
 0001:000794c0       ?DoAuditInCommandLineMode@WinAuditFrame@@QAEXXZ 0047a4c0 f   WinAuditFrame.obj
 0001:00079d80       ?DoLayout@WinAuditFrame@@UAEXXZ 0047ad80 f   WinAuditFrame.obj
 0001:0007a280       ?ReadIniFile@WinAuditFrame@@QAEXXZ 0047b280 f   WinAuditFrame.obj
 0001:0007a980       ?SetControlsAndMenus@WinAuditFrame@@QAEXXZ 0047b980 f   WinAuditFrame.obj
 0001:0007acc0       ?SetUserInterfaceLanguage@WinAuditFrame@@QAEXGG@Z 0047bcc0 f   WinAuditFrame.obj
 0001:0007aec0       ?AppMessageEvent@WinAuditFrame@@MAEXIIJ@Z 0047bec0 f   WinAuditFrame.obj
 0001:0007b060       ?CloseEvent@WinAuditFrame@@MAEXXZ 0047c060 f   WinAuditFrame.obj
 0001:0007b200       ?CommandEvent@WinAuditFrame@@MAEJIJ@Z 0047c200 f   WinAuditFrame.obj
 0001:0007c7a0       ?CopyDataEvent@WinAuditFrame@@MAEXPAUHWND__@@PBUtagCOPYDATASTRUCT@@@Z 0047d7a0 f   WinAuditFrame.obj
 0001:0007c8b0       ?HelpEvent@WinAuditFrame@@MAEXPBUtagHELPINFO@@@Z 0047d8b0 f   WinAuditFrame.obj
 0001:0007c8c0       ?NotifyEvent@WinAuditFrame@@MAEXPBUtagNMHDR@@@Z 0047d8c0 f   WinAuditFrame.obj
 0001:0007c980       ?SettingChangeEvent@WinAuditFrame@@MAEXXZ 0047d980 f   WinAuditFrame.obj
 0001:0007ca40       ?DestroyMenuItems@WinAuditFrame@@AAEXXZ 0047da40 f   WinAuditFrame.obj
 0001:0007cb20       ?FillHelpContents@WinAuditFrame@@AAEXXZ 0047db20 f   WinAuditFrame.obj
 0001:0007d2c0       ?FindTextW@WinAuditFrame@@AAEX_N0@Z 0047e2c0 f   WinAuditFrame.obj
 0001:0007d4e0       ?HandleHideWindow@WinAuditFrame@@AAEXQAUHWND__@@@Z 0047e4e0 f   WinAuditFrame.obj
 0001:0007d640       ?Save@WinAuditFrame@@AAEXXZ 0047e640 f   WinAuditFrame.obj
 0001:0007d960       ?SaveToFile@WinAuditFrame@@AAEXKKABVString@@@Z 0047e960 f   WinAuditFrame.obj
 0001:0007dee0       ?SetBiggerSmallerText@WinAuditFrame@@AAEX_N@Z 0047eee0 f   WinAuditFrame.obj
 0001:0007dfc0       ?SetControlLabels@WinAuditFrame@@AAEXXZ 0047efc0 f   WinAuditFrame.obj
 0001:0007eb60       ?SendEmail@WinAuditFrame@@AAEXXZ 0047fb60 f   WinAuditFrame.obj
 0001:0007f060       ?SetMenuLabels@WinAuditFrame@@AAEXXZ 00480060 f   WinAuditFrame.obj
 0001:0007fe00       ?SetReportOptions@WinAuditFrame@@AAEXABVString@@@Z 00480e00 f   WinAuditFrame.obj
 0001:000801a0       ?SetColours@WinAuditFrame@@AAEXXZ 004811a0 f   WinAuditFrame.obj
 0001:000804e0       ?SetEditMenu@WinAuditFrame@@AAEXXZ 004814e0 f   WinAuditFrame.obj
 0001:00080620       ?ShowCommandLineHelpMessage@WinAuditFrame@@AAEXXZ 00481620 f   WinAuditFrame.obj
 0001:00080900       ?ShowCreateGuid@WinAuditFrame@@AAEXXZ 00481900 f   WinAuditFrame.obj
 0001:00080d20       ?ShowHideHelp@WinAuditFrame@@AAEX_N@Z 00481d20 f   WinAuditFrame.obj
 0001:00080ea0       ?ShowHideSidePanel@WinAuditFrame@@AAEX_N@Z 00481ea0 f   WinAuditFrame.obj
 0001:00081060       ?ShowOdbcExport@WinAuditFrame@@AAEXXZ 00482060 f   WinAuditFrame.obj
 0001:00081400       ?ViewFirmwareInformation@WinAuditFrame@@AAEXXZ 00482400 f   WinAuditFrame.obj
 0001:00081720       ?ViewOptionsDialog@WinAuditFrame@@AAEXXZ 00482720 f   WinAuditFrame.obj
 0001:000818e0       ?StartStopLogger@WinAuditFrame@@AAEX_N@Z 004828e0 f   WinAuditFrame.obj
 0001:00081b80       ?UpdateLogWindow@WinAuditFrame@@AAEXXZ 00482b80 f   WinAuditFrame.obj
 0001:00081d20       ?WriteIniFile@WinAuditFrame@@AAEXXZ 00482d20 f   WinAuditFrame.obj
 0001:00082760       ??1?$TArray@VTreeViewItem@@@@QAE@XZ 00483760 f i WinAuditFrame.obj
 0001:000827e0       ?Get@?$TArray@VTreeViewItem@@@@QBEABVTreeViewItem@@I@Z 004837e0 f i WinAuditFrame.obj
 0001:00082840       ??1?$TArray@VException@@@@QAE@XZ 00483840 f i WinAuditFrame.obj
 0001:000828c0       ?Get@?$TArray@VException@@@@QBEABVException@@I@Z 004838c0 f i WinAuditFrame.obj
 0001:00082920       ??_EException@@QAEPAXI@Z   00483920 f i WinAuditFrame.obj
 0001:000829a0       ?Insert@?$TArray@VException@@@@QAEXIABVException@@@Z 004839a0 f i WinAuditFrame.obj
 0001:00082b60       ??_ETreeViewItem@@QAEPAXI@Z 00483b60 f i WinAuditFrame.obj
 0001:00082be0       ?Append@?$TArray@VException@@@@QAEXABV1@@Z 00483be0 f i WinAuditFrame.obj
 0001:00082d80       ?PXSAuditRecordsToContent@@YAXABV?$TArray@VAuditRecord@@@@PAV?$TArray@VTreeViewItem@@@@PAKPAVString@@@Z 00483d80 f   WinAuditGlobals.obj
 0001:00083fe0       ?PXSAuditRecordsToHtml@@YAXABV?$TArray@VAuditRecord@@@@PAVString@@@Z 00484fe0 f   WinAuditGlobals.obj
 0001:00085740       ?PXSAuditRecordsToCsv@@YAXABV?$TArray@VAuditRecord@@@@_NPAVString@@@Z 00486740 f   WinAuditGlobals.obj
 0001:00085c40       ?PXSAuditRecordsToCsv2@@YAXABV?$TArray@VAuditRecord@@@@_NPAVString@@@Z 00486c40 f   WinAuditGlobals.obj
 0001:000863e0       ?PXSBSearchComparePortServices@@YAHPBX0@Z 004873e0 f   WinAuditGlobals.obj
 0001:000863e0       ?PXSBSearchCompareAuditItems@@YAHPBX0@Z 004873e0 f   WinAuditGlobals.obj
 0001:00086420       ?PXSGetAuditItemDisplayName@@YAXKPAVString@@@Z 00487420 f   WinAuditGlobals.obj
 0001:000865a0       ?PXSGetCommandLineSwitchValues@@YAXABVStringArray@@PAVString@@1111@Z 004875a0 f   WinAuditGlobals.obj
 0001:000868e0       ?PXSGetDataCategoryProperties@@YAXKPAVString@@PAKPA_N2PAE@Z 004878e0 f   WinAuditGlobals.obj
 0001:00086b00       ?PXSGetRichTextDocumentStart@@YAXPAVString@@@Z 00487b00 f   WinAuditGlobals.obj
 0001:00086c00       ?PXSMakeCommandLineOutputPath@@YAXABVString@@00PAV1@@Z 00487c00 f   WinAuditGlobals.obj
 0001:000871a0       ?PXSReadWinAuditGuidFile@@YAXPAVString@@@Z 004881a0 f   WinAuditGlobals.obj
 0001:000875a0       ?PXSQSortNumberStringAscending@@YAHPBX0@Z 004885a0 f   WinAuditGlobals.obj
 0001:00087600       ?PXSSaveAuditCommandLine@@YAXABVString@@ABV?$TArray@VAuditRecord@@@@@Z 00488600 f   WinAuditGlobals.obj
 0001:00087bc0       ?PXSSortAuditRecords@@YAXPAV?$TArray@VAuditRecord@@@@K@Z 00488bc0 f   WinAuditGlobals.obj
 0001:00087f00       ?PXSWriteWinAuditGuidFile@@YAXXZ 00488f00 f   WinAuditGlobals.obj
 0001:000882a0       ?Set@?$TArray@VAuditRecord@@@@QAEXIABVAuditRecord@@@Z 004892a0 f i WinAuditGlobals.obj
 0001:00088320       ?Insert@?$TArray@VTreeViewItem@@@@QAEXIABVTreeViewItem@@@Z 00489320 f i WinAuditGlobals.obj
 0001:00088620       ?GetWindowsFirewallRecords@WindowsFirewallInformation@@SAXPAV?$TArray@VAuditRecord@@@@@Z 00489620 f   WindowsFirewallInformation.obj
 0001:000889c0       ?GetNextFwAuthorisedApp@WindowsFirewallInformation@@CA_NPAUIEnumVARIANT@@PAVString@@@Z 004899c0 f   WindowsFirewallInformation.obj
 0001:00088ca0       ?GetNextFwAuthorisedPort@WindowsFirewallInformation@@CA_NPAUIEnumVARIANT@@PAVString@@@Z 00489ca0 f   WindowsFirewallInformation.obj
 0001:00088f20       ?GetNextFwAuthorisedSvc@WindowsFirewallInformation@@CA_NPAUIEnumVARIANT@@PAVString@@@Z 00489f20 f   WindowsFirewallInformation.obj
 0001:00089200       ?MakeFwAuthorisedAppsRecords@WindowsFirewallInformation@@CAXPAUINetFwProfile@@PAV?$TArray@VAuditRecord@@@@@Z 0048a200 f   WindowsFirewallInformation.obj
 0001:00089600       ?MakeFwAuthorisedPortsRecords@WindowsFirewallInformation@@CAXPAUINetFwProfile@@PAV?$TArray@VAuditRecord@@@@@Z 0048a600 f   WindowsFirewallInformation.obj
 0001:00089a00       ?MakeFwAuthorisedSvcsRecords@WindowsFirewallInformation@@CAXPAUINetFwProfile@@PAV?$TArray@VAuditRecord@@@@@Z 0048aa00 f   WindowsFirewallInformation.obj
 0001:00089e00       ?MakeFwStatusRecord@WindowsFirewallInformation@@CAXPAUINetFwProfile@@PAVAuditRecord@@@Z 0048ae00 f   WindowsFirewallInformation.obj
 0001:0008a020       ?MakeOpenPortName@WindowsFirewallInformation@@CAXPAUINetFwOpenPort@@PAVString@@@Z 0048b020 f   WindowsFirewallInformation.obj
 0001:0008a380       ?GetCSDVersion@WindowsInformation@@QBEXPAVString@@@Z 0048b380 f   WindowsInformation.obj
 0001:0008a420       ?GetDirectXVersionXP@WindowsInformation@@SAXPAVString@@@Z 0048b420 f   WindowsInformation.obj
 0001:0008aaa0       ?GetFirmwareDataNT6@WindowsInformation@@SAXPAVString@@@Z 0048baa0 f   WindowsInformation.obj
 0001:0008b2e0       ?GetFirmwareDataXP@WindowsInformation@@SAXPAVString@@@Z 0048c2e0 f   WindowsInformation.obj
 0001:0008b8a0       ?GetName@WindowsInformation@@QBEXPAVString@@@Z 0048c8a0 f   WindowsInformation.obj
 0001:0008bb20       ?GetRegistrationDetails@WindowsInformation@@SAXPAVString@@0000@Z 0048cb20 f   WindowsInformation.obj
 0001:0008bfc0       ?GetWin10OSBuild@WindowsInformation@@QBEXPAVString@@@Z 0048cfc0 f   WindowsInformation.obj
 0001:0008c240       ?LanguageIDToName@WindowsInformation@@SAXGPAVString@@@Z 0048d240 f   WindowsInformation.obj
 0001:0008c320       ?GetOpenFileRecords@WindowsNetworkInformation@@SAXPAV?$TArray@VAuditRecord@@@@@Z 0048d320 f   WindowsNetworkInformation.obj
 0001:0008c760       ?GetSessionRecords@WindowsNetworkInformation@@SAXPAV?$TArray@VAuditRecord@@@@@Z 0048d760 f   WindowsNetworkInformation.obj
 0001:0008cba0       ?GetShareRecords@WindowsNetworkInformation@@SAXPAV?$TArray@VAuditRecord@@@@@Z 0048dba0 f   WindowsNetworkInformation.obj
 0001:0008d360       ?TranslateOpenFilePermissions@WindowsNetworkInformation@@CAXKPAVString@@@Z 0048e360 f   WindowsNetworkInformation.obj
 0001:0008d420       ??1File@@QAE@XZ            0048e420 f   PxsBase:File.obj
 0001:0008d480       ?Close@File@@QAEXXZ        0048e480 f   PxsBase:File.obj
 0001:0008d4a0       ?CreateNew@File@@QAEXABVString@@K_N@Z 0048e4a0 f   PxsBase:File.obj
 0001:0008d5a0       ?Delete@File@@SAXABVString@@@Z 0048e5a0 f   PxsBase:File.obj
 0001:0008d640       ?Flush@File@@QBEXXZ        0048e640 f   PxsBase:File.obj
 0001:0008d6a0       ?GetTimes@File@@SAXABVString@@PAU_FILETIME@@11@Z 0048e6a0 f   PxsBase:File.obj
 0001:0008d800       ?GetSize@File@@QBE_KXZ     0048e800 f   PxsBase:File.obj
 0001:0008d8c0       ?IsValidFileName@File@@SA_NABVString@@@Z 0048e8c0 f   PxsBase:File.obj
 0001:0008dbc0       ?Open@File@@QAEXABVString@@KKK_N@Z 0048ebc0 f   PxsBase:File.obj
 0001:0008de40       ?Read@File@@QBEIPAEI@Z     0048ee40 f   PxsBase:File.obj
 0001:0008df20       ?ReadLine@File@@QBEIPAVString@@@Z 0048ef20 f   PxsBase:File.obj
 0001:0008e1a0       ?ReadLineArray@File@@QAEXABVString@@KPAVStringArray@@@Z 0048f1a0 f   PxsBase:File.obj
 0001:0008e360       ?SeekToEnd@File@@QBEXXZ    0048f360 f   PxsBase:File.obj
 0001:0008e400       ?Write@File@@QBEXPBXI@Z    0048f400 f   PxsBase:File.obj
 0001:0008e4e0       ?WriteChars@File@@QBEXABVString@@@Z 0048f4e0 f   PxsBase:File.obj
 0001:0008e600       ??0NullException@@QAE@PB_WPBD@Z 0048f600 f   PxsBase:NullException.obj
 0001:0008e640       ??0NullException@@QAE@ABV0@@Z 0048f640 f   PxsBase:NullException.obj
 0001:0008e6c0       ??1MemoryException@@QAE@XZ 0048f6c0 f   PxsBase:MemoryException.obj
 0001:0008e6c0       ??1UnhandledException@@QAE@XZ 0048f6c0 f   PxsBase:UnhandledException.obj
 0001:0008e6c0       ??1BoundsException@@QAE@XZ 0048f6c0 f   PxsBase:BoundsException.obj
 0001:0008e6c0       ??1ArithmeticException@@QAE@XZ 0048f6c0 f   PxsBase:ArithmeticException.obj
 0001:0008e6c0       ??1FunctionException@@QAE@XZ 0048f6c0 f   PxsBase:FunctionException.obj
 0001:0008e6c0       ??1BadCastException@@QAE@XZ 0048f6c0 f   PxsBase:BadCastException.obj
 0001:0008e6c0       ??1NullException@@QAE@XZ   0048f6c0 f   PxsBase:NullException.obj
 0001:0008e6c0       ??1ComException@@QAE@XZ    0048f6c0 f   PxsBase:ComException.obj
 0001:0008e6c0       ??1ParameterException@@QAE@XZ 0048f6c0 f   PxsBase:ParameterException.obj
 0001:0008e6c0       ??1SystemException@@QAE@XZ 0048f6c0 f   PxsBase:SystemException.obj
 0001:0008e6c0       ??1Exception@@QAE@XZ       0048f6c0 f   PxsBase:Exception.obj
 0001:0008e720       ?StringCchCatW@@YGJPA_WIPB_W@Z 0048f720 f i PxsBase:Formatter.obj
 0001:0008e7d0       ??1Formatter@@QAE@XZ       0048f7d0 f   PxsBase:Formatter.obj
 0001:0008e7d0       ??1String@@QAE@XZ          0048f7d0 f   PxsBase:String.obj
 0001:0008e7e0       ?AddressToIPv6@Formatter@@QAEABVString@@PAEI@Z 0048f7e0 f   PxsBase:Formatter.obj
 0001:0008e9e0       ?BinarySizeT@Formatter@@QAEABVString@@I@Z 0048f9e0 f   PxsBase:Formatter.obj
 0001:0008ea60       ?BinaryUInt8@Formatter@@QAEABVString@@E@Z 0048fa60 f   PxsBase:Formatter.obj
 0001:0008eb00       ?BinaryUInt32@Formatter@@QAEABVString@@K@Z 0048fb00 f   PxsBase:Formatter.obj
 0001:0008eb80       ?BinaryUInt64@Formatter@@QAEABVString@@_K@Z 0048fb80 f   PxsBase:Formatter.obj
 0001:0008ec00       ?CreateGuid@Formatter@@QAEABVString@@XZ 0048fc00 f   PxsBase:Formatter.obj
 0001:0008ece0       ?DateInUserLocale@Formatter@@QAEABVString@@GGG@Z 0048fce0 f   PxsBase:Formatter.obj
 0001:0008eda0       ?Double@Formatter@@QAEABVString@@N@Z 0048fda0 f   PxsBase:Formatter.obj
 0001:0008ee60       ?Double@Formatter@@QAEABVString@@NE@Z 0048fe60 f   PxsBase:Formatter.obj
 0001:0008ef80       ?FileTimeToString@Formatter@@QAEABVString@@ABU_FILETIME@@_N1@Z 0048ff80 f   PxsBase:Formatter.obj
 0001:0008f0a0       ?GetModuleString@Formatter@@QAEABVString@@ABV2@KABVStringArray@@@Z 004900a0 f   PxsBase:Formatter.obj
 0001:0008f300       ?GuidToString@Formatter@@QAEABVString@@ABU_GUID@@@Z 00490300 f   PxsBase:Formatter.obj
 0001:0008f3a0       ?HexStringToNumber@Formatter@@QAEKABVString@@@Z 004903a0 f   PxsBase:Formatter.obj
 0001:0008f520       ?Int32@Formatter@@QAEABVString@@H@Z 00490520 f   PxsBase:Formatter.obj
 0001:0008f580       ?Int64@Formatter@@QAEABVString@@_J@Z 00490580 f   PxsBase:Formatter.obj
 0001:0008f620       ?IsValidIsoTimestamp@Formatter@@QAE_NABVString@@PAU_SYSTEMTIME@@@Z 00490620 f   PxsBase:Formatter.obj
 0001:0008f740       ?IsValidMacAddress@Formatter@@QAE_NABVString@@@Z 00490740 f   PxsBase:Formatter.obj
 0001:0008fb80       ?IsValidStringGuid@Formatter@@QAE_NABVString@@@Z 00490b80 f   PxsBase:Formatter.obj
 0001:0008fc80       ?IsValidYearMonthDay@Formatter@@SA_NHHH@Z 00490c80 f   PxsBase:Formatter.obj
 0001:0008fd00       ?LanguageIdToName@Formatter@@QAEABVString@@G@Z 00490d00 f   PxsBase:Formatter.obj
 0001:000906c0       ?LocalTimeInIsoFormat@Formatter@@QAEABVString@@XZ 004916c0 f   PxsBase:Formatter.obj
 0001:00090720       ?LocalTimeInUserLocale@Formatter@@QAEABVString@@XZ 00491720 f   PxsBase:Formatter.obj
 0001:00090780       ?NowTohhmmssttt@Formatter@@QAEABVString@@XZ 00491780 f   PxsBase:Formatter.obj
 0001:00090800       ?OleTimeInIsoFormat@Formatter@@QAEABVString@@ABN@Z 00491800 f   PxsBase:Formatter.obj
 0001:00090960       ?Pointer@Formatter@@QAEABVString@@PBX@Z 00491960 f   PxsBase:Formatter.obj
 0001:000909e0       ?SecondsToDDHHMM@Formatter@@QAEABVString@@_J@Z 004919e0 f   PxsBase:Formatter.obj
 0001:00090ee0       ?SidToString@Formatter@@QAEABVString@@PAX@Z 00491ee0 f   PxsBase:Formatter.obj
 0001:00090fa0       ?SizeT@Formatter@@QAEABVString@@I@Z 00491fa0 f   PxsBase:Formatter.obj
 0001:00090fc0       ?StorageBytes@Formatter@@QAEABVString@@_K@Z 00491fc0 f   PxsBase:Formatter.obj
 0001:00091280       ?String1@Formatter@@QAEABVString@@PB_WABV2@@Z 00492280 f   PxsBase:Formatter.obj
 0001:00091340       ?String3@Formatter@@QAEABVString@@PB_WABV2@11@Z 00492340 f   PxsBase:Formatter.obj
 0001:000913c0       ?StringInt16@Formatter@@QAEABVString@@PB_WF@Z 004923c0 f   PxsBase:Formatter.obj
 0001:00091500       ?StringInt32@Formatter@@QAEABVString@@PB_WH@Z 00492500 f   PxsBase:Formatter.obj
 0001:00091640       ?StringPointer@Formatter@@QAEABVString@@PB_WPBX@Z 00492640 f   PxsBase:Formatter.obj
 0001:00091790       ?StringSizeT@Formatter@@QAEABVString@@PB_WI@Z 00492790 f   PxsBase:Formatter.obj
 0001:000917c0       ?StringToAnsi@Formatter@@QAEIABVString@@PADI@Z 004927c0 f   PxsBase:Formatter.obj
 0001:00091840       ?StringToInt32@Formatter@@SAHABVString@@@Z 00492840 f   PxsBase:Formatter.obj
 0001:00091960       ?StringToUInt32@Formatter@@SAKABVString@@@Z 00492960 f   PxsBase:Formatter.obj
 0001:00091a80       ?StringUInt32@Formatter@@QAEABVString@@PB_WK@Z 00492a80 f   PxsBase:Formatter.obj
 0001:00091bc0       ?StringUInt32Hex@Formatter@@QAEABVString@@PB_WK_N@Z 00492bc0 f   PxsBase:Formatter.obj
 0001:00091d00       ?StringUInt32_2@Formatter@@QAEABVString@@PB_WKK@Z 00492d00 f   PxsBase:Formatter.obj
 0001:00091ea0       ?StringUInt32_3@Formatter@@QAEABVString@@PB_WKKK@Z 00492ea0 f   PxsBase:Formatter.obj
 0001:000920a0       ?StringUInt8@Formatter@@QAEABVString@@PB_WE@Z 004930a0 f   PxsBase:Formatter.obj
 0001:000921e0       ?StringToWide@Formatter@@SAIABVString@@PA_WI@Z 004931e0 f   PxsBase:Formatter.obj
 0001:000922a0       ?SystemError@Formatter@@QAEABVString@@K@Z 004932a0 f   PxsBase:Formatter.obj
 0001:00092360       ?SystemTimeToString@Formatter@@QAEABVString@@ABU_SYSTEMTIME@@_N1@Z 00493360 f   PxsBase:Formatter.obj
 0001:000925c0       ?TimeInUserLocale@Formatter@@QAEABVString@@KKK@Z 004935c0 f   PxsBase:Formatter.obj
 0001:000926c0       ?TimeTToLocalTimeInIso@Formatter@@QAEABVString@@_J@Z 004936c0 f   PxsBase:Formatter.obj
 0001:00092920       ?UInt32@Formatter@@QAEABVString@@K@Z 00493920 f   PxsBase:Formatter.obj
 0001:00092980       ?UInt32Hex@Formatter@@QAEABVString@@K_N@Z 00493980 f   PxsBase:Formatter.obj
 0001:000929e0       ?UInt64@Formatter@@QAEABVString@@_K@Z 004939e0 f   PxsBase:Formatter.obj
 0001:00092a80       ?UInt8@Formatter@@QAEABVString@@E@Z 00493a80 f   PxsBase:Formatter.obj
 0001:00092ae0       ?UnicodeString@Formatter@@QAEABVString@@PBU_LSA_UNICODE_STRING@@@Z 00493ae0 f   PxsBase:Formatter.obj
 0001:00092bc0       ?WideToMultiByte@Formatter@@AAEIPB_WPADII@Z 00493bc0 f   PxsBase:Formatter.obj
 0001:00092cf0       ?PXSAddInt16@@YAFFF@Z      00493cf0 f   PxsBase:PxsBaseGlobals.obj
 0001:00092d40       ?PXSAddInt32@@YAHHH@Z      00493d40 f   PxsBase:PxsBaseGlobals.obj
 0001:00092dc0       ?PXSAddSizeT@@YAIII@Z      00493dc0 f   PxsBase:PxsBaseGlobals.obj
 0001:00092e00       ?PXSAddSizeT3@@YAIIII@Z    00493e00 f   PxsBase:PxsBaseGlobals.obj
 0001:00092e80       ?PXSAddUInt8@@YAEEE@Z      00493e80 f   PxsBase:PxsBaseGlobals.obj
 0001:00092ec0       ?PXSAddUInt16@@YAGGG@Z     00493ec0 f   PxsBase:PxsBaseGlobals.obj
 0001:00092f20       ?PXSAddUInt32@@YAKKK@Z     00493f20 f   PxsBase:PxsBaseGlobals.obj
 0001:00092f60       ?PXSCastInt32ToSizeT@@YAIH@Z 00493f60 f   PxsBase:PxsBaseGlobals.obj
 0001:00092fa0       ?PXSCastInt32ToUInt8@@YAEH@Z 00493fa0 f   PxsBase:PxsBaseGlobals.obj
 0001:00092fe0       ?PXSCastInt32ToUInt16@@YAGH@Z 00493fe0 f   PxsBase:PxsBaseGlobals.obj
 0001:00093020       ?PXSCastInt32ToUInt32@@YAKH@Z 00494020 f   PxsBase:PxsBaseGlobals.obj
 0001:00093060       ?PXSCastInt64ToTimeT@@YA_J_J@Z 00494060 f   PxsBase:PxsBaseGlobals.obj
 0001:00093080       ?PXSCastInt64ToUInt64@@YA_K_J@Z 00494080 f   PxsBase:PxsBaseGlobals.obj
 0001:000930c0       ?PXSCastLongToSizeT@@YAIJ@Z 004940c0 f   PxsBase:PxsBaseGlobals.obj
 0001:00093100       ?PXSCastLongToUInt32@@YAKJ@Z 00494100 f   PxsBase:PxsBaseGlobals.obj
 0001:00093140       ?PXSCastSizeTToInt32@@YAHI@Z 00494140 f   PxsBase:PxsBaseGlobals.obj
 0001:00093180       ?PXSCastSizeTToSqlLen@@YAJI@Z 00494180 f   PxsBase:PxsBaseGlobals.obj
 0001:000931c0       ?PXSCastSqlLenToSizeT@@YAIJ@Z 004941c0 f   PxsBase:PxsBaseGlobals.obj
 0001:00093200       ?PXSCastSizeTToUInt16@@YAGI@Z 00494200 f   PxsBase:PxsBaseGlobals.obj
 0001:00093240       ?PXSCastSizeTToUInt32@@YAKI@Z 00494240 f   PxsBase:PxsBaseGlobals.obj
 0001:00093260       ?PXSCastSizeTToInt16@@YAFI@Z 00494260 f   PxsBase:PxsBaseGlobals.obj
 0001:000932a0       ?PXSCastTimeTToUInt32@@YAK_J@Z 004942a0 f   PxsBase:PxsBaseGlobals.obj
 0001:000932e0       ?PXSCastUInt32ToInt32@@YAHI@Z 004942e0 f   PxsBase:PxsBaseGlobals.obj
 0001:00093320       ?PXSCastUInt32ToSqlInteger@@YAJK@Z 00494320 f   PxsBase:PxsBaseGlobals.obj
 0001:00093360       ?PXSCastUInt32ToUInt16@@YAGI@Z 00494360 f   PxsBase:PxsBaseGlobals.obj
 0001:000933a0       ?PXSCastUInt64ToInt64@@YA_J_K@Z 004943a0 f   PxsBase:PxsBaseGlobals.obj
 0001:000933f0       ?PXSCastUInt64ToUInt32@@YAK_K@Z 004943f0 f   PxsBase:PxsBaseGlobals.obj
 0001:00093440       ?PXSCoInitializeSecurity@@YAXXZ 00494440 f   PxsBase:PxsBaseGlobals.obj
 0001:000934a0       ?PXSCreateFilledBitmap@@YAPAUHBITMAP__@@PAUHDC__@@HHKKK@Z 004944a0 f   PxsBase:PxsBaseGlobals.obj
 0001:00093720       ?PXSDrawTransparentBitmap@@YAXPAUHDC__@@PAUHBITMAP__@@HHK@Z 00494720 f   PxsBase:PxsBaseGlobals.obj
 0001:00093860       ?PXSEscapeRichTextChar@@YAI_WPA_WI@Z 00494860 f   PxsBase:PxsBaseGlobals.obj
 0001:00093980       ?PXSExpandEnvironmentStrings@@YAXPB_WPAVString@@@Z 00494980 f   PxsBase:PxsBaseGlobals.obj
 0001:00093ac0       ?PXSGetExeDirectory@@YAXPAVString@@@Z 00494ac0 f   PxsBase:PxsBaseGlobals.obj
 0001:00093ba0       ?PXSGetExePath@@YAXPAVString@@@Z 00494ba0 f   PxsBase:PxsBaseGlobals.obj
 0001:00093c80       ?PXSGetHtmlCharacterEntity@@YAI_WPA_WI@Z 00494c80 f   PxsBase:PxsBaseGlobals.obj
 0001:00093ea0       ?PXSGetResourceString@@YAXKPAVString@@@Z 00494ea0 f   PxsBase:PxsBaseGlobals.obj
 0001:00093ec0       ?PXSGetStockFont@@YAPAUHFONT__@@H@Z 00494ec0 f   PxsBase:PxsBaseGlobals.obj
 0001:00093f60       ?PXSInitializeComOnThread@@YAXXZ 00494f60 f   PxsBase:PxsBaseGlobals.obj
 0001:00093fc0       ?PXSIsHighColour@@YA_NPAUHDC__@@@Z 00494fc0 f   PxsBase:PxsBaseGlobals.obj
 0001:000940c0       ?PXSIsWhiteSpace@@YA_N_W@Z 004950c0 f   PxsBase:PxsBaseGlobals.obj
 0001:00094160       ?PXSLogAppError@@YAXPB_W@Z 00495160 f   PxsBase:PxsBaseGlobals.obj
 0001:00094260       ?PXSLogAppError1@@YAXPB_WABVString@@@Z 00495260 f   PxsBase:PxsBaseGlobals.obj
 0001:00094340       ?PXSLogAppError2@@YAXPB_WABVString@@1@Z 00495340 f   PxsBase:PxsBaseGlobals.obj
 0001:000943c0       ?PXSLogAppInfo@@YAXPB_W@Z  004953c0 f   PxsBase:PxsBaseGlobals.obj
 0001:000944c0       ?PXSLogAppInfo1@@YAXPB_WABVString@@@Z 004954c0 f   PxsBase:PxsBaseGlobals.obj
 0001:000945a0       ?PXSLogAppInfo2@@YAXPB_WABVString@@1@Z 004955a0 f   PxsBase:PxsBaseGlobals.obj
 0001:00094620       ?PXSLogAppInfoSizeT@@YAXPB_WI@Z 00495620 f   PxsBase:PxsBaseGlobals.obj
 0001:00094780       ?PXSLogAppWarn@@YAXPB_W@Z  00495780 f   PxsBase:PxsBaseGlobals.obj
 0001:00094880       ?PXSLogAppWarn1@@YAXPB_WABVString@@@Z 00495880 f   PxsBase:PxsBaseGlobals.obj
 0001:00094960       ?PXSLogAppWarn2@@YAXPB_WABVString@@1@Z 00495960 f   PxsBase:PxsBaseGlobals.obj
 0001:000949e0       ?PXSLogComWarn@@YAXJPB_W@Z 004959e0 f   PxsBase:PxsBaseGlobals.obj
 0001:00094ae0       ?PXSLogComWarn1@@YAXJPB_WABVString@@@Z 00495ae0 f   PxsBase:PxsBaseGlobals.obj
 0001:00094bc0       ?PXSLogConfigManError1@@YAXKPB_WABVString@@@Z 00495bc0 f   PxsBase:PxsBaseGlobals.obj
 0001:00094cb0       ?PXSLogException@@YAXABVException@@PBD@Z 00495cb0 f   PxsBase:PxsBaseGlobals.obj
 0001:00094d20       ?PXSLogException@@YAXPB_WABVException@@PBD@Z 00495d20 f   PxsBase:PxsBaseGlobals.obj
 0001:00094f80       ?PXSLogNetError1@@YAXKPB_WABVString@@@Z 00495f80 f   PxsBase:PxsBaseGlobals.obj
 0001:00095060       ?PXSLogNetError2@@YAXKPB_WABVString@@1@Z 00496060 f   PxsBase:PxsBaseGlobals.obj
 0001:000950e0       ?PXSLogNtStatusError1@@YAXJPB_WABVString@@@Z 004960e0 f   PxsBase:PxsBaseGlobals.obj
 0001:000951c0       ?PXSLogNtStatusWarn1@@YAXJPB_WABVString@@@Z 004961c0 f   PxsBase:PxsBaseGlobals.obj
 0001:000952a0       ?PXSLogSysError@@YAXKPB_W@Z 004962a0 f   PxsBase:PxsBaseGlobals.obj
 0001:000953a0       ?PXSLogSysError1@@YAXKPB_WABVString@@@Z 004963a0 f   PxsBase:PxsBaseGlobals.obj
 0001:00095480       ?PXSLogSysError2@@YAXKPB_WABVString@@1@Z 00496480 f   PxsBase:PxsBaseGlobals.obj
 0001:00095520       ?PXSLogSysInfo@@YAXKPB_W@Z 00496520 f   PxsBase:PxsBaseGlobals.obj
 0001:00095640       ?PXSLogSysInfo1@@YAXKPB_WABVString@@@Z 00496640 f   PxsBase:PxsBaseGlobals.obj
 0001:00095710       ?PXSLogSysInfo2@@YAXKPB_WABVString@@1@Z 00496710 f   PxsBase:PxsBaseGlobals.obj
 0001:000957a0       ?PXSLogSysWarn@@YAXKPB_W@Z 004967a0 f   PxsBase:PxsBaseGlobals.obj
 0001:000958c0       ?PXSLogSysWarn1@@YAXKPB_WABVString@@@Z 004968c0 f   PxsBase:PxsBaseGlobals.obj
 0001:000959a0       ?PXSLogSysWarn2@@YAXKPB_WABVString@@1@Z 004969a0 f   PxsBase:PxsBaseGlobals.obj
 0001:00095a20       ?PXSLogWriteEntry@@YAXKKK_NPB_WABVString@@2@Z 00496a20 f   PxsBase:PxsBaseGlobals.obj
 0001:00095aa0       ?PXSLimitUInt32@@YAXKKPAK@Z 00496aa0 f   PxsBase:PxsBaseGlobals.obj
 0001:00095b00       ?PXSGetMd5Hash@@YAXPAEKPAVString@@@Z 00496b00 f   PxsBase:PxsBaseGlobals.obj
 0001:00095dc0       ?PXSMultiplyInt32@@YAHHH@Z 00496dc0 f   PxsBase:PxsBaseGlobals.obj
 0001:00095e20       ?PXSMultiplySizeT@@YAIII@Z 00496e20 f   PxsBase:PxsBaseGlobals.obj
 0001:00095e80       ?PXSMultiplyUInt32@@YAKKK@Z 00496e80 f   PxsBase:PxsBaseGlobals.obj
 0001:00095ed0       ?PXSMultiplyUInt64@@YA_K_K0@Z 00496ed0 f   PxsBase:PxsBaseGlobals.obj
 0001:00095f40       ?PXSOFNHookProc@@YGIPAUHWND__@@IIJ@Z 00496f40 f   PxsBase:PxsBaseGlobals.obj
 0001:000962e0       ?PXSPromptForFilePath@@YA_NPAUHWND__@@_N1PB_WPAK22PAVString@@@Z 004972e0 f   PxsBase:PxsBaseGlobals.obj
 0001:00096980       ?PXSQSortStringAscending@@YAHPBX0@Z 00497980 f   PxsBase:PxsBaseGlobals.obj
 0001:000969e0       ?PXSQSortStringStringAscending@@YAHPBX0@Z 004979e0 f   PxsBase:PxsBaseGlobals.obj
 0001:00096a40       ?PXSShowExceptionDialog@@YAXABVException@@PAUHWND__@@@Z 00497a40 f   PxsBase:PxsBaseGlobals.obj
 0001:00096e80       ?PXSSortNameValueArray@@YAXPAV?$TArray@VNameValue@@@@@Z 00497e80 f   PxsBase:PxsBaseGlobals.obj
 0001:00097140       ?PXSShowUnhandledExceptionDialog@@YGJPAU_EXCEPTION_POINTERS@@@Z 00498140 f   PxsBase:PxsBaseGlobals.obj
 0001:00097460       ?PXSStringCchCopy@@YAXPA_WIPB_WPBD@Z 00498460 f   PxsBase:PxsBaseGlobals.obj
 0001:000974a0       ?PXSStringCchPrintfFloat@@YAXPA_WIMPBD@Z 004984a0 f   PxsBase:PxsBaseGlobals.obj
 0001:00097520       ?PXSStringCchPrintfInt32@@YAXPA_WIHPBD@Z 00498520 f   PxsBase:PxsBaseGlobals.obj
 0001:00097590       ?PXSStringCchPrintfInt64@@YAXPA_WI_JPBD@Z 00498590 f   PxsBase:PxsBaseGlobals.obj
 0001:00097600       ?PXSStringCchPrintfUInt8@@YAXPA_WIEPBD@Z 00498600 f   PxsBase:PxsBaseGlobals.obj
 0001:00097680       ?PXSStringCchPrintfUInt32@@YAXPA_WIKPBD@Z 00498680 f   PxsBase:PxsBaseGlobals.obj
 0001:00097700       ?PXSTerminateHandler@@YAXXZ 00498700 f   PxsBase:PxsBaseGlobals.obj
 0001:00097840       ?PXSTranslateDriveType@@YAXIPAVString@@@Z 00498840 f   PxsBase:PxsBaseGlobals.obj
 0001:00097940       ?PXSUnQuoteString@@YAXPAVString@@@Z 00498940 f   PxsBase:PxsBaseGlobals.obj
 0001:00097a40       ?PXSVariantToString@@YAXPBUtagVARIANT@@PAVString@@@Z 00498a40 f   PxsBase:PxsBaseGlobals.obj
 0001:00097d20       ?PXSVariantValueToString@@YAXPBUtagVARIANT@@PAVString@@@Z 00498d20 f   PxsBase:PxsBaseGlobals.obj
 0001:00098160       ?PXSWriteUnhandledExceptionToLog@@YGJPAU_EXCEPTION_POINTERS@@@Z 00499160 f   PxsBase:PxsBaseGlobals.obj
 0001:00098280       ?Set@?$TArray@VNameValue@@@@QAEXIABVNameValue@@@Z 00499280 f i PxsBase:PxsBaseGlobals.obj
 0001:00098300       ?SetSize@?$TArray@VNameValue@@@@QAEXI@Z 00499300 f i PxsBase:PxsBaseGlobals.obj
 0001:000984e0       ?Append@?$TArray@VNameValue@@@@QAEXABV1@@Z 004994e0 f i PxsBase:PxsBaseGlobals.obj
 0001:000986b0       ??0Exception@@QAE@XZ       004996b0 f   PxsBase:Exception.obj
 0001:00098760       ??0Exception@@QAE@KKPB_WPBD@Z 00499760 f   PxsBase:Exception.obj
 0001:00098880       ??0Exception@@QAE@ABV0@@Z  00499880 f   PxsBase:Exception.obj
 0001:000988e0       ??4Exception@@QAEAAV0@ABV0@@Z 004998e0 f   PxsBase:Exception.obj
 0001:000989c0       ?Translate@Exception@@QAE_NKKPAVString@@@Z 004999c0 f   PxsBase:Exception.obj
 0001:00098dc0       ?TranslateType@Exception@@QAEXKPAVString@@@Z 00499dc0 f   PxsBase:Exception.obj
 0001:00099080       ?FillCrashString@Exception@@IAEXPBU_EXCEPTION_POINTERS@@@Z 0049a080 f   PxsBase:Exception.obj
 0001:000996e0       ?FillInDescription@Exception@@IAEXXZ 0049a6e0 f   PxsBase:Exception.obj
 0001:000997e0       ?FillInDetails@Exception@@IAEXPB_WPBDK@Z 0049a7e0 f   PxsBase:Exception.obj
 0001:00099ca0       ?FillInMessage@Exception@@IAEXXZ 0049aca0 f   PxsBase:Exception.obj
 0001:00099de0       ?GetFunctionNameFromAddress@Exception@@AAE_NPBXPAVString@@@Z 0049ade0 f   PxsBase:Exception.obj
 0001:00099fa0       ?MakeStackTrace@Exception@@AAEXPBU_CONTEXT@@_NKPAVString@@@Z 0049afa0 f   PxsBase:Exception.obj
 0001:0009a1c0       ?TranslateAddressToModuleInformation@Exception@@AAEXPBX_NPAVString@@@Z 0049b1c0 f   PxsBase:Exception.obj
 0001:0009a660       ?TranslateAppError@Exception@@AAE_NKPAVString@@@Z 0049b660 f   PxsBase:Exception.obj
 0001:0009a7a0       ?TranslateComError@Exception@@AAE_NJPAVString@@@Z 0049b7a0 f   PxsBase:Exception.obj
 0001:0009a840       ?TranslateCommonDlgError@Exception@@AAE_NKPAVString@@@Z 0049b840 f   PxsBase:Exception.obj
 0001:0009ab60       ?TranslateCfgMgrError@Exception@@AAE_NKPAVString@@@Z 0049bb60 f   PxsBase:Exception.obj
 0001:0009b0e0       ?TranslateMAPIError@Exception@@AAE_NKPAVString@@@Z 0049c0e0 f   PxsBase:Exception.obj
 0001:0009b260       ?TranslateModuleError@Exception@@AAE_NKPB_WPAVString@@@Z 0049c260 f   PxsBase:Exception.obj
 0001:0009b400       ?TranslateSystemError@Exception@@AAE_NKPAVString@@@Z 0049c400 f   PxsBase:Exception.obj
 0001:0009b4e0       ?TranslateWBEMStatusError@Exception@@AAE_NJPAVString@@@Z 0049c4e0 f   PxsBase:Exception.obj
 0001:0009b600       ?TranslateZLibError@Exception@@AAE_NHPAVString@@@Z 0049c600 f   PxsBase:Exception.obj
 0001:0009b740       ??1AutoVariantClear@@QAE@XZ 0049c740 f   PxsBase:AutoVariantClear.obj
 0001:0009b750       ??0ComException@@QAE@JPB_WPBD@Z 0049c750 f   PxsBase:ComException.obj
 0001:0009b780       ??0ComException@@QAE@ABV0@@Z 0049c780 f   PxsBase:ComException.obj
 0001:0009b800       ??1AutoIUnknownRelease@@QAE@XZ 0049c800 f   PxsBase:AutoIUnknownRelease.obj
 0001:0009b850       ??1BStr@@QAE@XZ            0049c850 f   PxsBase:BStr.obj
 0001:0009b850       ??1AutoSysFreeString@@QAE@XZ 0049c850 f   PxsBase:AutoSysFreeString.obj
 0001:0009b860       ?Allocate@BStr@@QAEXABVString@@@Z 0049c860 f   PxsBase:BStr.obj
 0001:0009b8e0       ??4String@@QAEAAV0@ABV0@@Z 0049c8e0 f   PxsBase:String.obj
 0001:0009b900       ??4String@@QAEAAV0@PB_W@Z  0049c900 f   PxsBase:String.obj
 0001:0009ba40       ??YString@@QAEAAV0@ABV0@@Z 0049ca40 f   PxsBase:String.obj
 0001:0009ba80       ??YString@@QAEAAV0@PB_W@Z  0049ca80 f   PxsBase:String.obj
 0001:0009bac0       ?Allocate@String@@QAEXI@Z  0049cac0 f   PxsBase:String.obj
 0001:0009bbc0       ?AppendChar@String@@QAEX_WI@Z 0049cbc0 f   PxsBase:String.obj
 0001:0009bd00       ?AppendChars@String@@QAEXPB_WI@Z 0049cd00 f   PxsBase:String.obj
 0001:0009bdf0       ?c_str@String@@QBEPB_WXZ   0049cdf0 f   PxsBase:String.obj
 0001:0009be00       ?CharAt@String@@QBE_WI@Z   0049ce00 f   PxsBase:String.obj
 0001:0009be60       ?EndsWithCharacterI@String@@QBE_N_W@Z 0049ce60 f   PxsBase:String.obj
 0001:0009bf00       ?EscapeForHtml@String@@QAEXXZ 0049cf00 f   PxsBase:String.obj
 0001:0009c100       ?EscapeForRichText@String@@QAEXXZ 0049d100 f   PxsBase:String.obj
 0001:0009c2e0       ?GetAnsiMultiByteLength@String@@QBEIXZ 0049d2e0 f   PxsBase:String.obj
 0001:0009c360       ?GetLength@String@@QBEIXZ  0049d360 f   PxsBase:String.obj
 0001:0009c380       ?IndexesOf@String@@QBEIPB_W_NPAV?$TArray@I@@@Z 0049d380 f   PxsBase:String.obj
 0001:0009c4a0       ?IndexOfI@String@@QBEIPB_W@Z 0049d4a0 f   PxsBase:String.obj
 0001:0009c570       ?IsEmpty@String@@QBE_NXZ   0049d570 f   PxsBase:String.obj
 0001:0009c5a0       ?ReplaceI@String@@QAEIPB_W0@Z 0049d5a0 f   PxsBase:String.obj
 0001:0009c820       ?ReplaceCharAt@String@@QAEXI_W@Z 0049d820 f   PxsBase:String.obj
 0001:0009c8a0       ?SetAnsi@String@@QAEXPBD@Z 0049d8a0 f   PxsBase:String.obj
 0001:0009c940       ?SubString@String@@QBEXIIPAV1@@Z 0049d940 f   PxsBase:String.obj
 0001:0009ca60       ?ToArray@String@@QBEI_WPAVStringArray@@@Z 0049da60 f   PxsBase:String.obj
 0001:0009cc60       ?Trim@String@@QAEXXZ       0049dc60 f   PxsBase:String.obj
 0001:0009cd20       ?SetMultibyte@String@@AAEXPBDII@Z 0049dd20 f   PxsBase:String.obj
 0001:0009cee0       ?Insert@?$TArray@I@@QAEXIABI@Z 0049dee0 f i PxsBase:String.obj
 0001:0009cfa0       ??0FunctionException@@QAE@PB_WPBD@Z 0049dfa0 f   PxsBase:FunctionException.obj
 0001:0009cfe0       ??0FunctionException@@QAE@ABV0@@Z 0049dfe0 f   PxsBase:FunctionException.obj
 0001:0009d050       ??0SystemException@@QAE@KPB_WPBD@Z 0049e050 f   PxsBase:SystemException.obj
 0001:0009d080       ??0SystemException@@QAE@ABV0@@Z 0049e080 f   PxsBase:SystemException.obj
 0001:0009d0f0       ??0ParameterException@@QAE@PB_WPBD@Z 0049e0f0 f   PxsBase:ParameterException.obj
 0001:0009d120       ??0ParameterException@@QAE@ABV0@@Z 0049e120 f   PxsBase:ParameterException.obj
 0001:0009d1a0       ?GetBuiltInAccountNameFromRID@SystemInformation@@QBEXKPAVString@@@Z 0049e1a0 f   PxsBase:SystemInformation.obj
 0001:0009d4e0       ?GetComputerNetBiosName@SystemInformation@@QBEXPAVString@@@Z 0049e4e0 f   PxsBase:SystemInformation.obj
 0001:0009d5c0       ?GetComputerSiteName@SystemInformation@@QBEXPAVString@@@Z 0049e5c0 f   PxsBase:SystemInformation.obj
 0001:0009d7e0       ?GetCurrentUserName@SystemInformation@@QBEXPAVString@@@Z 0049e7e0 f   PxsBase:SystemInformation.obj
 0001:0009d8e0       ?GetDomainNetBiosName@SystemInformation@@QBEXPAVString@@@Z 0049e8e0 f   PxsBase:SystemInformation.obj
 0001:0009d9e0       ?GetEdition@SystemInformation@@QBEXPAVString@@@Z 0049e9e0 f   PxsBase:SystemInformation.obj
 0001:0009e2c0       ?GetMajorMinorBuild@SystemInformation@@QBEXPAVString@@@Z 0049f2c0 f   PxsBase:SystemInformation.obj
 0001:0009e520       ?GetVersionStrings@SystemInformation@@QBEXPAVString@@000@Z 0049f520 f   PxsBase:SystemInformation.obj
 0001:0009ebe0       ?GetProductInfoType@SystemInformation@@QBEKXZ 0049fbe0 f   PxsBase:SystemInformation.obj
 0001:0009ed20       ?GetServicePackMajorDotMinor@SystemInformation@@QBEXPAVString@@@Z 0049fd20 f   PxsBase:SystemInformation.obj
 0001:0009eec0       ?GetSystemDirectoryPath@SystemInformation@@QBEXPAVString@@@Z 0049fec0 f   PxsBase:SystemInformation.obj
 0001:0009f000       ?GetUpTime@SystemInformation@@QBE_JXZ 004a0000 f   PxsBase:SystemInformation.obj
 0001:0009f280       ?GetWindowsDirectoryPath@SystemInformation@@QBEXPAVString@@@Z 004a0280 f   PxsBase:SystemInformation.obj
 0001:0009f3c0       ?IsAccountEnabled@SystemInformation@@QBE_NABVString@@@Z 004a03c0 f   PxsBase:SystemInformation.obj
 0001:0009f560       ?IsAdministrator@SystemInformation@@QBE_NXZ 004a0560 f   PxsBase:SystemInformation.obj
 0001:0009f820       ?IsWOW64@SystemInformation@@QBE_NXZ 004a0820 f   PxsBase:SystemInformation.obj
 0001:0009f8a0       ?FillVersionInfoEx@SystemInformation@@IBEXPAU_OSVERSIONINFOEXW@@@Z 004a08a0 f   PxsBase:SystemInformation.obj
 0001:0009fb90       ??0BoundsException@@QAE@PB_WPBD@Z 004a0b90 f   PxsBase:BoundsException.obj
 0001:0009fbc0       ??0BoundsException@@QAE@ABV0@@Z 004a0bc0 f   PxsBase:BoundsException.obj
 0001:0009fc40       ?GetVersion@FileVersion@@SAXABVString@@PAV2@11@Z 004a0c40 f   PxsBase:FileVersion.obj
 0001:000a0180       ?GetVersionInfoString@FileVersion@@CAXPAEKPB_WPAVString@@@Z 004a1180 f   PxsBase:FileVersion.obj
 0001:000a0270       ??1AllocateChars@@QAE@XZ   004a1270 f   PxsBase:AllocateChars.obj
 0001:000a0270       ??1AllocateBytes@@QAE@XZ   004a1270 f   PxsBase:AllocateBytes.obj
 0001:000a0270       ??1AllocateWChars@@QAE@XZ  004a1270 f   PxsBase:AllocateWChars.obj
 0001:000a02a0       ?New@AllocateBytes@@QAEPAEI@Z 004a12a0 f   PxsBase:AllocateBytes.obj
 0001:000a0320       ?New@AllocateWChars@@QAEPA_WI@Z 004a1320 f   PxsBase:AllocateWChars.obj
 0001:000a03c0       ??0Application@@QAE@XZ     004a13c0 f   PxsBase:Application.obj
 0001:000a0660       ??1Application@@QAE@XZ     004a1660 f   PxsBase:Application.obj
 0001:000a0800       ?AddAppResourceLanguageID@Application@@QAEXGGG@Z 004a1800 f   PxsBase:Application.obj
 0001:000a0860       ?GetApplicationName@Application@@QAEXPAVString@@@Z 004a1860 f   PxsBase:Application.obj
 0001:000a0920       ?GetApplicationTempPath@Application@@QAEX_NPAVString@@@Z 004a1920 f   PxsBase:Application.obj
 0001:000a0ac0       ?GetDiagnosticData@Application@@QBEX_NPAVStringArray@@@Z 004a1ac0 f   PxsBase:Application.obj
 0001:000a1c40       ?GetDiagnostics@Application@@QBEXPAVString@@@Z 004a2c40 f   PxsBase:Application.obj
 0001:000a1e20       ?GetResourceString@Application@@QAEXKPAVString@@@Z 004a2e20 f   PxsBase:Application.obj
 0001:000a1f40       ?GetResourceString3@Application@@QAEXKABVString@@00PAV2@@Z 004a2f40 f   PxsBase:Application.obj
 0001:000a2080       ?LoadStringFile@Application@@QAEXGG@Z 004a3080 f   PxsBase:Application.obj
 0001:000a2280       ??1ID_TEXT@Application@@QAE@XZ 004a3280 f i PxsBase:Application.obj
 0001:000a22a0       ?LoadTextDataResource@Application@@SAXKPAVString@@@Z 004a32a0 f   PxsBase:Application.obj
 0001:000a2520       ?LogFlush@Application@@QAEXXZ 004a3520 f   PxsBase:Application.obj
 0001:000a25c0       ?StopLogger@Application@@QAEXXZ 004a35c0 f   PxsBase:Application.obj
 0001:000a2660       ?WriteToAppLog@Application@@QAEXKKK_NPB_WABVString@@2@Z 004a3660 f   PxsBase:Application.obj
 0001:000a2760       ?GetLanguageResourceIDs@Application@@AAEXGGPAG00@Z 004a3760 f   PxsBase:Application.obj
 0001:000a2aa0       ?GetStringTable@Application@@CAXGPAV?$TList@UID_TEXT@Application@@@@@Z 004a3aa0 f   PxsBase:Application.obj
 0001:000a2c80       ?MergeStringTables@Application@@CAXPAV?$TList@UID_TEXT@Application@@@@0@Z 004a3c80 f   PxsBase:Application.obj
 0001:000a2e80       ?StringTableLineToIdString@Application@@CA_NABVString@@PAUID_TEXT@1@@Z 004a3e80 f   PxsBase:Application.obj
 0001:000a3040       ??1?$TList@UID_TEXT@Application@@@@QAE@XZ 004a4040 f i PxsBase:Application.obj
 0001:000a3080       ?Append@?$TList@UID_TEXT@Application@@@@QAEXABUID_TEXT@Application@@@Z 004a4080 f i PxsBase:Application.obj
 0001:000a3140       ?Get@?$TList@UID_TEXT@Application@@@@QBEABUID_TEXT@Application@@XZ 004a4140 f i PxsBase:Application.obj
 0001:000a31a0       ?GetPointer@?$TList@UID_TEXT@Application@@@@QBEPAUID_TEXT@Application@@XZ 004a41a0 f i PxsBase:Application.obj
 0001:000a3200       ?RemoveAll@?$TList@UID_TEXT@Application@@@@QAEXXZ 004a4200 f i PxsBase:Application.obj
 0001:000a3280       ??1?$TArray@URESOURCE_LANGIDS@Application@@@@QAE@XZ 004a4280 f i PxsBase:Application.obj
 0001:000a32e0       ?Get@?$TArray@URESOURCE_LANGIDS@Application@@@@QBEABURESOURCE_LANGIDS@Application@@I@Z 004a42e0 f i PxsBase:Application.obj
 0001:000a3340       ?AllocateNode@?$TList@UID_TEXT@Application@@@@AAEPAU_TYPE_NODE@1@ABUID_TEXT@Application@@@Z 004a4340 f i PxsBase:Application.obj
 0001:000a3420       ?Insert@?$TArray@URESOURCE_LANGIDS@Application@@@@QAEXIABURESOURCE_LANGIDS@Application@@@Z 004a4420 f i PxsBase:Application.obj
 0001:000a3540       ??1Wmi@@QAE@XZ             004a4540 f   PxsBase:Wmi.obj
 0001:000a35c0       ?Connect@Wmi@@QAEXPB_W@Z   004a45c0 f   PxsBase:Wmi.obj
 0001:000a37e0       ?Disconnect@Wmi@@QAEXXZ    004a47e0 f   PxsBase:Wmi.obj
 0001:000a3860       ?GetPropertyValues@Wmi@@QAEXPAV?$TArray@VNameValue@@@@@Z 004a4860 f   PxsBase:Wmi.obj
 0001:000a3d20       ?ExecQuery@Wmi@@QAEXPB_W@Z 004a4d20 f   PxsBase:Wmi.obj
 0001:000a3f60       ?Get@Wmi@@QAEXPB_WPAVString@@@Z 004a4f60 f   PxsBase:Wmi.obj
 0001:000a40c0       ?GetBool@Wmi@@QAE_NPB_WPA_N@Z 004a50c0 f   PxsBase:Wmi.obj
 0001:000a4320       ?GetInt32@Wmi@@QAE_NPB_WPAH@Z 004a5320 f   PxsBase:Wmi.obj
 0001:000a4560       ?GetUInt8@Wmi@@QAE_NPB_WPAE@Z 004a5560 f   PxsBase:Wmi.obj
 0001:000a47a0       ?GetUInt8Array@Wmi@@QAEKPB_WPAEK@Z 004a57a0 f   PxsBase:Wmi.obj
 0001:000a4ac0       ?GetUInt16@Wmi@@QAE_NPB_WPAG@Z 004a5ac0 f   PxsBase:Wmi.obj
 0001:000a4d40       ?GetUInt32@Wmi@@QAE_NPB_WPAK@Z 004a5d40 f   PxsBase:Wmi.obj
 0001:000a4fa0       ?GetUInt64@Wmi@@QAE_NPB_WPA_K@Z 004a5fa0 f   PxsBase:Wmi.obj
 0001:000a52a0       ?Next@Wmi@@QAE_NXZ         004a62a0 f   PxsBase:Wmi.obj
 0001:000a5360       ?ApplyProxySecurity@Wmi@@CAXPAUIUnknown@@@Z 004a6360 f   PxsBase:Wmi.obj
 0001:000a53e0       ?CreateNew@Directory@@SAXABVString@@@Z 004a63e0 f   PxsBase:Directory.obj
 0001:000a5480       ?Exists@Directory@@SA_NABVString@@@Z 004a6480 f   PxsBase:Directory.obj
 0001:000a54e0       ?GetSpecialDirectory@Directory@@SAXHPAVString@@@Z 004a64e0 f   PxsBase:Directory.obj
 0001:000a55e0       ?GetTempDirectory@Directory@@SAXPAVString@@@Z 004a65e0 f   PxsBase:Directory.obj
 0001:000a57c0       ?ListFiles@Directory@@SAXABVString@@0PAVStringArray@@@Z 004a67c0 f   PxsBase:Directory.obj
 0001:000a5a80       ?SplitPath@Directory@@SAXABVString@@PAV2@111@Z 004a6a80 f   PxsBase:Directory.obj
 0001:000a5d40       ??1Registry@@QAE@XZ        004a6d40 f   PxsBase:Registry.obj
 0001:000a5da0       ?Connect@Registry@@QAEXPAUHKEY__@@@Z 004a6da0 f   PxsBase:Registry.obj
 0001:000a5e20       ?Connect2@Registry@@QAEXPAUHKEY__@@K@Z 004a6e20 f   PxsBase:Registry.obj
 0001:000a5e80       ?GetBinaryData@Registry@@QAEKPB_W0PAEI@Z 004a6e80 f   PxsBase:Registry.obj
 0001:000a6040       ?GetDoubleWordValue@Registry@@QAEXPB_W0KPAK@Z 004a7040 f   PxsBase:Registry.obj
 0001:000a6280       ?GetNameValueList@Registry@@QAEXPB_WPAV?$TArray@VNameValue@@@@@Z 004a7280 f   PxsBase:Registry.obj
 0001:000a67c0       ?GetStringValue@Registry@@QAEXPB_W0PAVString@@@Z 004a77c0 f   PxsBase:Registry.obj
 0001:000a6a80       ?GetSubKeyList@Registry@@QBEXPB_WPAVStringArray@@@Z 004a7a80 f   PxsBase:Registry.obj
 0001:000a6ea0       ?GetValueAsString@Registry@@QAEXPB_W0PAVString@@@Z 004a7ea0 f   PxsBase:Registry.obj
 0001:000a7260       ?FormatRegistryDataAsString@Registry@@CAXPBEKKPAVString@@@Z 004a8260 f   PxsBase:Registry.obj
 0001:000a76a0       ??0NameValue@@QAE@XZ       004a86a0 f   PxsBase:NameValue.obj
 0001:000a76e0       ??1NameValue@@QAE@XZ       004a86e0 f   PxsBase:NameValue.obj
 0001:000a7710       ??1StringArray@@QAE@XZ     004a8710 f   PxsBase:StringArray.obj
 0001:000a7760       ?Add@StringArray@@QAEXPB_W@Z 004a8760 f   PxsBase:StringArray.obj
 0001:000a77c0       ?AddArray@StringArray@@QAEXABV1@@Z 004a87c0 f   PxsBase:StringArray.obj
 0001:000a78c0       ?Get@StringArray@@QBEPB_WI@Z 004a88c0 f   PxsBase:StringArray.obj
 0001:000a7940       ?IndexOf@StringArray@@QBEIPB_W_N@Z 004a8940 f   PxsBase:StringArray.obj
 0001:000a79c0       ?RemoveAll@StringArray@@QAEXXZ 004a89c0 f   PxsBase:StringArray.obj
 0001:000a7a20       ?Set@StringArray@@QAEXIPB_W@Z 004a8a20 f   PxsBase:StringArray.obj
 0001:000a7ba0       ?SetSize@StringArray@@QAEXI@Z 004a8ba0 f   PxsBase:StringArray.obj
 0001:000a7cc0       ?Sort@StringArray@@QAEX_N@Z 004a8cc0 f   PxsBase:StringArray.obj
 0001:000a7ea0       ??0MemoryException@@QAE@PBD@Z 004a8ea0 f   PxsBase:MemoryException.obj
 0001:000a7ee0       ??0MemoryException@@QAE@ABV0@@Z 004a8ee0 f   PxsBase:MemoryException.obj
 0001:000a7f60       ??0Window@@QAE@XZ          004a8f60 f   PxsBase:Window.obj
 0001:000a8220       ??_GWindow@@UAEPAXI@Z      004a9220 f i PxsBase:Window.obj
 0001:000a8220       ??_EWindow@@UAEPAXI@Z      004a9220 f i * CIL library *:* CIL module *
 0001:000a8260       ??1Window@@UAE@XZ          004a9260 f   PxsBase:Window.obj
 0001:000a8360       ?AppendText@Window@@QAEXABVString@@@Z 004a9360 f   PxsBase:Window.obj
 0001:000a8400       ?Create@Window@@QAEHPBV1@@Z 004a9400 f   PxsBase:Window.obj
 0001:000a8460       ?Create@Window@@QAEHPAUHWND__@@@Z 004a9460 f   PxsBase:Window.obj
 0001:000a8720       ?DoLayout@Window@@UAEXXZ   004a9720 f   PxsBase:Window.obj
 0001:000a8760       ?GetBounds@Window@@QBEXPAUtagRECT@@@Z 004a9760 f   PxsBase:Window.obj
 0001:000a8860       ?GetClientSize@Window@@QBEXPAUtagSIZE@@@Z 004a9860 f   PxsBase:Window.obj
 0001:000a8920       ?GetLayoutProperties@Window@@QBEXPAKPAH1@Z 004a9920 f   PxsBase:Window.obj
 0001:000a89a0       ?GetLocation@Window@@QBEXPAUtagPOINT@@@Z 004a99a0 f   PxsBase:Window.obj
 0001:000a8a20       ?GetSize@Window@@QBEXPAUtagSIZE@@@Z 004a9a20 f   PxsBase:Window.obj
 0001:000a8aa0       ?GetText@Window@@QBEXPAVString@@@Z 004a9aa0 f   PxsBase:Window.obj
 0001:000a8bc0       ?GetWndClassExClassName@Window@@QBEXPAVString@@@Z 004a9bc0 f   PxsBase:Window.obj
 0001:000a8c20       ?IsPointInHideButton@Window@@QAE_NABUtagPOINT@@@Z 004a9c20 f   PxsBase:Window.obj
 0001:000a8c60       ?RtlMirror@Window@@QAEXH@Z 004a9c60 f   PxsBase:Window.obj
 0001:000a8d20       ?RtlStatics@Window@@QAEXXZ 004a9d20 f   PxsBase:Window.obj
 0001:000a8ec0       ?SetHideBitmaps@Window@@QAEXPAUHWND__@@GG@Z 004a9ec0 f   PxsBase:Window.obj
 0001:000a8fc0       ?SetExStyle@Window@@QAEXK_N@Z 004a9fc0 f   PxsBase:Window.obj
 0001:000a91a0       ?SetFont@Window@@QAEXABVFont@@@Z 004aa1a0 f   PxsBase:Window.obj
 0001:000a9220       ?SetLocation@Window@@QAEXHH@Z 004aa220 f   PxsBase:Window.obj
 0001:000a92c0       ?SetRightToLeftReading@Window@@QAEX_N@Z 004aa2c0 f   PxsBase:Window.obj
 0001:000a9480       ?SetSize@Window@@QAEXHH@Z  004aa480 f   PxsBase:Window.obj
 0001:000a9520       ?SetStyle@Window@@QAEXJ_N@Z 004aa520 f   PxsBase:Window.obj
 0001:000a95e0       ?SetText@Window@@QAEXABVString@@@Z 004aa5e0 f   PxsBase:Window.obj
 0001:000a9660       ?SetVisible@Window@@QAEX_N@Z 004aa660 f   PxsBase:Window.obj
 0001:000a96c0       ?MouseRButtonUpEvent@Window@@MAEXABUtagPOINT@@@Z 004aa6c0 f   PxsBase:Window.obj
 0001:000a96c0       ?MouseLButtonDblClickEvent@Window@@MAEXABUtagPOINT@@@Z 004aa6c0 f   PxsBase:Window.obj
 0001:000a96c0       ?NonClientPaintEvent@Window@@MAEXPAUHDC__@@@Z 004aa6c0 f   PxsBase:Window.obj
 0001:000a96c0       ?ActivateEvent@Window@@MAEX_N@Z 004aa6c0 f   PxsBase:Window.obj
 0001:000a96c0       ?LostFocusEvent@Window@@MAEXPAUHWND__@@@Z 004aa6c0 f   PxsBase:Window.obj
 0001:000a96c0       ?NotifyEvent@Window@@MAEXPBUtagNMHDR@@@Z 004aa6c0 f   PxsBase:Window.obj
 0001:000a96c0       ?MouseRButtonDownEvent@Window@@MAEXABUtagPOINT@@@Z 004aa6c0 f   PxsBase:Window.obj
 0001:000a96d0       ?MouseWheelEvent@Window@@MAEXGFABUtagPOINT@@@Z 004aa6d0 f   PxsBase:Window.obj
 0001:000a96d0       ?AppMessageEvent@Window@@MAEXIIJ@Z 004aa6d0 f   PxsBase:Window.obj
 0001:000a96e0       ?ColorStaticEvent@Window@@MAEJPAUHWND__@@@Z 004aa6e0 f   PxsBase:Window.obj
 0001:000a9760       ?CloseEvent@Window@@MAEXXZ 004aa760 f   PxsBase:Window.obj
 0001:000a9790       ?CommandEvent@Window@@MAEJIJ@Z 004aa790 f   PxsBase:Window.obj
 0001:000a97a0       ?CopyDataEvent@Window@@MAEXPAUHWND__@@PBUtagCOPYDATASTRUCT@@@Z 004aa7a0 f   PxsBase:Window.obj
 0001:000a97a0       ?MouseLButtonDownEvent@Window@@MAEXABUtagPOINT@@I@Z 004aa7a0 f   PxsBase:Window.obj
 0001:000a97b0       ?DisplayChangeEvent@Window@@MAEXXZ 004aa7b0 f   PxsBase:Window.obj
 0001:000a97b0       __initialize_denormal_control 004aa7b0 f   LIBCMT:denormal_control.obj
 0001:000a97b0       ?InitDialogEvent@Dialog@@MAEXXZ 004aa7b0 f   PxsBase:Dialog.obj
 0001:000a97b0       ?DestroyEvent@Window@@MAEXXZ 004aa7b0 f   PxsBase:Window.obj
 0001:000a97b0       __initialize_invalid_parameter_handler 004aa7b0 f   LIBCMT:invalid_parameter_handler.obj
 0001:000a97b0       @_guard_check_icall_nop@4  004aa7b0 f   LIBCMT:guard_support.obj
 0001:000a97c0       ?DrawBackground@Window@@IAEXPAUHDC__@@@Z 004aa7c0 f   PxsBase:Window.obj
 0001:000a9940       ?DrawHideBitmap@Window@@IAEXPAUHDC__@@@Z 004aa940 f   PxsBase:Window.obj
 0001:000a9ba0       ?DrawMenuItemEvent@Window@@MAEXPBUtagDRAWITEMSTRUCT@@@Z 004aaba0 f   PxsBase:Window.obj
 0001:000a9c10       ?EraseBackgroundEvent@Window@@MAEJPAUHDC__@@@Z 004aac10 f   PxsBase:Window.obj
 0001:000a9c10       ?KeyDownEvent@Window@@MAEJI@Z 004aac10 f   PxsBase:Window.obj
 0001:000a9c20       ?GainFocusEvent@Window@@MAEXXZ 004aac20 f   PxsBase:Window.obj
 0001:000a9c50       __get_startup_commit_mode  004aac50 f   LIBCMT:commit_mode.obj
 0001:000a9c50       __matherr                  004aac50 f   LIBCMT:matherr.obj
 0001:000a9c50       ___scrt_exe_initialize_mta 004aac50 f   LIBCMT:utility_desktop.obj
 0001:000a9c50       ___scrt_stub_for_initialize_mta 004aac50 f   LIBCMT:utility_desktop.obj
 0001:000a9c50       ?GetDlgCodeEvent@Window@@MAEIXZ 004aac50 f   PxsBase:Window.obj
 0001:000a9c50       ?RunWorkerThread@Thread@@EAEKXZ 004aac50 f   PxsBase:Thread.obj
 0001:000a9c50       ___scrt_initialize_winrt   004aac50 f   LIBCMT:utility_desktop.obj
 0001:000a9c50       __get_startup_thread_locale_mode 004aac50 f   LIBCMT:thread_locale.obj
 0001:000a9c50       __get_startup_new_mode     004aac50 f   LIBCMT:new_mode.obj
 0001:000a9c60       ?HelpEvent@Window@@MAEXPBUtagHELPINFO@@@Z 004aac60 f   PxsBase:Window.obj
 0001:000a9ca0       ?LayoutChildren@Window@@MAEXXZ 004aaca0 f   PxsBase:Window.obj
 0001:000a9e40       ?MeasureMenuItemEvent@Window@@MAEXPAUtagMEASUREITEMSTRUCT@@@Z 004aae40 f   PxsBase:Window.obj
 0001:000aa0a0       ?MenuCharEvent@Window@@MAEJ_WPAUHMENU__@@@Z 004ab0a0 f   PxsBase:Window.obj
 0001:000aa220       ?MouseLButtonUpEvent@Window@@MAEXABUtagPOINT@@@Z 004ab220 f   PxsBase:Window.obj
 0001:000aa360       ?MouseMoveEvent@Window@@MAEXABUtagPOINT@@I@Z 004ab360 f   PxsBase:Window.obj
 0001:000aa4e0       ?PaintEvent@Window@@MAEXPAUHDC__@@@Z 004ab4e0 f   PxsBase:Window.obj
 0001:000aa680       ?PositionHideBitmap@Window@@IAEXXZ 004ab680 f   PxsBase:Window.obj
 0001:000aa7b0       ?ScrollEvent@Window@@MAEJ_NH@Z 004ab7b0 f   PxsBase:Window.obj
 0001:000aa7c0       ?SettingChangeEvent@Window@@MAEXXZ 004ab7c0 f   PxsBase:Window.obj
 0001:000aa7c0       ?SizeEvent@Window@@MAEXXZ  004ab7c0 f   PxsBase:Window.obj
 0001:000aa7e0       ?TimerEvent@Window@@MAEXI@Z 004ab7e0 f   PxsBase:Window.obj
 0001:000aa880       ?WindowProc@Window@@KGJPAUHWND__@@IIJ@Z 004ab880 f   PxsBase:Window.obj
 0001:000ab100       ?DrawMenuItemBackGround@Window@@AAEXPBUtagDRAWITEMSTRUCT@@_N@Z 004ac100 f   PxsBase:Window.obj
 0001:000ab340       ?DrawMenuItemText@Window@@AAEXPBUtagDRAWITEMSTRUCT@@PBVMenuItem@@@Z 004ac340 f   PxsBase:Window.obj
 0001:000ab720       ?DrawPopupMenuImageArea@Window@@AAEXPBUtagDRAWITEMSTRUCT@@PAUHBITMAP__@@@Z 004ac720 f   PxsBase:Window.obj
 0001:000ab920       ?DrawPopupMenuSeparator@Window@@AAEXPBUtagDRAWITEMSTRUCT@@@Z 004ac920 f   PxsBase:Window.obj
 0001:000abc40       ?DoPaint@Window@@AAEXXZ    004acc40 f   PxsBase:Window.obj
 0001:000abe00       ??1?$TArray@VStaticControl@@@@QAE@XZ 004ace00 f i PxsBase:Window.obj
 0001:000abea0       ??_GMutex@@UAEPAXI@Z       004acea0 f i PxsBase:Mutex.obj
 0001:000abea0       ??_EMutex@@UAEPAXI@Z       004acea0 f i * CIL library *:* CIL module *
 0001:000abee0       ??1Mutex@@UAE@XZ           004acee0 f   PxsBase:Mutex.obj
 0001:000abf00       ?TryLock@Mutex@@QAEXK@Z    004acf00 f   PxsBase:Mutex.obj
 0001:000ac000       ??_EThread@@UAEPAXI@Z      004ad000 f i * CIL library *:* CIL module *
 0001:000ac000       ??_GThread@@UAEPAXI@Z      004ad000 f i PxsBase:Thread.obj
 0001:000ac040       ??1Thread@@UAE@XZ          004ad040 f   PxsBase:Thread.obj
 0001:000ac120       ?GetExitCode@Thread@@QBEKXZ 004ad120 f   PxsBase:Thread.obj
 0001:000ac1c0       ?Join@Thread@@QAEKXZ       004ad1c0 f   PxsBase:Thread.obj
 0001:000ac220       ?StartRoutine@Thread@@CGKPAX@Z 004ad220 f   PxsBase:Thread.obj
 0001:000ac300       ??1AutoUnlockMutex@@QAE@XZ 004ad300 f   PxsBase:AutoUnlockMutex.obj
 0001:000ac360       ??0ProgressBar@@QAE@XZ     004ad360 f   PxsBase:ProgressBar.obj
 0001:000ac480       ??_GProgressBar@@UAEPAXI@Z 004ad480 f i PxsBase:ProgressBar.obj
 0001:000ac480       ??_EProgressBar@@UAEPAXI@Z 004ad480 f i * CIL library *:* CIL module *
 0001:000ac500       ??1ProgressBar@@UAE@XZ     004ad500 f   PxsBase:ProgressBar.obj
 0001:000ac540       ?RedrawNow@ProgressBar@@QAEXXZ 004ad540 f   PxsBase:ProgressBar.obj
 0001:000ac640       ?PaintEvent@ProgressBar@@MAEXPAUHDC__@@@Z 004ad640 f   PxsBase:ProgressBar.obj
 0001:000ac860       ?TimerEvent@ProgressBar@@MAEXI@Z 004ad860 f   PxsBase:ProgressBar.obj
 0001:000ac8c0       ??0Font@@QAE@XZ            004ad8c0 f   PxsBase:Font.obj
 0001:000ac960       ??1Font@@QAE@XZ            004ad960 f   PxsBase:Font.obj
 0001:000ac980       ??4Font@@QAEAAV0@ABV0@@Z   004ad980 f   PxsBase:Font.obj
 0001:000aca20       ?Create@Font@@QAEXXZ       004ada20 f   PxsBase:Font.obj
 0001:000acae0       ?GetLogFont@Font@@QBEXPAUtagLOGFONTW@@@Z 004adae0 f   PxsBase:Font.obj
 0001:000acb40       ?SetLogFont@Font@@QAEXPBUtagLOGFONTW@@@Z 004adb40 f   PxsBase:Font.obj
 0001:000acba0       ?SetFaceName@Font@@QAEXPB_W@Z 004adba0 f   PxsBase:Font.obj
 0001:000acca0       ?SetPointSize@Font@@QAEXHPAUHDC__@@@Z 004adca0 f   PxsBase:Font.obj
 0001:000acd60       ?SetStockFont@Font@@QAEXH@Z 004add60 f   PxsBase:Font.obj
 0001:000ace60       ??_EButton@@UAEPAXI@Z      004ade60 f i * CIL library *:* CIL module *
 0001:000ace60       ??_GButton@@UAEPAXI@Z      004ade60 f i PxsBase:Button.obj
 0001:000ace90       ??1Button@@UAE@XZ          004ade90 f   PxsBase:Button.obj
 0001:000acea0       ??1WaitCursor@@QAE@XZ      004adea0 f   PxsBase:WaitCursor.obj
 0001:000acef0       ??0StaticControl@@QAE@XZ   004adef0 f   PxsBase:StaticControl.obj
 0001:000acfc0       ??1StaticControl@@QAE@XZ   004adfc0 f   PxsBase:StaticControl.obj
 0001:000ad060       ??4StaticControl@@QAEAAV0@ABV0@@Z 004ae060 f   PxsBase:StaticControl.obj
 0001:000ad1e0       ?Draw@StaticControl@@QAEXPAUHDC__@@@Z 004ae1e0 f   PxsBase:StaticControl.obj
 0001:000ad340       ?GetBounds@StaticControl@@QBEXPAUtagRECT@@@Z 004ae340 f   PxsBase:StaticControl.obj
 0001:000ad380       ?Reset@StaticControl@@QAEXXZ 004ae380 f   PxsBase:StaticControl.obj
 0001:000ad440       ?SetBitmap@StaticControl@@QAEXPAUHBITMAP__@@K@Z 004ae440 f   PxsBase:StaticControl.obj
 0001:000ad4c0       ?SetIcon@StaticControl@@QAEXPAUHICON__@@@Z 004ae4c0 f   PxsBase:StaticControl.obj
 0001:000ad540       ?DrawShape@StaticControl@@AAEXPAUHDC__@@@Z 004ae540 f   PxsBase:StaticControl.obj
 0001:000ae2c0       ?DrawStaticBackground@StaticControl@@AAEXPAUHDC__@@@Z 004af2c0 f   PxsBase:StaticControl.obj
 0001:000ae5a0       ?DrawStaticBitmap@StaticControl@@AAEXPAUHDC__@@@Z 004af5a0 f   PxsBase:StaticControl.obj
 0001:000ae7e0       ?DrawStaticShape@StaticControl@@AAEXPAUHDC__@@@Z 004af7e0 f   PxsBase:StaticControl.obj
 0001:000ae900       ?DrawStaticText@StaticControl@@AAEXPAUHDC__@@@Z 004af900 f   PxsBase:StaticControl.obj
 0001:000aeb00       ??0Dialog@@QAE@XZ          004afb00 f   PxsBase:Dialog.obj
 0001:000aebe0       ??_EDialog@@UAEPAXI@Z      004afbe0 f i * CIL library *:* CIL module *
 0001:000aebe0       ??_GDialog@@UAEPAXI@Z      004afbe0 f i PxsBase:Dialog.obj
 0001:000aec40       ??1Dialog@@UAE@XZ          004afc40 f   PxsBase:Dialog.obj
 0001:000aec80       ?Create@Dialog@@QAEHPAUHWND__@@@Z 004afc80 f   PxsBase:Dialog.obj
 0001:000aeee0       ?DialogProc@Dialog@@KGHPAUHWND__@@IIJ@Z 004afee0 f   PxsBase:Dialog.obj
 0001:000af260       ?DrawButtonItemEvent@Dialog@@MAEXPBUtagDRAWITEMSTRUCT@@@Z 004b0260 f   PxsBase:Dialog.obj
 0001:000af5e0       ?DoInitDialog@Dialog@@CAHPAUHWND__@@J@Z 004b05e0 f   PxsBase:Dialog.obj
 0001:000af6e0       ??0Spinner@@QAE@XZ         004b06e0 f   PxsBase:Spinner.obj
 0001:000af820       ??_GSpinner@@UAEPAXI@Z     004b0820 f i PxsBase:Spinner.obj
 0001:000af820       ??_ESpinner@@UAEPAXI@Z     004b0820 f i * CIL library *:* CIL module *
 0001:000af880       ??1Spinner@@UAE@XZ         004b0880 f   PxsBase:Spinner.obj
 0001:000af8c0       ?Create@Spinner@@QAEHPAUHWND__@@@Z 004b08c0 f   PxsBase:Spinner.obj
 0001:000afac0       ?SetRange@Spinner@@QAEXKK@Z 004b0ac0 f   PxsBase:Spinner.obj
 0001:000afc80       ?SetValue@Spinner@@QAEXK@Z 004b0c80 f   PxsBase:Spinner.obj
 0001:000afda0       ?CommandEvent@Spinner@@MAEJIJ@Z 004b0da0 f   PxsBase:Spinner.obj
 0001:000aff20       ?GainFocusEvent@Spinner@@MAEXXZ 004b0f20 f   PxsBase:Spinner.obj
 0001:000aff50       ?MouseLButtonDblClickEvent@Spinner@@MAEXABUtagPOINT@@@Z 004b0f50 f   PxsBase:Spinner.obj
 0001:000aff60       ?MouseLButtonDownEvent@Spinner@@MAEXABUtagPOINT@@I@Z 004b0f60 f   PxsBase:Spinner.obj
 0001:000affe0       ?MouseLButtonUpEvent@Spinner@@MAEXABUtagPOINT@@@Z 004b0fe0 f   PxsBase:Spinner.obj
 0001:000b0020       ?PaintEvent@Spinner@@MAEXPAUHDC__@@@Z 004b1020 f   PxsBase:Spinner.obj
 0001:000b0300       ?TimerEvent@Spinner@@MAEXI@Z 004b1300 f   PxsBase:Spinner.obj
 0001:000b03a0       ?HandleValueChangeEvent@Spinner@@AAEXABUtagPOINT@@@Z 004b13a0 f   PxsBase:Spinner.obj
 0001:000b04e0       ??_EComboBox@@UAEPAXI@Z    004b14e0 f i * CIL library *:* CIL module *
 0001:000b04e0       ??_GComboBox@@UAEPAXI@Z    004b14e0 f i PxsBase:ComboBox.obj
 0001:000b0510       ??1ComboBox@@UAE@XZ        004b1510 f   PxsBase:ComboBox.obj
 0001:000b0520       ?Add@ComboBox@@QAEXPB_W@Z  004b1520 f   PxsBase:ComboBox.obj
 0001:000b05a0       ?GetSelectedString@ComboBox@@QBEXPAVString@@@Z 004b15a0 f   PxsBase:ComboBox.obj
 0001:000b0760       ?IndexOf@ComboBox@@QBEIPB_W@Z 004b1760 f   PxsBase:ComboBox.obj
 0001:000b07e0       ??0MessageDialog@@QAE@XZ   004b17e0 f   PxsBase:MessageDialog.obj
 0001:000b0ac0       ??_GMessageDialog@@UAEPAXI@Z 004b1ac0 f i PxsBase:MessageDialog.obj
 0001:000b0ac0       ??_EMessageDialog@@UAEPAXI@Z 004b1ac0 f i * CIL library *:* CIL module *
 0001:000b0b00       ??1MessageDialog@@UAE@XZ   004b1b00 f   PxsBase:MessageDialog.obj
 0001:000b0c40       ?CommandEvent@MessageDialog@@MAEJIJ@Z 004b1c40 f   PxsBase:MessageDialog.obj
 0001:000b0dc0       ?NotifyEvent@MessageDialog@@MAEXPBUtagNMHDR@@@Z 004b1dc0 f   PxsBase:MessageDialog.obj
 0001:000b0ee0       ?InitDialogEvent@MessageDialog@@MAEXXZ 004b1ee0 f   PxsBase:MessageDialog.obj
 0001:000b1500       ??_ECheckBox@@UAEPAXI@Z    004b2500 f i * CIL library *:* CIL module *
 0001:000b1500       ??_GCheckBox@@UAEPAXI@Z    004b2500 f i PxsBase:CheckBox.obj
 0001:000b1530       ??1CheckBox@@UAE@XZ        004b2530 f   PxsBase:CheckBox.obj
 0001:000b1540       ?New@AllocateChars@@QAEPADI@Z 004b2540 f   PxsBase:AllocateChars.obj
 0001:000b15c0       ??1AutoCloseHandle@@QAE@XZ 004b25c0 f   PxsBase:AutoCloseHandle.obj
 0001:000b15e0       ??1AutoNetApiBufferFree@@QAE@XZ 004b25e0 f   PxsBase:AutoNetApiBufferFree.obj
 0001:000b1600       ??0SplashScreen@@QAE@XZ    004b2600 f   PxsBase:SplashScreen.obj
 0001:000b1720       ??_ESplashScreen@@UAEPAXI@Z 004b2720 f i * CIL library *:* CIL module *
 0001:000b1720       ??_GSplashScreen@@UAEPAXI@Z 004b2720 f i PxsBase:SplashScreen.obj
 0001:000b1780       ??1SplashScreen@@UAE@XZ    004b2780 f   PxsBase:SplashScreen.obj
 0001:000b17c0       ?Show@SplashScreen@@QAEXPAUHWND__@@IGE@Z 004b27c0 f   PxsBase:SplashScreen.obj
 0001:000b2460       ?TimerEvent@SplashScreen@@MAEXI@Z 004b3460 f   PxsBase:SplashScreen.obj
 0001:000b24c0       ??_EFrame@@UAEPAXI@Z       004b34c0 f i * CIL library *:* CIL module *
 0001:000b24c0       ??_GFrame@@UAEPAXI@Z       004b34c0 f i PxsBase:Frame.obj
 0001:000b2500       ??1Frame@@UAE@XZ           004b3500 f   PxsBase:Frame.obj
 0001:000b25e0       ?SetFrameBounds@Frame@@QAEXABVString@@@Z 004b35e0 f   PxsBase:Frame.obj
 0001:000b27a0       ?SetIconImage@Frame@@QAEXG_N@Z 004b37a0 f   PxsBase:Frame.obj
 0001:000b2840       ?SetTitle@Frame@@QAEXPB_W@Z 004b3840 f   PxsBase:Frame.obj
 0001:000b28c0       ?SetVisible@Frame@@QAEX_N@Z 004b38c0 f   PxsBase:Frame.obj
 0001:000b2a80       ?StartMessageLoop@Frame@@QAEKXZ 004b3a80 f   PxsBase:Frame.obj
 0001:000b2b60       ?ActivateEvent@Frame@@MAEX_N@Z 004b3b60 f   PxsBase:Frame.obj
 0001:000b2be0       ?DestroyEvent@Frame@@MAEXXZ 004b3be0 f   PxsBase:Frame.obj
 0001:000b2c00       ?NonClientPaintEvent@Frame@@MAEXPAUHDC__@@@Z 004b3c00 f   PxsBase:Frame.obj
 0001:000b2ec0       ??_ETextField@@UAEPAXI@Z   004b3ec0 f i * CIL library *:* CIL module *
 0001:000b2ec0       ??_GTextArea@@UAEPAXI@Z    004b3ec0 f i PxsBase:TextArea.obj
 0001:000b2ec0       ??_GTextField@@UAEPAXI@Z   004b3ec0 f i PxsBase:TextField.obj
 0001:000b2ec0       ??_ETextArea@@UAEPAXI@Z    004b3ec0 f i * CIL library *:* CIL module *
 0001:000b2ef0       ??1TextArea@@UAE@XZ        004b3ef0 f   PxsBase:TextArea.obj
 0001:000b2ef0       ??1TextField@@UAE@XZ       004b3ef0 f   PxsBase:TextField.obj
 0001:000b2f00       ?SetTextMaxLength@TextField@@QAEXI@Z 004b3f00 f   PxsBase:TextField.obj
 0001:000b2f60       ??_ERadioButton@@UAEPAXI@Z 004b3f60 f i * CIL library *:* CIL module *
 0001:000b2f60       ??_GRadioButton@@UAEPAXI@Z 004b3f60 f i PxsBase:RadioButton.obj
 0001:000b2f90       ??1RadioButton@@UAE@XZ     004b3f90 f   PxsBase:RadioButton.obj
 0001:000b2fa0       ?SetState@RadioButton@@QAEX_N@Z 004b3fa0 f   PxsBase:RadioButton.obj
 0001:000b3000       ?StartNewGroup@RadioButton@@QAEXXZ 004b4000 f   PxsBase:RadioButton.obj
 0001:000b3050       ??0TreeViewItem@@QAE@XZ    004b4050 f   PxsBase:TreeViewItem.obj
 0001:000b30a0       ??1TreeViewItem@@QAE@XZ    004b40a0 f   PxsBase:TreeViewItem.obj
 0001:000b3180       ??0Splitter@@QAE@XZ        004b4180 f   PxsBase:Splitter.obj
 0001:000b3240       ??_ESplitter@@UAEPAXI@Z    004b4240 f i * CIL library *:* CIL module *
 0001:000b3240       ??_GSplitter@@UAEPAXI@Z    004b4240 f i PxsBase:Splitter.obj
 0001:000b3270       ??1Splitter@@UAE@XZ        004b4270 f   PxsBase:Splitter.obj
 0001:000b3280       ?AttachWindows@Splitter@@QAEXPBVWindow@@0@Z 004b4280 f   PxsBase:Splitter.obj
 0001:000b3340       ?DoLayout@Splitter@@UAEXXZ 004b4340 f   PxsBase:Splitter.obj
 0001:000b3500       ?SetOffset@Splitter@@QAEXH@Z 004b4500 f   PxsBase:Splitter.obj
 0001:000b3620       ?SetOffsetTwo@Splitter@@QAEXH@Z 004b4620 f   PxsBase:Splitter.obj
 0001:000b36c0       ?MouseLButtonDownEvent@Splitter@@MAEXABUtagPOINT@@I@Z 004b46c0 f   PxsBase:Splitter.obj
 0001:000b37a0       ?MouseLButtonUpEvent@Splitter@@MAEXABUtagPOINT@@@Z 004b47a0 f   PxsBase:Splitter.obj
 0001:000b3800       ?MouseMoveEvent@Splitter@@MAEXABUtagPOINT@@I@Z 004b4800 f   PxsBase:Splitter.obj
 0001:000b3980       ?PaintEvent@Splitter@@MAEXPAUHDC__@@@Z 004b4980 f   PxsBase:Splitter.obj
 0001:000b3ca0       ??1MenuItem@@QAE@XZ        004b4ca0 f   PxsBase:MenuItem.obj
 0001:000b3ce0       ?IsChecked@MenuItem@@QBE_NXZ 004b4ce0 f   PxsBase:MenuItem.obj
 0001:000b3d40       ?SetBitmap@MenuItem@@QAEXG@Z 004b4d40 f   PxsBase:MenuItem.obj
 0001:000b3e80       ?SetChecked@MenuItem@@QAEX_N@Z 004b4e80 f   PxsBase:MenuItem.obj
 0001:000b3ee0       ?SetEnabled@MenuItem@@QAEX_N@Z 004b4ee0 f   PxsBase:MenuItem.obj
 0001:000b3f40       ?SetFilledBitmap@MenuItem@@QAEXKK@Z 004b4f40 f   PxsBase:MenuItem.obj
 0001:000b4020       ??0AboutDialog@@QAE@XZ     004b5020 f   PxsBase:AboutDialog.obj
 0001:000b4160       ??_EAboutDialog@@UAEPAXI@Z 004b5160 f i * CIL library *:* CIL module *
 0001:000b4160       ??_GAboutDialog@@UAEPAXI@Z 004b5160 f i PxsBase:AboutDialog.obj
 0001:000b41a0       ??1AboutDialog@@UAE@XZ     004b51a0 f   PxsBase:AboutDialog.obj
 0001:000b4220       ?CommandEvent@AboutDialog@@MAEJIJ@Z 004b5220 f   PxsBase:AboutDialog.obj
 0001:000b4280       ?InitDialogEvent@AboutDialog@@MAEXXZ 004b5280 f   PxsBase:AboutDialog.obj
 0001:000b5760       ??1AcceleratorTable@@QAE@XZ 004b6760 f   PxsBase:AcceleratorTable.obj
 0001:000b57e0       ?Add@AcceleratorTable@@QAEXGG@Z 004b67e0 f   PxsBase:AcceleratorTable.obj
 0001:000b58a0       ?Create@AcceleratorTable@@QAEXXZ 004b68a0 f   PxsBase:AcceleratorTable.obj
 0001:000b5960       ??0ToolBar@@QAE@XZ         004b6960 f   PxsBase:ToolBar.obj
 0001:000b5a40       ??_EToolBar@@UAEPAXI@Z     004b6a40 f i * CIL library *:* CIL module *
 0001:000b5a40       ??_GToolBar@@UAEPAXI@Z     004b6a40 f i PxsBase:ToolBar.obj
 0001:000b5a70       ??1ToolBar@@UAE@XZ         004b6a70 f   PxsBase:ToolBar.obj
 0001:000b5a80       ?GetPreferredHeight@ToolBar@@QAEHXZ 004b6a80 f   PxsBase:ToolBar.obj
 0001:000b5b40       ?CommandEvent@ToolBar@@MAEJIJ@Z 004b6b40 f   PxsBase:ToolBar.obj
 0001:000b5ba0       ??1MenuPopup@@QAE@XZ       004b6ba0 f   PxsBase:MenuPopup.obj
 0001:000b5ba0       ??1Menu@@QAE@XZ            004b6ba0 f   PxsBase:Menu.obj
 0001:000b5bc0       ??0FindTextBar@@QAE@XZ     004b6bc0 f   PxsBase:FindTextBar.obj
 0001:000b5e60       ??_GFindTextBar@@UAEPAXI@Z 004b6e60 f i PxsBase:FindTextBar.obj
 0001:000b5e60       ??_EFindTextBar@@UAEPAXI@Z 004b6e60 f i * CIL library *:* CIL module *
 0001:000b5ea0       ??1FindTextBar@@UAE@XZ     004b6ea0 f   PxsBase:FindTextBar.obj
 0001:000b5f20       ?CreateControls@FindTextBar@@QAEXPAUHWND__@@@Z 004b6f20 f   PxsBase:FindTextBar.obj
 0001:000b62c0       ?SetControlColours@FindTextBar@@QAEXK@Z 004b72c0 f   PxsBase:FindTextBar.obj
 0001:000b6460       ?SetCaptions@FindTextBar@@QAEXABVString@@0000@Z 004b7460 f   PxsBase:FindTextBar.obj
 0001:000b65a0       ?CommandEvent@FindTextBar@@MAEJIJ@Z 004b75a0 f   PxsBase:FindTextBar.obj
 0001:000b6600       ??0ImageButton@@QAE@HHHH@Z 004b7600 f   PxsBase:ImageButton.obj
 0001:000b6700       ??_EImageButton@@UAEPAXI@Z 004b7700 f i * CIL library *:* CIL module *
 0001:000b6700       ??_GImageButton@@UAEPAXI@Z 004b7700 f i PxsBase:ImageButton.obj
 0001:000b6740       ??1ImageButton@@UAE@XZ     004b7740 f   PxsBase:ImageButton.obj
 0001:000b67c0       ?SetEnabled@ImageButton@@QAEX_N@Z 004b77c0 f   PxsBase:ImageButton.obj
 0001:000b6a00       ?SetFilledBitmap@ImageButton@@QAEXKKK@Z 004b7a00 f   PxsBase:ImageButton.obj
 0001:000b6ba0       ?MouseLButtonDownEvent@ImageButton@@MAEXABUtagPOINT@@I@Z 004b7ba0 f   PxsBase:ImageButton.obj
 0001:000b6c40       ?MouseLButtonUpEvent@ImageButton@@MAEXABUtagPOINT@@@Z 004b7c40 f   PxsBase:ImageButton.obj
 0001:000b6d00       ?MouseMoveEvent@ImageButton@@MAEXABUtagPOINT@@I@Z 004b7d00 f   PxsBase:ImageButton.obj
 0001:000b6e80       ?MouseRButtonDownEvent@ImageButton@@MAEXABUtagPOINT@@@Z 004b7e80 f   PxsBase:ImageButton.obj
 0001:000b6e80       ?MouseRButtonDownEvent@TabWindow@@MAEXABUtagPOINT@@@Z 004b7e80 f   PxsBase:TabWindow.obj
 0001:000b6f00       ?PaintEvent@ImageButton@@MAEXPAUHDC__@@@Z 004b7f00 f   PxsBase:ImageButton.obj
 0001:000b7220       ?TimerEvent@ImageButton@@MAEXI@Z 004b8220 f   PxsBase:ImageButton.obj
 0001:000b74c0       ?MakeBitmaps@ImageButton@@AAEXPAUHBITMAP__@@K@Z 004b84c0 f   PxsBase:ImageButton.obj
 0001:000b7900       ??0StatusBar@@QAE@XZ       004b8900 f   PxsBase:StatusBar.obj
 0001:000b7a20       ??_EStatusBar@@UAEPAXI@Z   004b8a20 f i * CIL library *:* CIL module *
 0001:000b7a20       ??_GStatusBar@@UAEPAXI@Z   004b8a20 f i PxsBase:StatusBar.obj
 0001:000b7a50       ??1StatusBar@@UAE@XZ       004b8a50 f   PxsBase:StatusBar.obj
 0001:000b7a60       ?AddPanel@StatusBar@@QAEEG@Z 004b8a60 f   PxsBase:StatusBar.obj
 0001:000b7bc0       ?DoLayout@StatusBar@@UAEXXZ 004b8bc0 f   PxsBase:StatusBar.obj
 0001:000b7ea0       ?SetBitmap@StatusBar@@QAEXEG@Z 004b8ea0 f   PxsBase:StatusBar.obj
 0001:000b8180       ?SetAlignmentX@StatusBar@@QAEXEK@Z 004b9180 f   PxsBase:StatusBar.obj
 0001:000b82a0       ?SetText@StatusBar@@QAEXEABVString@@@Z 004b92a0 f   PxsBase:StatusBar.obj
 0001:000b8460       ?PaintEvent@StatusBar@@MAEXPAUHDC__@@@Z 004b9460 f   PxsBase:StatusBar.obj
 0001:000b86a0       ?SizeEvent@StatusBar@@MAEXXZ 004b96a0 f   PxsBase:StatusBar.obj
 0001:000b8810       ??0TextArea@@QAE@XZ        004b9810 f   PxsBase:TextArea.obj
 0001:000b8880       ?SetMargins@TextArea@@QAEXGG@Z 004b9880 f   PxsBase:TextArea.obj
 0001:000b88e0       ?PXSRichEditStreamInCallback@@YGKKPAEJPAJ@Z 004b98e0 f   PxsBase:RichEditBox.obj
 0001:000b89a0       ??_GRichEditBox@@UAEPAXI@Z 004b99a0 f i PxsBase:RichEditBox.obj
 0001:000b89a0       ??_ERichEditBox@@UAEPAXI@Z 004b99a0 f i * CIL library *:* CIL module *
 0001:000b8a00       ??1RichEditBox@@UAE@XZ     004b9a00 f   PxsBase:RichEditBox.obj
 0001:000b8a40       ?AddToEventMask@RichEditBox@@QAEXJ@Z 004b9a40 f   PxsBase:RichEditBox.obj
 0001:000b8ac0       ?AppendRichText@RichEditBox@@QAEXABVString@@@Z 004b9ac0 f   PxsBase:RichEditBox.obj
 0001:000b8c60       ?FindTextW@RichEditBox@@QAE_NABVString@@_N11@Z 004b9c60 f   PxsBase:RichEditBox.obj
 0001:000b8e80       ?SetRichText@RichEditBox@@QAEXABVString@@@Z 004b9e80 f   PxsBase:RichEditBox.obj
 0001:000b8fe0       ?StreamInCallback@RichEditBox@@QAEJPAEJ@Z 004b9fe0 f   PxsBase:RichEditBox.obj
 0001:000b90c0       ?WrapText@RichEditBox@@QAEX_N@Z 004ba0c0 f   PxsBase:RichEditBox.obj
 0001:000b9120       ??0TreeView@@QAE@XZ        004ba120 f   PxsBase:Treeview.obj
 0001:000b9300       ??_ETreeView@@UAEPAXI@Z    004ba300 f i * CIL library *:* CIL module *
 0001:000b9300       ??_GTreeView@@UAEPAXI@Z    004ba300 f i PxsBase:Treeview.obj
 0001:000b9340       ??1TreeView@@UAE@XZ        004ba340 f   PxsBase:Treeview.obj
 0001:000b9400       ?AddItem@TreeView@@QAEXABVTreeViewItem@@@Z 004ba400 f   PxsBase:Treeview.obj
 0001:000b9520       ?ExpandOrCollapseAll@TreeView@@QAEX_N@Z 004ba520 f   PxsBase:Treeview.obj
 0001:000b95a0       ?SetSelectAll@TreeView@@QAEX_N@Z 004ba5a0 f   PxsBase:Treeview.obj
 0001:000b9600       ?SetBitmaps@TreeView@@QAEXGGGKGGGG@Z 004ba600 f   PxsBase:Treeview.obj
 0001:000b9700       ?CommandEvent@TreeView@@MAEJIJ@Z 004ba700 f   PxsBase:Treeview.obj
 0001:000b9780       ?KeyDownEvent@TreeView@@MAEJI@Z 004ba780 f   PxsBase:Treeview.obj
 0001:000b9a60       ?MouseLButtonDownEvent@TreeView@@MAEXABUtagPOINT@@I@Z 004baa60 f   PxsBase:Treeview.obj
 0001:000b9b80       ?MouseMoveEvent@TreeView@@MAEXABUtagPOINT@@I@Z 004bab80 f   PxsBase:Treeview.obj
 0001:000b9ce0       ?MouseRButtonDownEvent@TreeView@@MAEXABUtagPOINT@@@Z 004bace0 f   PxsBase:Treeview.obj
 0001:000b9d80       ?MouseRButtonUpEvent@TreeView@@MAEXABUtagPOINT@@@Z 004bad80 f   PxsBase:Treeview.obj
 0001:000ba300       ?PaintEvent@TreeView@@MAEXPAUHDC__@@@Z 004bb300 f   PxsBase:Treeview.obj
 0001:000ba640       ?SizeEvent@TreeView@@MAEXXZ 004bb640 f   PxsBase:Treeview.obj
 0001:000ba700       ?DrawClientAreaTitleBar@TreeView@@AAEXPAUHDC__@@@Z 004bb700 f   PxsBase:Treeview.obj
 0001:000ba8e0       ?DrawItemBitmap@TreeView@@AAEHPAUHDC__@@ABVTreeViewItem@@HH_N@Z 004bb8e0 f   PxsBase:Treeview.obj
 0001:000baa00       ?DrawItemLabel@TreeView@@AAEHPAUHDC__@@ABVTreeViewItem@@HH_N@Z 004bba00 f   PxsBase:Treeview.obj
 0001:000babe0       ?DrawItemSquare@TreeView@@AAEHPAUHDC__@@ABVTreeViewItem@@HH_N@Z 004bbbe0 f   PxsBase:Treeview.obj
 0001:000bae20       ?EvaluatePreferredSize@TreeView@@AAEXPAUtagSIZE@@@Z 004bbe20 f   PxsBase:Treeview.obj
 0001:000bb100       ?GetItemAtLineNumber@TreeView@@AAEPAVTreeViewItem@@HPAH@Z 004bc100 f   PxsBase:Treeview.obj
 0001:000bb1e0       ?GetNumVisibleLines@TreeView@@AAEHXZ 004bc1e0 f   PxsBase:Treeview.obj
 0001:000bb260       ?GetLastSelectedItem@TreeView@@AAEPAVTreeViewItem@@XZ 004bc260 f   PxsBase:Treeview.obj
 0001:000bb2c0       ?HandleLineSelectionEvent@TreeView@@AAEXHI_N@Z 004bc2c0 f   PxsBase:Treeview.obj
 0001:000bb400       ?InformAppMessageListener@TreeView@@AAEXXZ 004bc400 f   PxsBase:Treeview.obj
 0001:000bb520       ?LineNumberFromIndex@TreeView@@AAEHH@Z 004bc520 f   PxsBase:Treeview.obj
 0001:000bb5e0       ?MouseOverLineNumber@TreeView@@AAEHABUtagPOINT@@@Z 004bc5e0 f   PxsBase:Treeview.obj
 0001:000bb680       ??1?$TList@VTreeViewItem@@@@QAE@XZ 004bc680 f i PxsBase:Treeview.obj
 0001:000bb6c0       ?GetPointer@?$TList@VTreeViewItem@@@@QBEPAVTreeViewItem@@XZ 004bc6c0 f i PxsBase:Treeview.obj
 0001:000bb720       ?RemoveAll@?$TList@VTreeViewItem@@@@QAEXXZ 004bc720 f i PxsBase:Treeview.obj
 0001:000bb780       ?AllocateNode@?$TList@VTreeViewItem@@@@AAEPAU_TYPE_NODE@1@ABVTreeViewItem@@@Z 004bc780 f i PxsBase:Treeview.obj
 0001:000bb8e0       ?CreateDesktopShortCut@Shell@@SAXABVString@@000@Z 004bc8e0 f   PxsBase:Shell.obj
 0001:000bbda0       ?NavigateToUrl@Shell@@SAXABVString@@@Z 004bcda0 f   PxsBase:Shell.obj
 0001:000bc280       ?AddMenuItem@MenuPopup@@QAEXPAVMenuItem@@@Z 004bd280 f   PxsBase:MenuPopup.obj
 0001:000bc440       ?AddSeparator@MenuPopup@@QAEXXZ 004bd440 f   PxsBase:MenuPopup.obj
 0001:000bc520       ?Destroy@MenuPopup@@QAEXXZ 004bd520 f   PxsBase:MenuPopup.obj
 0001:000bc5e0       ?Show@MenuPopup@@QAEXPAUHMENU__@@I@Z 004bd5e0 f   PxsBase:MenuPopup.obj
 0001:000bc660       ??0TabWindow@@QAE@XZ       004bd660 f   PxsBase:TabWindow.obj
 0001:000bc800       ??_ETabWindow@@UAEPAXI@Z   004bd800 f i * CIL library *:* CIL module *
 0001:000bc800       ??_GTabWindow@@UAEPAXI@Z   004bd800 f i PxsBase:TabWindow.obj
 0001:000bc840       ??1TabWindow@@UAE@XZ       004bd840 f   PxsBase:TabWindow.obj
 0001:000bc960       ?Append@TabWindow@@QAEK_NPAVWindow@@ABVString@@2PAUHBITMAP__@@@Z 004bd960 f   PxsBase:TabWindow.obj
 0001:000bcba0       ??1_TYPE_TAB@TabWindow@@QAE@XZ 004bdba0 f i PxsBase:TabWindow.obj
 0001:000bcbe0       ?DoLayout@TabWindow@@UAEXXZ 004bdbe0 f   PxsBase:TabWindow.obj
 0001:000bcf80       ?GetTabsBounds@TabWindow@@QAEXPAUtagRECT@@@Z 004bdf80 f   PxsBase:TabWindow.obj
 0001:000bd040       ?SetCloseBitmaps@TabWindow@@QAEXGG@Z 004be040 f   PxsBase:TabWindow.obj
 0001:000bd120       ?SetSelectedTabID@TabWindow@@QAEXK@Z 004be120 f   PxsBase:TabWindow.obj
 0001:000bd1e0       ?SetTabVisible@TabWindow@@QAEXK_N@Z 004be1e0 f   PxsBase:TabWindow.obj
 0001:000bd320       ?MouseLButtonDownEvent@TabWindow@@MAEXABUtagPOINT@@I@Z 004be320 f   PxsBase:TabWindow.obj
 0001:000bd3c0       ?MouseLButtonUpEvent@TabWindow@@MAEXABUtagPOINT@@@Z 004be3c0 f   PxsBase:TabWindow.obj
 0001:000bd560       ?MouseMoveEvent@TabWindow@@MAEXABUtagPOINT@@I@Z 004be560 f   PxsBase:TabWindow.obj
 0001:000bd7c0       ?NotifyEvent@TabWindow@@MAEXPBUtagNMHDR@@@Z 004be7c0 f   PxsBase:TabWindow.obj
 0001:000bd7e0       ?PaintEvent@TabWindow@@MAEXPAUHDC__@@@Z 004be7e0 f   PxsBase:TabWindow.obj
 0001:000bdb60       ?TimerEvent@TabWindow@@MAEXI@Z 004beb60 f   PxsBase:TabWindow.obj
 0001:000bdc20       ?DrawTabBitmapAndText@TabWindow@@AAEXPAUHDC__@@PBU_TYPE_TAB@1@@Z 004bec20 f   PxsBase:TabWindow.obj
 0001:000bdee0       ?DrawTabCloseBitmap@TabWindow@@AAEXPAUHDC__@@PBU_TYPE_TAB@1@@Z 004beee0 f   PxsBase:TabWindow.obj
 0001:000be0c0       ?EvaluateTabWidth@TabWindow@@AAEHPAUHDC__@@PBU_TYPE_TAB@1@@Z 004bf0c0 f   PxsBase:TabWindow.obj
 0001:000be2a0       ?GetTabFromTabID@TabWindow@@AAEPAU_TYPE_TAB@1@K@Z 004bf2a0 f   PxsBase:TabWindow.obj
 0001:000be320       ?MouseInTabID@TabWindow@@AAEKABUtagPOINT@@@Z 004bf320 f   PxsBase:TabWindow.obj
 0001:000be3c0       ??1?$TList@U_TYPE_TAB@TabWindow@@@@QAE@XZ 004bf3c0 f i PxsBase:TabWindow.obj
 0001:000be480       ?Append@?$TList@U_TYPE_TAB@TabWindow@@@@QAEXABU_TYPE_TAB@TabWindow@@@Z 004bf480 f i PxsBase:TabWindow.obj
 0001:000be540       ?Get@?$TList@U_TYPE_TAB@TabWindow@@@@QBEABU_TYPE_TAB@TabWindow@@XZ 004bf540 f i PxsBase:TabWindow.obj
 0001:000be5a0       ?GetPointer@?$TList@U_TYPE_TAB@TabWindow@@@@QBEPAU_TYPE_TAB@TabWindow@@XZ 004bf5a0 f i PxsBase:TabWindow.obj
 0001:000be600       ?AllocateNode@?$TList@U_TYPE_TAB@TabWindow@@@@AAEPAU_TYPE_NODE@1@ABU_TYPE_TAB@TabWindow@@@Z 004bf600 f i PxsBase:TabWindow.obj
 0001:000be760       ?SendSimpleMail@Mail@@SAXABVString@@000@Z 004bf760 f   PxsBase:Mail.obj
 0001:000beca0       ??1MenuBar@@QAE@XZ         004bfca0 f   PxsBase:MenuBar.obj
 0001:000bed40       ?AddPopup@MenuBar@@QAEXABVMenuItem@@ABVMenuPopup@@@Z 004bfd40 f   PxsBase:MenuBar.obj
 0001:000bef20       ?Create@MenuBar@@QAEXABVWindow@@@Z 004bff20 f   PxsBase:MenuBar.obj
 0001:000bf020       ?Draw@MenuBar@@QBEXXZ      004c0020 f   PxsBase:MenuBar.obj
 0001:000bf0a0       ?RemoveAllPopupMenus@MenuBar@@QAEXXZ 004c00a0 f   PxsBase:MenuBar.obj
 0001:000bf150       ??0ArithmeticException@@QAE@PBD@Z 004c0150 f   PxsBase:ArithmeticException.obj
 0001:000bf180       ??0ArithmeticException@@QAE@ABV0@@Z 004c0180 f   PxsBase:ArithmeticException.obj
 0001:000bf200       ??0UnhandledExceptionDialog@@QAE@XZ 004c0200 f   PxsBase:UnhandledExceptionDialog.obj
 0001:000bf3e0       ??_GUnhandledExceptionDialog@@UAEPAXI@Z 004c03e0 f i PxsBase:UnhandledExceptionDialog.obj
 0001:000bf3e0       ??_EUnhandledExceptionDialog@@UAEPAXI@Z 004c03e0 f i * CIL library *:* CIL module *
 0001:000bf420       ??1UnhandledExceptionDialog@@UAE@XZ 004c0420 f   PxsBase:UnhandledExceptionDialog.obj
 0001:000bf4c0       ?SetExceptionMessage@UnhandledExceptionDialog@@QAEXABVString@@@Z 004c04c0 f   PxsBase:UnhandledExceptionDialog.obj
 0001:000bf540       ?CommandEvent@UnhandledExceptionDialog@@MAEJIJ@Z 004c0540 f   PxsBase:UnhandledExceptionDialog.obj
 0001:000bf760       ?InitDialogEvent@UnhandledExceptionDialog@@MAEXXZ 004c0760 f   PxsBase:UnhandledExceptionDialog.obj
 0001:000c0260       ??0UnhandledException@@QAE@PBU_EXCEPTION_POINTERS@@@Z 004c1260 f   PxsBase:UnhandledException.obj
 0001:000c0310       ??0BadCastException@@QAE@PBD@Z 004c1310 f   PxsBase:BadCastException.obj
 0001:000c0340       ??0BadCastException@@QAE@ABV0@@Z 004c1340 f   PxsBase:BadCastException.obj
 0001:000c03c0       ??1Logger@@QAE@XZ          004c13c0 f   PxsBase:Logger.obj
 0001:000c0460       ?Flush@Logger@@QBEXXZ      004c1460 f   PxsBase:Logger.obj
 0001:000c04c0       ?GetLogMessages@Logger@@QBEXPAVStringArray@@@Z 004c14c0 f   PxsBase:Logger.obj
 0001:000c0540       ?Start@Logger@@QAEKABVString@@_N@Z 004c1540 f   PxsBase:Logger.obj
 0001:000c06e0       ?Stop@Logger@@QAEXXZ       004c16e0 f   PxsBase:Logger.obj
 0001:000c07e0       ?WriteEntry@Logger@@QAEXKKK_NPB_WABVString@@2@Z 004c17e0 f   PxsBase:Logger.obj
 0001:000c08e0       ?CreateEntry@Logger@@ABEXKKK_NPB_WABVString@@2PAV2@@Z 004c18e0 f   PxsBase:Logger.obj
 0001:000c0fa0       ?SeverityCodeToString@Logger@@CAXKPAVString@@@Z 004c1fa0 f   PxsBase:Logger.obj
 0001:000c10e0       ?WriteHeader@Logger@@AAEXXZ 004c20e0 f   PxsBase:Logger.obj
 0001:000c1220       ?WriteSystemDiagnosticData@Logger@@AAEX_N@Z 004c2220 f   PxsBase:Logger.obj
 0001:000c14e0       ?WriteText@Logger@@AAEXABVString@@@Z 004c24e0 f   PxsBase:Logger.obj
 0001:000c15d0       ??1Library@@QAE@XZ         004c25d0 f   PxsBase:Library.obj
 0001:000c15e0       ?LoadSystemLibrary@Library@@QAEXPB_W@Z 004c25e0 f   PxsBase:Library.obj
 0001:000c1760       ?LoadFullPath@Library@@QAEXABVString@@@Z 004c2760 f   PxsBase:Library.obj
 0001:000c1880       ?GetInstance@ToolTip@@SAPAV1@XZ 004c2880 f   PxsBase:ToolTip.obj
 0001:000c1980       ?MouseButtonDown@ToolTip@@QAEXABUtagPOINT@@@Z 004c2980 f   PxsBase:ToolTip.obj
 0001:000c1a00       ?Show@ToolTip@@QAEXABVString@@ABUtagRECT@@@Z 004c2a00 f   PxsBase:ToolTip.obj
 0001:000c1ba0       ?SetText@ToolTip@@QAEXABVString@@@Z 004c2ba0 f   PxsBase:ToolTip.obj
 0001:000c1da0       ?PaintEvent@ToolTip@@MAEXPAUHDC__@@@Z 004c2da0 f   PxsBase:ToolTip.obj
 0001:000c1e00       ?TimerEvent@ToolTip@@MAEXI@Z 004c2e00 f   PxsBase:ToolTip.obj
 0001:000c1fa0       ??0ToolTip@@AAE@XZ         004c2fa0 f   PxsBase:ToolTip.obj
 0001:000c2140       ??_GToolTip@@EAEPAXI@Z     004c3140 f i PxsBase:ToolTip.obj
 0001:000c2140       ??_EToolTip@@EAEPAXI@Z     004c3140 f i * CIL library *:* CIL module *
 0001:000c21a0       ?Init@ToolTip@@AAEXXZ      004c31a0 f   PxsBase:ToolTip.obj
 0001:000c2220       ??_ELabel@@UAEPAXI@Z       004c3220 f i * CIL library *:* CIL module *
 0001:000c2220       ??_GLabel@@UAEPAXI@Z       004c3220 f i PxsBase:Label.obj
 0001:000c2250       ??1Label@@UAE@XZ           004c3250 f   PxsBase:Label.obj
 0001:000c2260       ?GetPreferredSize@Label@@QBEXPAUtagSIZE@@@Z 004c3260 f   PxsBase:Label.obj
 0001:000c23a0       ??_EScrollPane@@UAEPAXI@Z  004c33a0 f i * CIL library *:* CIL module *
 0001:000c23a0       ??_GScrollPane@@UAEPAXI@Z  004c33a0 f i PxsBase:ScrollPane.obj
 0001:000c23e0       ?GetScrollPosition@ScrollPane@@QAE_NPAUtagPOINT@@@Z 004c33e0 f   PxsBase:ScrollPane.obj
 0001:000c2500       ?SetScrollPosition@ScrollPane@@QAE_NABUtagPOINT@@@Z 004c3500 f   PxsBase:ScrollPane.obj
 0001:000c2600       ?UpdateScrollBarsInfo@ScrollPane@@QAEXABUtagSIZE@@@Z 004c3600 f   PxsBase:ScrollPane.obj
 0001:000c28e0       ?KeyDownEvent@ScrollPane@@MAEJI@Z 004c38e0 f   PxsBase:ScrollPane.obj
 0001:000c29a0       ?MouseWheelEvent@ScrollPane@@MAEXGFABUtagPOINT@@@Z 004c39a0 f   PxsBase:ScrollPane.obj
 0001:000c2ac0       ?ScrollEvent@ScrollPane@@MAEJ_NH@Z 004c3ac0 f   PxsBase:ScrollPane.obj
 0001:000c2cdc       @__security_check_cookie@4 004c3cdc f   LIBCMT:secchk.obj
 0001:000c2cea       ___raise_securityfailure   004c3cea f   LIBCMT:gs_report.obj
 0001:000c2d12       ___report_gsfailure        004c3d12 f   LIBCMT:gs_report.obj
 0001:000c2e10       ??_Gtype_info@@UAEPAXI@Z   004c3e10 f i LIBCMT:std_type_info_static.obj
 0001:000c2e10       ??_Etype_info@@UAEPAXI@Z   004c3e10 f i LIBCMT:std_type_info_static.obj
 0001:000c2e33       ??_V@YAXPAX@Z              004c3e33 f   LIBCMT:delete_array.obj
 0001:000c2e38       ??_V@YAXPAXI@Z             004c3e38 f   LIBCMT:delete_array_size.obj
 0001:000c2e46       ??_M@YGXPAXIIP6EX0@Z@Z     004c3e46 f   LIBCMT:ehvecdtr.obj
 0001:000c2ecb       ?__ArrayUnwind@@YGXPAXIIP6EX0@Z@Z 004c3ecb f   LIBCMT:ehvecdtr.obj
 0001:000c2f5b       ??3@YAXPAXI@Z              004c3f5b f   LIBCMT:delete_scalar_size.obj
 0001:000c2f69       ??_U@YAPAXI@Z              004c3f69 f   LIBCMT:new_array.obj
 0001:000c2f72       ??_L@YGXPAXIIP6EX0@Z1@Z    004c3f72 f   LIBCMT:ehvecctr.obj
 0001:000c2fe6       ??2@YAPAXI@Z               004c3fe6 f   LIBCMT:new_scalar.obj
 0001:000c3270       _WinMainCRTStartup         004c4270 f   LIBCMT:exe_winmain.obj
 0001:000c327a       ??3@YAXPAX@Z               004c427a f   LIBCMT:delete_scalar.obj
 0001:000c3280       __SEH_prolog4              004c4280 f   LIBCMT:sehprolg4.obj
 0001:000c32d0       ??0bad_alloc@std@@QAE@ABV01@@Z 004c42d0 f i LIBCMT:throw_bad_alloc.obj
 0001:000c32eb       ??0bad_alloc@std@@QAE@XZ   004c42eb f i LIBCMT:throw_bad_alloc.obj
 0001:000c3310       ??0bad_array_new_length@std@@QAE@ABV01@@Z 004c4310 f i LIBCMT:throw_bad_alloc.obj
 0001:000c332b       ??0bad_array_new_length@std@@QAE@XZ 004c432b f i LIBCMT:throw_bad_alloc.obj
 0001:000c3350       ??0exception@std@@QAE@ABV01@@Z 004c4350 f i LIBCMT:throw_bad_alloc.obj
 0001:000c3380       ??1bad_exception@std@@UAE@XZ 004c4380 f i libvcruntime:frame.obj
 0001:000c3380       ??1bad_alloc@std@@UAE@XZ   004c4380 f i LIBCMT:throw_bad_alloc.obj
 0001:000c3380       ??1bad_array_new_length@std@@UAE@XZ 004c4380 f i LIBCMT:throw_bad_alloc.obj
 0001:000c33a0       ??_Ebad_alloc@std@@UAEPAXI@Z 004c43a0 f i LIBCMT:throw_bad_alloc.obj
 0001:000c33a0       ??_Gbad_exception@std@@UAEPAXI@Z 004c43a0 f i libvcruntime:frame.obj
 0001:000c33a0       ??_Gexception@std@@UAEPAXI@Z 004c43a0 f i LIBCMT:throw_bad_alloc.obj
 0001:000c33a0       ??_Eexception@std@@UAEPAXI@Z 004c43a0 f i LIBCMT:throw_bad_alloc.obj
 0001:000c33a0       ??_Gbad_array_new_length@std@@UAEPAXI@Z 004c43a0 f i LIBCMT:throw_bad_alloc.obj
 0001:000c33a0       ??_Ebad_exception@std@@UAEPAXI@Z 004c43a0 f i libvcruntime:frame.obj
 0001:000c33a0       ??_Gbad_alloc@std@@UAEPAXI@Z 004c43a0 f i LIBCMT:throw_bad_alloc.obj
 0001:000c33a0       ??_Ebad_array_new_length@std@@UAEPAXI@Z 004c43a0 f i LIBCMT:throw_bad_alloc.obj
 0001:000c33cd       ?__scrt_throw_std_bad_alloc@@YAXXZ 004c43cd f   LIBCMT:throw_bad_alloc.obj
 0001:000c33ea       ?__scrt_throw_std_bad_array_new_length@@YAXXZ 004c43ea f   LIBCMT:throw_bad_alloc.obj
 0001:000c3410       ?what@exception@std@@UBEPBDXZ 004c4410 f i LIBCMT:throw_bad_alloc.obj
 0001:000c3461       ___scrt_acquire_startup_lock 004c4461 f   LIBCMT:utility.obj
 0001:000c3493       ___scrt_initialize_crt     004c4493 f   LIBCMT:utility.obj
 0001:000c34cc       ___scrt_initialize_onexit_tables 004c44cc f   LIBCMT:utility.obj
 0001:000c3553       ___scrt_is_nonwritable_in_current_image 004c4553 f   LIBCMT:utility.obj
 0001:000c35e7       ___scrt_release_startup_lock 004c45e7 f   LIBCMT:utility.obj
 0001:000c3604       ___scrt_uninitialize_crt   004c4604 f   LIBCMT:utility.obj
 0001:000c362c       __onexit                   004c462c f   LIBCMT:utility.obj
 0001:000c3659       _atexit                    004c4659 f   LIBCMT:utility.obj
 0001:000c36bb       ___security_init_cookie    004c46bb f   LIBCMT:gs_support.obj
 0001:000c3706       __get_startup_argv_mode    004c4706 f   LIBCMT:argv_mode.obj
 0001:000c370a       __get_startup_file_mode    004c470a f   LIBCMT:file_mode.obj
 0001:000c3710       ?__scrt_initialize_type_info@@YAXXZ 004c4710 f   LIBCMT:tncleanup.obj
 0001:000c3720       ___acrt_uninitialize_command_line 004c4720 f   libucrt:argv_data.obj
 0001:000c3720       __should_initialize_environment 004c4720 f   LIBCMT:env_mode.obj
 0001:000c3723       __initialize_default_precision 004c4723 f   LIBCMT:default_precision.obj
 0001:000c3744       ___local_stdio_scanf_options 004c4744 f i LIBCMT:default_local_stdio_options.obj
 0001:000c374a       ___scrt_initialize_default_local_stdio_options 004c474a f   LIBCMT:default_local_stdio_options.obj
 0001:000c3767       ___scrt_is_user_matherr_present 004c4767 f   LIBCMT:matherr_detection.obj
 0001:000c3773       ___scrt_get_dyn_tls_init_callback 004c4773 f   LIBCMT:dyn_tls_init.obj
 0001:000c3779       ___scrt_get_dyn_tls_dtor_callback 004c4779 f   LIBCMT:dyn_tls_dtor.obj
 0001:000c377f       ___scrt_fastfail           004c477f f   LIBCMT:utility_desktop.obj
 0001:000c389a       ___scrt_get_show_window_mode 004c489a f   LIBCMT:utility_desktop.obj
 0001:000c38cb       ___scrt_initialize_mta     004c48cb f   LIBCMT:utility_desktop.obj
 0001:000c38d0       ___scrt_is_managed_app     004c48d0 f   LIBCMT:utility_desktop.obj
 0001:000c3912       ___scrt_set_unhandled_exception_filter 004c4912 f   LIBCMT:utility_desktop.obj
 0001:000c3920       ___scrt_unhandled_exception_filter@4 004c4920 f   LIBCMT:utility_desktop.obj
 0001:000c3976       __crt_debugger_hook        004c4976 f   LIBCMT:utility_desktop.obj
 0001:000c397e       __RTC_Initialize           004c497e f   LIBCMT:initsect.obj
 0001:000c39b0       __RTC_Terminate            004c49b0 f   LIBCMT:initsect.obj
 0001:000c39dc       ___isa_available_init      004c49dc f   LIBCMT:cpu_disp.obj
 0001:000c3bb0       ___scrt_is_ucrt_dll_in_use 004c4bb0 f   LIBCMT:ucrt_detection.obj
 0001:000c3bbc       ?GetRangeOfTrysToCheck@__FrameHandler3@@SA?AU?$pair@Viterator@TryBlockMap@__FrameHandler3@@V123@@std@@AAVTryBlockMap@1@HPAXPBU_s_FuncInfo@@H@Z 004c4bbc f   libvcruntime:trnsctrl.obj
 0001:000c3c2c       ?_CallCatchBlock2@@YAPAXPAUEHRegistrationNode@@PBU_s_FuncInfo@@PAXHK@Z 004c4c2c f   libvcruntime:trnsctrl.obj
 0001:000c3c89       ?_CallSETranslator@@YAHPAUEHExceptionRecord@@PAUEHRegistrationNode@@PAX2PBU_s_FuncInfo@@H1@Z 004c4c89 f   libvcruntime:trnsctrl.obj
 0001:000c3d7f       ?_JumpToContinuation@@YGXPAXPAUEHRegistrationNode@@@Z 004c4d7f f   libvcruntime:trnsctrl.obj
 0001:000c3daf       ?_UnwindNestedFrames@@YGXPAUEHRegistrationNode@@PAUEHExceptionRecord@@@Z 004c4daf f   libvcruntime:trnsctrl.obj
 0001:000c3e02       __CatchGuardHandler        004c4e02 f   libvcruntime:trnsctrl.obj
 0001:000c3e33       __CreateFrameInfo          004c4e33 f   libvcruntime:trnsctrl.obj
 0001:000c3e57       __FindAndUnlinkFrame       004c4e57 f   libvcruntime:trnsctrl.obj
 0001:000c3e9f       __TranslatorGuardHandler   004c4e9f f   libvcruntime:trnsctrl.obj
 0001:000c3f3c       ___CxxFrameHandler3        004c4f3c f   libvcruntime:trnsctrl.obj
 0001:000c3f80       ___DestructExceptionObject 004c4f80 f   libvcruntime:ehhelpers.obj
 0001:000c4021       ?_CallMemberFunction0@@YGXQAX0@Z 004c5021 f i libvcruntime:ehhelpers.obj
 0001:000c4086       __IsExceptionObjectToBeDestroyed 004c5086 f   libvcruntime:ehhelpers.obj
 0001:000c40ac       ___AdjustPointer           004c50ac f   libvcruntime:ehhelpers.obj
 0001:000c40d1       ___FrameUnwindFilter       004c50d1 f   libvcruntime:ehhelpers.obj
 0001:000c4127       ___current_exception       004c5127 f   libvcruntime:ehhelpers.obj
 0001:000c4130       ___current_exception_context 004c5130 f   libvcruntime:ehhelpers.obj
 0001:000c4140       ___std_terminate           004c5140 f   libvcruntime:ehhelpers.obj
 0001:000c4145       _wcschr                    004c5145 f   libvcruntime:wcschr.obj
 0001:000c420c       _wcsstr                    004c520c f   libvcruntime:wcsstr.obj
 0001:000c449e       _wcsrchr                   004c549e f   libvcruntime:wcsrchr.obj
 0001:000c4580       __except_handler4          004c5580 f   libvcruntime:chandler4.obj
 0001:000c46e1       ___std_exception_copy      004c56e1 f   libvcruntime:std_exception.obj
 0001:000c4744       ___std_exception_destroy   004c5744 f   libvcruntime:std_exception.obj
 0001:000c4763       __CxxThrowException@8      004c5763 f   libvcruntime:throw.obj
 0001:000c47cf       ___vcrt_initialize         004c57cf f   libvcruntime:initialization.obj
 0001:000c47ee       ___vcrt_uninitialize       004c57ee f   libvcruntime:initialization.obj
 0001:000c4805       ___std_type_info_compare   004c5805 f   libvcruntime:std_type_info.obj
 0001:000c4850       _memset                    004c5850 f   libvcruntime:memset.obj
 0001:000c49b0       ___vcrt_freefls@4          004c59b0 f   libvcruntime:per_thread_data.obj
 0001:000c49cc       ___vcrt_getptd             004c59cc f   libvcruntime:per_thread_data.obj
 0001:000c49da       ___vcrt_getptd_noexit      004c59da f   libvcruntime:per_thread_data.obj
 0001:000c4a6c       ___vcrt_initialize_ptd     004c5a6c f   libvcruntime:per_thread_data.obj
 0001:000c4a9f       ___vcrt_uninitialize_ptd   004c5a9f f   libvcruntime:per_thread_data.obj
 0001:000c520a       ??$TypeMatchHelper@V__FrameHandler3@@@@YAHPBU_s_HandlerType@@PBU_s_CatchableType@@PBU_s_ThrowInfo@@@Z 004c620a f i libvcruntime:frame.obj
 0001:000c5298       ??$__InternalCxxFrameHandler@V__FrameHandler3@@@@YA?AW4_EXCEPTION_DISPOSITION@@PAUEHExceptionRecord@@PAUEHRegistrationNode@@PAU_CONTEXT@@PAXPBU_s_FuncInfo@@H1E@Z 004c6298 f i libvcruntime:frame.obj
 0001:000c53a0       ??0bad_exception@std@@QAE@ABV01@@Z 004c63a0 f i libvcruntime:frame.obj
 0001:000c53bb       ??0bad_exception@std@@QAE@XZ 004c63bb f i libvcruntime:frame.obj
 0001:000c53d3       ??8type_info@@QBE_NABV0@@Z 004c63d3 f i libvcruntime:frame.obj
 0001:000c5659       ?FrameUnwindToEmptyState@__FrameHandler3@@SAXPAUEHRegistrationNode@@PAXPBU_s_FuncInfo@@@Z 004c6659 f   libvcruntime:frame.obj
 0001:000c5671       ?FrameUnwindToState@__FrameHandler3@@SAXPAUEHRegistrationNode@@PAXPBU_s_FuncInfo@@H@Z 004c6671 f   libvcruntime:frame.obj
 0001:000c57f3       ?_CallMemberFunction1@@YGXQAX00@Z 004c67f3 f i libvcruntime:frame.obj
 0001:000c5803       ?_CallMemberFunction2@@YGXQAX00H@Z 004c6803 f i libvcruntime:frame.obj
 0001:000c5816       ?getESTypes@__FrameHandler3@@SAPBU_s_ESTypeList@@PBU_s_FuncInfo@@@Z 004c6816 f i libvcruntime:frame.obj
 0001:000c5830       __CallSettingFrame@12      004c6830 f   libvcruntime:lowhelpr.obj
 0001:000c5857       __NLG_Return               004c6857     libvcruntime:lowhelpr.obj
 0001:000c587c       ___except_validate_context_record 004c687c f   libvcruntime:jbcxrval.obj
 0001:000c58b0       __local_unwind4            004c68b0 f   libvcruntime:exsup4.obj
 0001:000c59a0       @_EH4_CallFilterFunc@8     004c69a0 f   libvcruntime:exsup4.obj
 0001:000c59c0       @_EH4_TransferToHandler@8  004c69c0 f   libvcruntime:exsup4.obj
 0001:000c59e0       @_EH4_GlobalUnwind2@8      004c69e0 f   libvcruntime:exsup4.obj
 0001:000c5a00       @_EH4_LocalUnwind@16       004c6a00 f   libvcruntime:exsup4.obj
 0001:000c5a17       ___vcrt_initialize_locks   004c6a17 f   libvcruntime:locks.obj
 0001:000c5a53       ___vcrt_uninitialize_locks 004c6a53 f   libvcruntime:locks.obj
 0001:000c5b67       ___vcrt_FlsAlloc           004c6b67 f   libvcruntime:winapi_downlevel.obj
 0001:000c5ba2       ___vcrt_FlsFree            004c6ba2 f   libvcruntime:winapi_downlevel.obj
 0001:000c5bdd       ___vcrt_FlsGetValue        004c6bdd f   libvcruntime:winapi_downlevel.obj
 0001:000c5c18       ___vcrt_FlsSetValue        004c6c18 f   libvcruntime:winapi_downlevel.obj
 0001:000c5c56       ___vcrt_InitializeCriticalSectionEx 004c6c56 f   libvcruntime:winapi_downlevel.obj
 0001:000c5c9d       _unexpected                004c6c9d f   libvcruntime:unexpected.obj
 0001:000c5cba       ?GetCurrentState@__FrameHandler3@@SAHPAUEHRegistrationNode@@PAXPBU_s_FuncInfo@@@Z 004c6cba f   libvcruntime:ehstate.obj
 0001:000c5cd7       ?SetState@__FrameHandler3@@SAXPAUEHRegistrationNode@@PBU_s_FuncInfo@@H@Z 004c6cd7 f   libvcruntime:ehstate.obj
 0001:000c5cf0       _memcpy                    004c6cf0 f   libvcruntime:memcpy.obj
 0001:000c5cf0       _memmove                   004c6cf0 f   libvcruntime:memmove.obj
 0001:000c6270       __NLG_Notify1              004c7270 f   libvcruntime:exsup.obj
 0001:000c6280       __NLG_Notify               004c7280 f   libvcruntime:exsup.obj
 0001:000c6297       __NLG_Dispatch2            004c7297     libvcruntime:exsup.obj
 0001:000c6297       __NLG_Dispatch             004c7297     libvcruntime:exsup.obj
 0001:000c62a0       __NLG_Call                 004c72a0 f   libvcruntime:exsup.obj
 0001:000c62a2       __NLG_Return2              004c72a2     libvcruntime:exsup.obj
 0001:000c65b5       ??$count@D@formatting_buffer@__crt_stdio_output@@QBEIXZ 004c75b5 f i libucrt:output.obj
 0001:000c65cd       ??$count@_W@formatting_buffer@__crt_stdio_output@@QBEIXZ 004c75cd f i libucrt:output.obj
 0001:000c65e6       ??$ensure_buffer_is_big_enough@D@formatting_buffer@__crt_stdio_output@@QAE_NI@Z 004c75e6 f i libucrt:output.obj
 0001:000c6663       ??$ensure_buffer_is_big_enough@_W@formatting_buffer@__crt_stdio_output@@QAE_NI@Z 004c7663 f i libucrt:output.obj
 0001:000c66e1       ??$is_wide_character_specifier@D@__crt_stdio_output@@YA_N_KDW4length_modifier@0@@Z 004c76e1 f i libucrt:output.obj
 0001:000c6712       ??$is_wide_character_specifier@_W@__crt_stdio_output@@YA_N_K_WW4length_modifier@0@@Z 004c7712 f i libucrt:output.obj
 0001:000c6760       ??$scratch_data@D@formatting_buffer@__crt_stdio_output@@QAEPADXZ 004c7760 f i libucrt:output.obj
 0001:000c677e       ??$type_case_integer_parse_into_buffer@I@?$output_processor@DV?$string_output_adapter@D@__crt_stdio_output@@V?$standard_base@DV?$string_output_adapter@D@__crt_stdio_output@@@2@@__crt_stdio_output@@AAEXII_N@Z 004c777e f i libucrt:output.obj
 0001:000c67f1       ??$type_case_integer_parse_into_buffer@I@?$output_processor@_WV?$string_output_adapter@_W@__crt_stdio_output@@V?$standard_base@_WV?$string_output_adapter@_W@__crt_stdio_output@@@2@@__crt_stdio_output@@AAEXII_N@Z 004c77f1 f i libucrt:output.obj
 0001:000c6878       ??$type_case_integer_parse_into_buffer@_K@?$output_processor@DV?$string_output_adapter@D@__crt_stdio_output@@V?$standard_base@DV?$string_output_adapter@D@__crt_stdio_output@@@2@@__crt_stdio_output@@AAEX_KI_N@Z 004c7878 f i libucrt:output.obj
 0001:000c6906       ??$type_case_integer_parse_into_buffer@_K@?$output_processor@_WV?$string_output_adapter@_W@__crt_stdio_output@@V?$standard_base@_WV?$string_output_adapter@_W@__crt_stdio_output@@@2@@__crt_stdio_output@@AAEX_KI_N@Z 004c7906 f i libucrt:output.obj
 0001:000c69a8       ??$write_multiple_characters@V?$string_output_adapter@D@__crt_stdio_output@@D@__crt_stdio_output@@YAXABV?$string_output_adapter@D@0@DHQAH@Z 004c79a8 f i libucrt:output.obj
 0001:000c69d4       ??$write_multiple_characters@V?$string_output_adapter@_W@__crt_stdio_output@@D@__crt_stdio_output@@YAXABV?$string_output_adapter@_W@0@DHQAH@Z 004c79d4 f i libucrt:output.obj
 0001:000c6a05       ??0?$common_data@D@__crt_stdio_output@@IAE@XZ 004c7a05 f i libucrt:output.obj
 0001:000c6a4a       ??0?$common_data@_W@__crt_stdio_output@@IAE@XZ 004c7a4a f i libucrt:output.obj
 0001:000c6a94       ??0?$output_adapter_data@DV?$string_output_adapter@D@__crt_stdio_output@@@__crt_stdio_output@@IAE@ABV?$string_output_adapter@D@1@_KQBDQAU__crt_locale_pointers@@QAD@Z 004c7a94 f i libucrt:output.obj
 0001:000c6ad0       ??0?$output_adapter_data@_WV?$string_output_adapter@_W@__crt_stdio_output@@@__crt_stdio_output@@IAE@ABV?$string_output_adapter@_W@1@_KQB_WQAU__crt_locale_pointers@@QAD@Z 004c7ad0 f i libucrt:output.obj
 0001:000c6b0c       ??0_LocaleUpdate@@QAE@QAU__crt_locale_pointers@@@Z 004c7b0c f i libucrt:output.obj
 0001:000c6b8f       ??1formatting_buffer@__crt_stdio_output@@QAE@XZ 004c7b8f f i libucrt:output.obj
 0001:000c6ba9       ??4?$__crt_unique_heap_ptr@DU__crt_internal_free_policy@@@@QAEAAV0@$$QAV0@@Z 004c7ba9 f i libucrt:output.obj
 0001:000c6bd0       ?crop_zeroes@__crt_stdio_output@@YAXPADQAU__crt_locale_pointers@@@Z 004c7bd0 f i libucrt:output.obj
 0001:000c6c51       ?find_next_state@?$output_processor@DV?$string_output_adapter@D@__crt_stdio_output@@V?$standard_base@DV?$string_output_adapter@D@__crt_stdio_output@@@2@@__crt_stdio_output@@ABE?AW4state@2@DW432@@Z 004c7c51 f i libucrt:output.obj
 0001:000c6c88       ?find_next_state@?$output_processor@_WV?$string_output_adapter@_W@__crt_stdio_output@@V?$standard_base@_WV?$string_output_adapter@_W@__crt_stdio_output@@@2@@__crt_stdio_output@@ABE?AW4state@2@_WW432@@Z 004c7c88 f i libucrt:output.obj
 0001:000c6cc0       ?force_decimal_point@__crt_stdio_output@@YAXPADQAU__crt_locale_pointers@@@Z 004c7cc0 f i libucrt:output.obj
 0001:000c6d25       ?parse_int_from_format_string@?$output_processor@DV?$string_output_adapter@D@__crt_stdio_output@@V?$standard_base@DV?$string_output_adapter@D@__crt_stdio_output@@@2@@__crt_stdio_output@@AAE_NQAH@Z 004c7d25 f i libucrt:output.obj
 0001:000c6d99       ?parse_int_from_format_string@?$output_processor@_WV?$string_output_adapter@_W@__crt_stdio_output@@V?$standard_base@_WV?$string_output_adapter@_W@__crt_stdio_output@@@2@@__crt_stdio_output@@AAE_NQAH@Z 004c7d99 f i libucrt:output.obj
 0001:000c6e0f       ?process@?$output_processor@DV?$string_output_adapter@D@__crt_stdio_output@@V?$standard_base@DV?$string_output_adapter@D@__crt_stdio_output@@@2@@__crt_stdio_output@@QAEHXZ 004c7e0f f i libucrt:output.obj
 0001:000c6f23       ?process@?$output_processor@_WV?$string_output_adapter@_W@__crt_stdio_output@@V?$standard_base@_WV?$string_output_adapter@_W@__crt_stdio_output@@@2@@__crt_stdio_output@@QAEHXZ 004c7f23 f i libucrt:output.obj
 0001:000c703f       ?state_case_flag@?$output_processor@DV?$string_output_adapter@D@__crt_stdio_output@@V?$standard_base@DV?$string_output_adapter@D@__crt_stdio_output@@@2@@__crt_stdio_output@@AAE_NXZ 004c803f f i libucrt:output.obj
 0001:000c707c       ?state_case_flag@?$output_processor@_WV?$string_output_adapter@_W@__crt_stdio_output@@V?$standard_base@_WV?$string_output_adapter@_W@__crt_stdio_output@@@2@@__crt_stdio_output@@AAE_NXZ 004c807c f i libucrt:output.obj
 0001:000c70b9       ?state_case_normal@?$output_processor@DV?$string_output_adapter@D@__crt_stdio_output@@V?$standard_base@DV?$string_output_adapter@D@__crt_stdio_output@@@2@@__crt_stdio_output@@AAE_NXZ 004c80b9 f i libucrt:output.obj
 0001:000c70d8       ?state_case_normal@?$output_processor@_WV?$string_output_adapter@_W@__crt_stdio_output@@V?$standard_base@_WV?$string_output_adapter@_W@__crt_stdio_output@@@2@@__crt_stdio_output@@AAE_NXZ 004c80d8 f i libucrt:output.obj
 0001:000c70f7       ?state_case_normal_common@?$output_processor@DV?$string_output_adapter@D@__crt_stdio_output@@V?$standard_base@DV?$string_output_adapter@D@__crt_stdio_output@@@2@@__crt_stdio_output@@AAE_NXZ 004c80f7 f i libucrt:output.obj
 0001:000c7121       ?state_case_normal_common@?$output_processor@_WV?$string_output_adapter@_W@__crt_stdio_output@@V?$standard_base@_WV?$string_output_adapter@_W@__crt_stdio_output@@@2@@__crt_stdio_output@@AAE_NXZ 004c8121 f i libucrt:output.obj
 0001:000c713c       ?state_case_normal_tchar@?$output_processor@DV?$string_output_adapter@D@__crt_stdio_output@@V?$standard_base@DV?$string_output_adapter@D@__crt_stdio_output@@@2@@__crt_stdio_output@@AAE_ND@Z 004c813c f i libucrt:output.obj
 0001:000c71a0       ?state_case_precision@?$output_processor@DV?$string_output_adapter@D@__crt_stdio_output@@V?$standard_base@DV?$string_output_adapter@D@__crt_stdio_output@@@2@@__crt_stdio_output@@AAE_NXZ 004c81a0 f i libucrt:output.obj
 0001:000c71c6       ?state_case_precision@?$output_processor@_WV?$string_output_adapter@_W@__crt_stdio_output@@V?$standard_base@_WV?$string_output_adapter@_W@__crt_stdio_output@@@2@@__crt_stdio_output@@AAE_NXZ 004c81c6 f i libucrt:output.obj
 0001:000c71ed       ?state_case_size@?$output_processor@DV?$string_output_adapter@D@__crt_stdio_output@@V?$standard_base@DV?$string_output_adapter@D@__crt_stdio_output@@@2@@__crt_stdio_output@@AAE_NXZ 004c81ed f i libucrt:output.obj
 0001:000c733b       ?state_case_size@?$output_processor@_WV?$string_output_adapter@_W@__crt_stdio_output@@V?$standard_base@_WV?$string_output_adapter@_W@__crt_stdio_output@@@2@@__crt_stdio_output@@AAE_NXZ 004c833b f i libucrt:output.obj
 0001:000c74b3       ?state_case_type@?$output_processor@DV?$string_output_adapter@D@__crt_stdio_output@@V?$standard_base@DV?$string_output_adapter@D@__crt_stdio_output@@@2@@__crt_stdio_output@@AAE_NXZ 004c84b3 f i libucrt:output.obj
 0001:000c76e5       ?state_case_type@?$output_processor@_WV?$string_output_adapter@_W@__crt_stdio_output@@V?$standard_base@_WV?$string_output_adapter@_W@__crt_stdio_output@@@2@@__crt_stdio_output@@AAE_NXZ 004c86e5 f i libucrt:output.obj
 0001:000c7942       ?state_case_width@?$output_processor@DV?$string_output_adapter@D@__crt_stdio_output@@V?$standard_base@DV?$string_output_adapter@D@__crt_stdio_output@@@2@@__crt_stdio_output@@AAE_NXZ 004c8942 f i libucrt:output.obj
 0001:000c796d       ?state_case_width@?$output_processor@_WV?$string_output_adapter@_W@__crt_stdio_output@@V?$standard_base@_WV?$string_output_adapter@_W@__crt_stdio_output@@@2@@__crt_stdio_output@@AAE_NXZ 004c896d f i libucrt:output.obj
 0001:000c79a0       ?to_integer_size@__crt_stdio_output@@YAIW4length_modifier@1@@Z 004c89a0 f i libucrt:output.obj
 0001:000c79fc       ?type_case_Z@?$output_processor@DV?$string_output_adapter@D@__crt_stdio_output@@V?$standard_base@DV?$string_output_adapter@D@__crt_stdio_output@@@2@@__crt_stdio_output@@AAE_NXZ 004c89fc f i libucrt:output.obj
 0001:000c7a56       ?type_case_Z@?$output_processor@_WV?$string_output_adapter@_W@__crt_stdio_output@@V?$standard_base@_WV?$string_output_adapter@_W@__crt_stdio_output@@@2@@__crt_stdio_output@@AAE_NXZ 004c8a56 f i libucrt:output.obj
 0001:000c7ab0       ?type_case_a@?$output_processor@DV?$string_output_adapter@D@__crt_stdio_output@@V?$standard_base@DV?$string_output_adapter@D@__crt_stdio_output@@@2@@__crt_stdio_output@@AAE_NXZ 004c8ab0 f i libucrt:output.obj
 0001:000c7c01       ?type_case_a@?$output_processor@_WV?$string_output_adapter@_W@__crt_stdio_output@@V?$standard_base@_WV?$string_output_adapter@_W@__crt_stdio_output@@@2@@__crt_stdio_output@@AAE_NXZ 004c8c01 f i libucrt:output.obj
 0001:000c7d68       ?type_case_c_tchar@?$output_processor@DV?$string_output_adapter@D@__crt_stdio_output@@V?$standard_base@DV?$string_output_adapter@D@__crt_stdio_output@@@2@@__crt_stdio_output@@AAE_ND@Z 004c8d68 f i libucrt:output.obj
 0001:000c7dfb       ?type_case_c_tchar@?$output_processor@_WV?$string_output_adapter@_W@__crt_stdio_output@@V?$standard_base@_WV?$string_output_adapter@_W@__crt_stdio_output@@@2@@__crt_stdio_output@@AAE_N_W@Z 004c8dfb f i libucrt:output.obj
 0001:000c7e91       ?type_case_integer@?$output_processor@DV?$string_output_adapter@D@__crt_stdio_output@@V?$standard_base@DV?$string_output_adapter@D@__crt_stdio_output@@@2@@__crt_stdio_output@@AAE_NI_N@Z 004c8e91 f i libucrt:output.obj
 0001:000c7fe2       ?type_case_integer@?$output_processor@_WV?$string_output_adapter@_W@__crt_stdio_output@@V?$standard_base@_WV?$string_output_adapter@_W@__crt_stdio_output@@@2@@__crt_stdio_output@@AAE_NI_N@Z 004c8fe2 f i libucrt:output.obj
 0001:000c8137       ?type_case_n@?$output_processor@_WV?$string_output_adapter@_W@__crt_stdio_output@@V?$standard_base@_WV?$string_output_adapter@_W@__crt_stdio_output@@@2@@__crt_stdio_output@@AAE_NXZ 004c9137 f i libucrt:output.obj
 0001:000c8137       ?type_case_n@?$output_processor@DV?$string_output_adapter@D@__crt_stdio_output@@V?$standard_base@DV?$string_output_adapter@D@__crt_stdio_output@@@2@@__crt_stdio_output@@AAE_NXZ 004c9137 f i libucrt:output.obj
 0001:000c81ab       ?type_case_o@?$output_processor@DV?$string_output_adapter@D@__crt_stdio_output@@V?$standard_base@DV?$string_output_adapter@D@__crt_stdio_output@@@2@@__crt_stdio_output@@AAE_NXZ 004c91ab f i libucrt:output.obj
 0001:000c81ca       ?type_case_o@?$output_processor@_WV?$string_output_adapter@_W@__crt_stdio_output@@V?$standard_base@_WV?$string_output_adapter@_W@__crt_stdio_output@@@2@@__crt_stdio_output@@AAE_NXZ 004c91ca f i libucrt:output.obj
 0001:000c81e9       ?type_case_p@?$output_processor@DV?$string_output_adapter@D@__crt_stdio_output@@V?$standard_base@DV?$string_output_adapter@D@__crt_stdio_output@@@2@@__crt_stdio_output@@AAE_NXZ 004c91e9 f i libucrt:output.obj
 0001:000c8201       ?type_case_p@?$output_processor@_WV?$string_output_adapter@_W@__crt_stdio_output@@V?$standard_base@_WV?$string_output_adapter@_W@__crt_stdio_output@@@2@@__crt_stdio_output@@AAE_NXZ 004c9201 f i libucrt:output.obj
 0001:000c8219       ?type_case_s@?$output_processor@DV?$string_output_adapter@D@__crt_stdio_output@@V?$standard_base@DV?$string_output_adapter@D@__crt_stdio_output@@@2@@__crt_stdio_output@@AAE_NXZ 004c9219 f i libucrt:output.obj
 0001:000c828a       ?type_case_s@?$output_processor@_WV?$string_output_adapter@_W@__crt_stdio_output@@V?$standard_base@_WV?$string_output_adapter@_W@__crt_stdio_output@@@2@@__crt_stdio_output@@AAE_NXZ 004c928a f i libucrt:output.obj
 0001:000c82fd       ?type_case_s_compute_narrow_string_length@?$output_processor@_WV?$string_output_adapter@_W@__crt_stdio_output@@V?$standard_base@_WV?$string_output_adapter@_W@__crt_stdio_output@@@2@@__crt_stdio_output@@ABEHH_W@Z 004c92fd f i libucrt:output.obj
 0001:000c8344       ?validate@?$c_string_character_source@D@__crt_strtox@@QBE_NXZ 004c9344 f i libucrt:atox.obj
 0001:000c8344       ?validate@?$string_output_adapter@D@__crt_stdio_output@@QBE_NXZ 004c9344 f i libucrt:output.obj
 0001:000c8344       ?validate@?$string_output_adapter@_W@__crt_stdio_output@@QBE_NXZ 004c9344 f i libucrt:output.obj
 0001:000c8344       ?validate@?$c_string_character_source@_W@__crt_strtox@@QBE_NXZ 004c9344 f i libucrt:atox.obj
 0001:000c835f       ?write_character@?$string_output_adapter@D@__crt_stdio_output@@QBE_NDQAH@Z 004c935f f i libucrt:output.obj
 0001:000c83a1       ?write_character@?$string_output_adapter@_W@__crt_stdio_output@@QBE_N_WQAH@Z 004c93a1 f i libucrt:output.obj
 0001:000c83e6       ?write_stored_string_tchar@?$output_processor@DV?$string_output_adapter@D@__crt_stdio_output@@V?$standard_base@DV?$string_output_adapter@D@__crt_stdio_output@@@2@@__crt_stdio_output@@AAE_ND@Z 004c93e6 f i libucrt:output.obj
 0001:000c848b       ?write_stored_string_tchar@?$output_processor@_WV?$string_output_adapter@_W@__crt_stdio_output@@V?$standard_base@_WV?$string_output_adapter@_W@__crt_stdio_output@@@2@@__crt_stdio_output@@AAE_N_W@Z 004c948b f i libucrt:output.obj
 0001:000c8518       ?write_string@?$string_output_adapter@D@__crt_stdio_output@@QBEXQBDHQAHAAV__crt_deferred_errno_cache@@@Z 004c9518 f i libucrt:output.obj
 0001:000c857f       ?write_string@?$string_output_adapter@_W@__crt_stdio_output@@QBEXQB_WHQAHAAV__crt_deferred_errno_cache@@@Z 004c957f f i libucrt:output.obj
 0001:000c85f0       ___acrt_locale_get_ctype_array_value 004c95f0 f i libucrt:output.obj
 0001:000c8612       ___stdio_common_vsprintf   004c9612 f   libucrt:output.obj
 0001:000c8636       ___stdio_common_vswprintf  004c9636 f   libucrt:output.obj
 0001:000c865a       __time64                   004c965a f   libucrt:time.obj
 0001:000c86b8       ??$is_overflow_condition@K@__crt_strtox@@YA_NIK@Z 004c96b8 f i libucrt:atox.obj
 0001:000c86e9       ??$is_overflow_condition@_K@__crt_strtox@@YA_NI_K@Z 004c96e9 f i libucrt:atox.obj
 0001:000c872a       ??$parse_integer@KV?$c_string_character_source@D@__crt_strtox@@@__crt_strtox@@YAKQAU__crt_locale_pointers@@V?$c_string_character_source@D@0@H_N@Z 004c972a f i libucrt:atox.obj
 0001:000c894d       ??$parse_integer@KV?$c_string_character_source@_W@__crt_strtox@@@__crt_strtox@@YAKQAU__crt_locale_pointers@@V?$c_string_character_source@_W@0@H_N@Z 004c994d f i libucrt:atox.obj
 0001:000c8f55       ??$parse_integer@_KV?$c_string_character_source@_W@__crt_strtox@@@__crt_strtox@@YA_KQAU__crt_locale_pointers@@V?$c_string_character_source@_W@0@H_N@Z 004c9f55 f i libucrt:atox.obj
 0001:000c9626       ?unget@?$c_string_character_source@D@__crt_strtox@@QAEXD@Z 004ca626 f i libucrt:atox.obj
 0001:000c964f       ?unget@?$c_string_character_source@_W@__crt_strtox@@QAEX_W@Z 004ca64f f i libucrt:atox.obj
 0001:000c967d       __ischartype_l             004ca67d f i libucrt:atox.obj
 0001:000c96d1       __wtol                     004ca6d1 f   libucrt:atox.obj
 0001:000c96d1       __wtoi                     004ca6d1 f   libucrt:atox.obj
 0001:000c96f4       __wtoi64                   004ca6f4 f   libucrt:atox.obj
 0001:000c9717       _set_terminate             004ca717 f   libucrt:terminate.obj
 0001:000c9737       _terminate                 004ca737 f   libucrt:terminate.obj
 0001:000c9773       __toupper_l                004ca773 f   libucrt:tolower_toupper.obj
 0001:000c9878       _toupper                   004ca878 f   libucrt:tolower_toupper.obj
 0001:000c98a8       _bsearch                   004ca8a8 f   libucrt:bsearch.obj
 0001:000c996d       ??$make_c_string_character_source@_WPAPA_W@__crt_strtox@@YA?AV?$c_string_character_source@_W@0@QB_WQAPA_W@Z 004ca96d f i libucrt:strtox.obj
 0001:000c996d       ??$make_c_string_character_source@DPAPAD@__crt_strtox@@YA?AV?$c_string_character_source@D@0@QBDQAPAD@Z 004ca96d f i libucrt:strtox.obj
 0001:000c9988       _strtol                    004ca988 f   libucrt:strtox.obj
 0001:000c99b2       _wcstol                    004ca9b2 f   libucrt:strtox.obj
 0001:000c99dc       _wcstoul                   004ca9dc f   libucrt:strtox.obj
 0001:000c9a06       _rand                      004caa06 f   libucrt:rand.obj
 0001:000c9a27       _srand                     004caa27 f   libucrt:rand.obj
 0001:000c9a40       _qsort                     004caa40 f   libucrt:qsort.obj
 0001:000c9f30       ?divide@__crt_strtox@@YA_KAAUbig_integer@1@ABU21@@Z 004caf30 f i libucrt:atof.obj
 0001:000ca449       ___acrt_errno_from_os_error 004cb449 f   libucrt:errno.obj
 0001:000ca48c       ___acrt_errno_map_os_error 004cb48c f   libucrt:errno.obj
 0001:000ca4af       ___doserrno                004cb4af f   libucrt:errno.obj
 0001:000ca4c2       __errno                    004cb4c2 f   libucrt:errno.obj
 0001:000ca4d5       __fpclass                  004cb4d5 f   libucrt:ieeemisc.obj
 0001:000ca579       __isnan                    004cb579 f   libucrt:ieeemisc.obj
 0001:000ca5af       __heapchk                  004cb5af f   libucrt:heapchk.obj
 0001:000ca5ca       __wcsrev                   004cb5ca f   libucrt:wcsrev.obj
 0001:000ca82c       __wsplitpath_s             004cb82c f   libucrt:splitpath.obj
 0001:000ca883       ___acrt_initialize_new_handler 004cb883 f   libucrt:new_handler.obj
 0001:000ca892       __callnewh                 004cb892 f   libucrt:new_handler.obj
 0001:000ca8bf       __query_new_handler        004cb8bf f   libucrt:new_handler.obj
 0001:000ca91b       _malloc                    004cb91b f   libucrt:malloc.obj
 0001:000ca926       __seh_filter_exe           004cb926 f   libucrt:exception_filter.obj
 0001:000caa7e       __query_app_type           004cba7e f   libucrt:report_runtime_error.obj
 0001:000caa84       __set_app_type             004cba84 f   libucrt:report_runtime_error.obj
 0001:000caa93       ??$__crt_fast_encode_pointer@PAX@@YAPAXQAX@Z 004cba93 f i libucrt:initialization.obj
 0001:000caa93       ??$__crt_fast_encode_pointer@PAP6AXXZ@@YAPAP6AXXZQAP6AXXZ@Z 004cba93 f i libucrt:onexit.obj
 0001:000caa93       ??$__crt_fast_encode_pointer@P6GXPAXK0@Z@@YAP6GXPAXK0@ZQ6GX0K0@Z@Z 004cba93 f i libucrt:exit.obj
 0001:000caa93       ??$__crt_fast_encode_pointer@P6AHXZ@@YAP6AHXZQ6AHXZ@Z 004cba93 f i libucrt:onexit.obj
 0001:000caa93       ??$__crt_fast_encode_pointer@P6AHPAU_exception@@@Z@@YAP6AHPAU_exception@@@ZQ6AH0@Z@Z 004cba93 f i libucrt:matherr.obj
 0001:000caab2       ___acrt_has_user_matherr   004cbab2 f   libucrt:matherr.obj
 0001:000caaca       ___acrt_initialize_user_matherr 004cbaca f   libucrt:matherr.obj
 0001:000caae0       ___acrt_invoke_user_matherr 004cbae0 f   libucrt:matherr.obj
 0001:000cab12       ___setusermatherr          004cbb12 f   libucrt:matherr.obj
 0001:000cadd1       ___acrt_allocate_buffer_for_argv 004cbdd1 f   libucrt:argv_parsing.obj
 0001:000cae20       __configure_narrow_argv    004cbe20 f   libucrt:argv_parsing.obj
 0001:000caf7d       ??$uninitialize@A6AXAAPAPA_W@Z@?$dual_state_global@PAPA_W@__crt_state_management@@QAEXA6AXAAPAPA_W@Z@Z 004cbf7d f i libucrt:environment_initialization.obj
 0001:000caf7d       ??$uninitialize@A6AXAAPAPAD@Z@?$dual_state_global@PAPAD@__crt_state_management@@QAEXA6AXAAPAPAD@Z@Z 004cbf7d f i libucrt:environment_initialization.obj
 0001:000cafeb       ___dcrt_uninitialize_environments_nolock 004cbfeb f   libucrt:environment_initialization.obj
 0001:000cb022       __initialize_narrow_environment 004cc022 f   libucrt:environment_initialization.obj
 0001:000cb027       __get_narrow_winmain_command_line 004cc027 f   libucrt:argv_winmain.obj
 0001:000cb07a       __initterm                 004cc07a f   libucrt:initterm.obj
 0001:000cb0bf       __initterm_e               004cc0bf f   libucrt:initterm.obj
 0001:000cb363       ___acrt_initialize_thread_local_exit_callback 004cc363 f   libucrt:exit.obj
 0001:000cb372       __c_exit                   004cc372 f   libucrt:exit.obj
 0001:000cb381       __cexit                    004cc381 f   libucrt:exit.obj
 0001:000cb390       __exit                     004cc390 f   libucrt:exit.obj
 0001:000cb3a6       __register_thread_local_exe_atexit_callback 004cc3a6 f   libucrt:exit.obj
 0001:000cb3cc       _exit                      004cc3cc f   libucrt:exit.obj
 0001:000cb3e2       __set_fmode                004cc3e2 f   libucrt:setmode.obj
 0001:000cb48d       ___acrt_set_locale_changed 004cc48d f   libucrt:wsetlocale.obj
 0001:000cb4a0       ___acrt_uninitialize_locale 004cc4a0 f   libucrt:wsetlocale.obj
 0001:000cb4c7       __configthreadlocale       004cc4c7 f   libucrt:wsetlocale.obj
 0001:000cb529       __query_new_mode           004cc529 f   libucrt:new_mode.obj
 0001:000cb530       __set_new_mode             004cc530 f   libucrt:new_mode.obj
 0001:000cb55f       ___p__commode              004cc55f f   libucrt:ncommode.obj
 0001:000cb565       _free                      004cc565 f   libucrt:free.obj
 0001:000cb839       __crt_atexit               004cc839 f   libucrt:onexit.obj
 0001:000cb84f       __execute_onexit_table     004cc84f f   libucrt:onexit.obj
 0001:000cb87c       __initialize_onexit_table  004cc87c f   libucrt:onexit.obj
 0001:000cb8a5       __register_onexit_function 004cc8a5 f   libucrt:onexit.obj
 0001:000cb9fe       ___acrt_initialize         004cc9fe f   libucrt:initialization.obj
 0001:000cba10       ___acrt_uninitialize       004cca10 f   libucrt:initialization.obj
 0001:000cba40       __controlfp_s              004cca40 f   libucrt:contrlfp.obj
 0001:000cbaa0       _abort                     004ccaa0 f   libucrt:abort.obj
 0001:000cbae4       _strcpy_s                  004ccae4 f   libucrt:strcpy_s.obj
 0001:000cbb3e       _calloc                    004ccb3e f   libucrt:calloc.obj
 0001:000cbb50       _strncmp                   004ccb50 f   libucrt:strncmp.obj
 0001:000cbbc8       _wcsncmp                   004ccbc8 f   libucrt:wcsncmp.obj
 0001:000cbc02       ___acrt_call_reportfault   004ccc02 f   libucrt:invalid_parameter.obj
 0001:000cbd3b       ___acrt_initialize_invalid_parameter_handler 004ccd3b f   libucrt:invalid_parameter.obj
 0001:000cbd4a       __invalid_parameter        004ccd4a f   libucrt:invalid_parameter.obj
 0001:000cbdae       __invalid_parameter_noinfo 004ccdae f   libucrt:invalid_parameter.obj
 0001:000cbdbe       __invoke_watson            004ccdbe f   libucrt:invalid_parameter.obj
 0001:000cbdf2       __free_base                004ccdf2 f   libucrt:free_base.obj
 0001:000cbe2c       __malloc_base              004cce2c f   libucrt:malloc_base.obj
 0001:000cbe7a       __mbtowc_l                 004cce7a f   libucrt:mbtowc.obj
 0001:000cbfbc       _mbtowc                    004ccfbc f   libucrt:mbtowc.obj
 0001:000cbfd6       __wctomb_s_l               004ccfd6 f   libucrt:wctomb.obj
 0001:000cc131       _strnlen                   004cd131 f   libucrt:strnlen.obj
 0001:000cc253       _wcsnlen                   004cd253 f   libucrt:strnlen.obj
 0001:000cc749       ___acrt_getptd             004cd749 f   libucrt:per_thread_data.obj
 0001:000cc806       ___acrt_getptd_head        004cd806 f   libucrt:per_thread_data.obj
 0001:000cc8a0       ___acrt_getptd_noexit      004cd8a0 f   libucrt:per_thread_data.obj
 0001:000cc960       ___acrt_initialize_ptd     004cd960 f   libucrt:per_thread_data.obj
 0001:000cc990       ___acrt_uninitialize_ptd   004cd990 f   libucrt:per_thread_data.obj
 0001:000cc9aa       ___acrt_update_locale_info 004cd9aa f   libucrt:locale_update.obj
 0001:000cc9d7       ___acrt_update_multibyte_info 004cd9d7 f   libucrt:locale_update.obj
 0001:000cca04       ?__acrt_fp_classify@@YA?AW4__acrt_fp_class@@ABN@Z 004cda04 f i libucrt:cvt.obj
 0001:000cd3b7       ___acrt_fp_format          004ce3b7 f   libucrt:cvt.obj
 0001:000cd513       __fileno                   004ce513 f   libucrt:fileno.obj
 0001:000cd540       ___acrt_initialize_stdio   004ce540 f   libucrt:_file.obj
 0001:000cd610       ___acrt_uninitialize_stdio 004ce610 f   libucrt:_file.obj
 0001:000cd65c       __lock_file                004ce65c f   libucrt:_file.obj
 0001:000cd670       __unlock_file              004ce670 f   libucrt:_file.obj
 0001:000cd684       __get_printf_count_output  004ce684 f   libucrt:printf_count_output.obj
 0001:000cd810       ___acrt_initialize_lowio   004ce810 f   libucrt:ioinit.obj
 0001:000cd870       ___acrt_uninitialize_lowio 004ce870 f   libucrt:ioinit.obj
 0001:000cda34       ___acrt_AppPolicyGetProcessTerminationMethodInternal@4 004cea34 f   libucrt:winapi_thunks.obj
 0001:000cda74       ___acrt_AreFileApisANSI@0  004cea74 f   libucrt:winapi_thunks.obj
 0001:000cda93       ___acrt_FlsAlloc@4         004cea93 f   libucrt:winapi_thunks.obj
 0001:000cdad2       ___acrt_FlsFree@4          004cead2 f   libucrt:winapi_thunks.obj
 0001:000cdb11       ___acrt_FlsGetValue@4      004ceb11 f   libucrt:winapi_thunks.obj
 0001:000cdb50       ___acrt_FlsSetValue@8      004ceb50 f   libucrt:winapi_thunks.obj
 0001:000cdb92       ___acrt_InitializeCriticalSectionEx@12 004ceb92 f   libucrt:winapi_thunks.obj
 0001:000cdbdd       ___acrt_LCMapStringEx@36   004cebdd f   libucrt:winapi_thunks.obj
 0001:000cdc3a       ___acrt_LocaleNameToLCID@8 004cec3a f   libucrt:winapi_thunks.obj
 0001:000cdc70       ___acrt_initialize_winapi_thunks 004cec70 f   libucrt:winapi_thunks.obj
 0001:000cdca0       ___acrt_uninitialize_winapi_thunks 004ceca0 f   libucrt:winapi_thunks.obj
 0001:000cdcd6       ___pctype_func             004cecd6 f   libucrt:ctype.obj
 0001:000cdcfa       _iswctype                  004cecfa f   libucrt:iswctype.obj
 0001:000cdd63       __isctype_l                004ced63 f   libucrt:isctype.obj
 0001:000cde2e       __isleadbyte_l             004cee2e f i libucrt:_wctype.obj
 0001:000ce052       ___acrt_LCMapStringA       004cf052 f   libucrt:lcmapstringa.obj
 0001:000ce09b       __freea_crt                004cf09b f i libucrt:lcmapstringa.obj
 0001:000ce0bb       _fegetround                004cf0bb f   libucrt:fegetround.obj
 0001:000ce0c8       __errcode                  004cf0c8 f   libucrt:fpexcept.obj
 0001:000ce0fc       __except1                  004cf0fc f   libucrt:fpexcept.obj
 0001:000ce1ca       __handle_exc               004cf1ca f   libucrt:fpexcept.obj
 0001:000ce3b5       __raise_exc                004cf3b5 f   libucrt:fpexcept.obj
 0001:000ce3d8       __raise_exc_ex             004cf3d8 f   libucrt:fpexcept.obj
 0001:000ce6ce       __set_errno_from_matherr   004cf6ce f   libucrt:fpexcept.obj
 0001:000ce6fd       __umatherr                 004cf6fd f   libucrt:fpexcept.obj
 0001:000ce79d       __decomp                   004cf79d f   libucrt:util.obj
 0001:000ce86f       __set_exp                  004cf86f f   libucrt:util.obj
 0001:000ce89c       __sptype                   004cf89c f   libucrt:util.obj
 0001:000ce8fa       ___set_fpsr_sse2           004cf8fa f   libucrt:fpctrl.obj
 0001:000ce97a       __clrfp                    004cf97a f   libucrt:fpctrl.obj
 0001:000ce98b       __ctrlfp                   004cf98b f   libucrt:fpctrl.obj
 0001:000ce9b5       __set_statfp               004cf9b5 f   libucrt:fpctrl.obj
 0001:000cea0e       __statfp                   004cfa0e f   libucrt:fpctrl.obj
 0001:000cea20       ___acrt_initialize_heap    004cfa20 f   libucrt:heap_handle.obj
 0001:000cea40       ___acrt_uninitialize_heap  004cfa40 f   libucrt:heap_handle.obj
 0001:000ceb15       _wcsncpy_s                 004cfb15 f   libucrt:wcsncpy_s.obj
 0001:000cebd3       _strncpy_s                 004cfbd3 f   libucrt:strncpy_s.obj
 0001:000cec35       __ismbblead                004cfc35 f   libucrt:ismbbyte.obj
 0001:000cec50       ___ascii_strnicmp          004cfc50 f   libucrt:_strnicm.obj
 0001:000cecc0       ___acrt_initialize_locks   004cfcc0 f   libucrt:locks.obj
 0001:000ced01       ___acrt_lock               004cfd01 f   libucrt:locks.obj
 0001:000ced20       ___acrt_uninitialize_locks 004cfd20 f   libucrt:locks.obj
 0001:000ced51       ___acrt_unlock             004cfd51 f   libucrt:locks.obj
 0001:000ced68       __calloc_base              004cfd68 f   libucrt:calloc_base.obj
 0001:000cef69       ??$__acrt_mbs_to_wcs_cp@U__crt_win32_buffer_internal_dynamic_resizing@@@@YAHQBDAAV?$__crt_win32_buffer@_WU__crt_win32_buffer_internal_dynamic_resizing@@@@I@Z 004cff69 f i libucrt:argv_wildcards.obj
 0001:000cf47d       ?__acrt_get_utf8_acp_compatibility_codepage@@YAIXZ 004d047d f i libucrt:argv_wildcards.obj
 0001:000cf4bc       ?_deallocate@?$__crt_win32_buffer@DU__crt_win32_buffer_internal_dynamic_resizing@@@@AAEXXZ 004d04bc f i libucrt:argv_wildcards.obj
 0001:000cf4bc       ?_deallocate@?$__crt_win32_buffer@_WU__crt_win32_buffer_internal_dynamic_resizing@@@@AAEXXZ 004d04bc f i libucrt:argv_wildcards.obj
 0001:000cf4d6       ?allocate@?$__crt_win32_buffer@DU__crt_win32_buffer_internal_dynamic_resizing@@@@QAEHI@Z 004d04d6 f i libucrt:argv_wildcards.obj
 0001:000cf512       ?allocate@?$__crt_win32_buffer@_WU__crt_win32_buffer_internal_dynamic_resizing@@@@QAEHI@Z 004d0512 f i libucrt:argv_wildcards.obj
 0001:000cf551       ?allocate@__crt_win32_buffer_internal_dynamic_resizing@@SAHQAPAXIABV__crt_win32_buffer_empty_debug_info@@@Z 004d0551 f i libucrt:argv_wildcards.obj
 0001:000cf5f7       ___acrt_expand_narrow_argv_wildcards 004d05f7 f   libucrt:argv_wildcards.obj
 0001:000cf6c9       ?allocate@?$__crt_win32_buffer@DU__crt_win32_buffer_no_resizing@@@@QAEHI@Z 004d06c9 f i libucrt:getmodulefilenamea.obj
 0001:000cf6f0       ?set_to_nullptr@?$__crt_win32_buffer@DU__crt_win32_buffer_no_resizing@@@@QAEXXZ 004d06f0 f i libucrt:getmodulefilenamea.obj
 0001:000cf704       ___acrt_GetModuleFileNameA 004d0704 f   libucrt:getmodulefilenamea.obj
 0001:000cfcc0       ___acrt_initialize_multibyte 004d0cc0 f   libucrt:mbctype.obj
 0001:000cfd08       ___acrt_update_thread_multibyte_data 004d0d08 f   libucrt:mbctype.obj
 0001:000cfd1b       __setmbcp_nolock           004d0d1b f   libucrt:mbctype.obj
 0001:000cff10       ___acrt_initialize_command_line 004d0f10 f   libucrt:argv_data.obj
 0001:000cff29       ___acrt_MultiByteToWideChar 004d0f29 f   libucrt:multibytetowidechar.obj
 0001:000cffa5       ___acrt_WideCharToMultiByte 004d0fa5 f   libucrt:widechartomultibyte.obj
 0001:000d0093       ___dcrt_get_narrow_environment_from_os 004d1093 f   libucrt:get_environment_from_os.obj
 0001:000d0117       ___acrt_get_process_end_policy 004d1117 f   libucrt:win_policies.obj
 0001:000d0148       ___acrt_lowio_create_handle_array 004d1148 f   libucrt:osfinfo.obj
 0001:000d01c3       ___acrt_lowio_destroy_handle_array 004d11c3 f   libucrt:osfinfo.obj
 0001:000d01f8       ___acrt_lowio_ensure_fh_exists 004d11f8 f   libucrt:osfinfo.obj
 0001:000d0296       ___acrt_lowio_lock_fh      004d1296 f   libucrt:osfinfo.obj
 0001:000d02b9       ___acrt_lowio_unlock_fh    004d12b9 f   libucrt:osfinfo.obj
 0001:000d02dc       __free_osfhnd              004d12dc f   libucrt:osfinfo.obj
 0001:000d036d       __get_osfhandle            004d136d f   libucrt:osfinfo.obj
 0001:000d03e0       ___acrt_initialize_fmode   004d13e0 f   libucrt:txtmode.obj
 0001:000d03f6       ___acrt_locale_free_monetary 004d13f6 f   libucrt:initmon.obj
 0001:000d04f4       ___acrt_locale_free_numeric 004d14f4 f   libucrt:initnum.obj
 0001:000d0595       ___acrt_locale_free_time   004d1595 f   libucrt:inittime.obj
 0001:000d0679       ___acrt_GetStringTypeA     004d1679 f   libucrt:getstringtypea.obj
 0001:000d077c       ___acrt_add_locale_ref     004d177c f   libucrt:locale_refcounting.obj
 0001:000d07f9       ___acrt_free_locale        004d17f9 f   libucrt:locale_refcounting.obj
 0001:000d0941       ___acrt_locale_add_lc_time_reference 004d1941 f   libucrt:locale_refcounting.obj
 0001:000d096a       ___acrt_locale_free_lc_time_if_unreferenced 004d196a f   libucrt:locale_refcounting.obj
 0001:000d099b       ___acrt_locale_release_lc_time_reference 004d199b f   libucrt:locale_refcounting.obj
 0001:000d09c4       ___acrt_release_locale_ref 004d19c4 f   libucrt:locale_refcounting.obj
 0001:000d0a45       ___acrt_update_thread_locale_data 004d1a45 f   libucrt:locale_refcounting.obj
 0001:000d0ac6       __updatetlocinfoEx_nolock  004d1ac6 f   libucrt:locale_refcounting.obj
 0001:000d0b16       __recalloc_base            004d1b16 f   libucrt:recalloc.obj
 0001:000d0b83       ___acrt_execute_initializers 004d1b83 f   libucrt:shared_initialization.obj
 0001:000d0beb       ___acrt_execute_uninitializers 004d1beb f   libucrt:shared_initialization.obj
 0001:000d0cea       ___acrt_get_sigabrt_handler 004d1cea f   libucrt:signal.obj
 0001:000d0d11       ___acrt_initialize_signal_handlers 004d1d11 f   libucrt:signal.obj
 0001:000d0d2f       _raise                     004d1d2f f   libucrt:signal.obj
 0001:000d10ff       ___acrt_stdio_flush_nolock 004d20ff f   libucrt:fflush.obj
 0001:000d1164       __fflush_nolock            004d2164 f   libucrt:fflush.obj
 0001:000d11ac       __flushall                 004d21ac f   libucrt:fflush.obj
 0001:000d125c       __clearfp                  004d225c f   libucrt:ieee87.obj
 0001:000d133a       __control87                004d233a f   libucrt:ieee87.obj
 0001:000d1705       ?__mbrtowc_utf8@__crt_mbstring@@YAIPA_WPBDIPAU_Mbstatet@@@Z 004d2705 f   libucrt:mbrtowc.obj
 0001:000d1745       ?__mbsrtowcs_utf8@__crt_mbstring@@YAIPA_WPAPBDIPAU_Mbstatet@@@Z 004d2745 f   libucrt:mbrtowc.obj
 0001:000d1840       ?__c32rtomb_utf8@__crt_mbstring@@YAIPAD_UPAU_Mbstatet@@@Z 004d2840 f   libucrt:c32rtomb.obj
 0001:000d18eb       ?return_illegal_sequence@__crt_mbstring@@YAIPAU_Mbstatet@@@Z 004d28eb f i libucrt:c32rtomb.obj
 0001:000d1984       ___acrt_fp_strflt_to_string 004d2984 f   libucrt:_fptostr.obj
 0001:000d1a60       ___acrt_fltout             004d2a60 f   libucrt:cfout.obj
 0001:000d2f67       __fcloseall                004d3f67 f   libucrt:closeall.obj
 0001:000d3012       ___acrt_stdio_free_buffer_nolock 004d4012 f   libucrt:_freebuf.obj
 0001:000d3052       __isatty                   004d4052 f   libucrt:isatty.obj
 0001:000d30f8       ___acrt_DownlevelLocaleNameToLCID 004d40f8 f   libucrt:lcidtoname_downlevel.obj
 0001:000d3124       ___acrt_GetStringTypeW     004d4124 f   libucrt:getstringtypew.obj
 0001:000d313d       ___strncnt                 004d413d f   libucrt:strncnt.obj
 0001:000d3476       ___acrt_fenv_get_common_round_control 004d4476 f   libucrt:_fenvutils.obj
 0001:000d3498       ___acrt_fenv_get_control   004d4498 f   libucrt:_fenvutils.obj
 0001:000d3518       ___acrt_fenv_get_status    004d4518 f   libucrt:_fenvutils.obj
 0001:000d35d0       ___acrt_fenv_set_control   004d45d0 f   libucrt:_fenvutils.obj
 0001:000d3638       ___acrt_fenv_set_status    004d4638 f   libucrt:_fenvutils.obj
 0001:000d3730       _strpbrk                   004d4730 f   libucrt:strpbrk.obj
 0001:000d3770       __mbsdec                   004d4770 f   libucrt:mbsdec.obj
 0001:000d3787       __mbsdec_l                 004d4787 f   libucrt:mbsdec.obj
 0001:000d382f       ___ascii_wcsnicmp          004d482f f   libucrt:wcsnicmp.obj
 0001:000d387e       __msize_base               004d487e f   libucrt:msize.obj
 0001:000d38b1       __realloc_base             004d48b1 f   libucrt:realloc_base.obj
 0001:000d39bc       __commit                   004d49bc f   libucrt:commit.obj
 0001:000d41b4       __write                    004d51b4 f   libucrt:write.obj
 0001:000d42a6       __write_nolock             004d52a6 f   libucrt:write.obj
 0001:000d4480       ?__mbrtoc32_utf8@__crt_mbstring@@YAIPA_UPBDIPAU_Mbstatet@@@Z 004d5480 f   libucrt:mbrtoc32.obj
 0001:000d4627       _fegetenv                  004d5627 f   libucrt:fegetenv.obj
 0001:000d4644       _fesetenv                  004d5644 f   libucrt:fesetenv.obj
 0001:000d468f       _feholdexcept              004d568f f   libucrt:feholdexcept.obj
 0001:000d46e0       __CIlog10                  004d56e0 f   libucrt:log10_impl.obj
 0001:000d471b       __CIlog10_default          004d571b f   libucrt:log10_impl.obj
 0001:000d472f       __log10_default            004d572f     libucrt:log10_impl.obj
 0001:000d47f0       _ceil                      004d57f0 f   libucrt:ceil_pentium4.obj
 0001:000d4830       __ceil_pentium4            004d5830 f   libucrt:ceil_pentium4.obj
 0001:000d4989       __lseeki64_nolock          004d5989 f   libucrt:lseek.obj
 0001:000d49a4       __fclose_nolock            004d59a4 f   libucrt:fclose.obj
 0001:000d4a1b       _fclose                    004d5a1b f   libucrt:fclose.obj
 0001:000d4a9f       __putwch_nolock            004d5a9f f   libucrt:putwch.obj
 0001:000d4ae0       ___acrt_initialize_sse2    004d5ae0 f   libucrt:mathfcns.obj
 0001:000d4af0       __CIlog10_pentium4         004d5af0 f   libucrt:log10_pentium4.obj
 0001:000d4b08       __log10_pentium4           004d5b08     libucrt:log10_pentium4.obj
 0001:000d4da0       __fFEXP                    004d5da0 f   libucrt:87tran.obj
 0001:000d4df7       __rtinfpopse               004d5df7     libucrt:87tran.obj
 0001:000d4df9       __rtinfnpopse              004d5df9     libucrt:87tran.obj
 0001:000d4e09       __fFLN                     004d5e09     libucrt:87tran.obj
 0001:000d4ebe       __rtinfpop                 004d5ebe     libucrt:87tran.obj
 0001:000d4ec0       __rtinfnpop                004d5ec0     libucrt:87tran.obj
 0001:000d4ed0       __rtforexpinf              004d5ed0 f   libucrt:87tran.obj
 0001:000d4edd       __ffexpm1                  004d5edd     libucrt:87tran.obj
 0001:000d4f90       __trandisp1                004d5f90 f   libucrt:87disp.obj
 0001:000d5005       __trandisp2                004d6005 f   libucrt:87disp.obj
 0001:000d509f       __rttospopde               004d609f     libucrt:87disp.obj
 0001:000d50a4       __rttospop                 004d60a4     libucrt:87disp.obj
 0001:000d50b0       __rtnospop                 004d60b0 f   libucrt:87disp.obj
 0001:000d50c0       __rttosnpop                004d60c0 f   libucrt:87disp.obj
 0001:000d50c1       __rtnospopde               004d60c1     libucrt:87disp.obj
 0001:000d50c8       __rtzeropop                004d60c8     libucrt:87disp.obj
 0001:000d50ca       __rtzeronpop               004d60ca     libucrt:87disp.obj
 0001:000d50d0       __rtzerospop               004d60d0 f   libucrt:87disp.obj
 0001:000d50dd       __rtonepop                 004d60dd     libucrt:87disp.obj
 0001:000d50e0       __rtonenpop                004d60e0 f   libucrt:87disp.obj
 0001:000d50f0       __tosnan1                  004d60f0 f   libucrt:87disp.obj
 0001:000d5120       __nosnan2                  004d6120 f   libucrt:87disp.obj
 0001:000d5130       __tosnan2                  004d6130 f   libucrt:87disp.obj
 0001:000d5160       __nan2                     004d6160 f   libucrt:87disp.obj
 0001:000d51a0       __rtindfpop                004d61a0 f   libucrt:87disp.obj
 0001:000d51a2       __rtindfnpop               004d61a2     libucrt:87disp.obj
 0001:000d51b3       __rttosnpopde              004d61b3     libucrt:87disp.obj
 0001:000d51c0       __rtatan2inf               004d61c0 f   libucrt:87disp.obj
 0001:000d51dd       __rtchsifneg               004d61dd     libucrt:87disp.obj
 0001:000d51f0       __twoToTOS                 004d61f0 f   libucrt:common.obj
 0001:000d5205       __load_CW                  004d6205 f   libucrt:common.obj
 0001:000d521c       __convertTOStoQNaN         004d621c f   libucrt:common.obj
 0001:000d5235       __fload_withFB             004d6235 f   libucrt:common.obj
 0001:000d5278       __checkTOS_withFB          004d6278 f   libucrt:common.obj
 0001:000d528e       __fast_exit                004d628e f   libucrt:common.obj
 0001:000d529b       __math_exit                004d629b f   libucrt:common.obj
 0001:000d52c5       __check_overflow_exit      004d62c5 f   libucrt:common.obj
 0001:000d52d9       __check_range_exit         004d62d9 f   libucrt:common.obj
 0001:000d5380       __startTwoArgErrorHandling 004d6380 f   libucrt:genexcep.obj
 0001:000d5397       __startOneArgErrorHandling 004d6397 f   libucrt:genexcep.obj
 0001:000d53d3       ___libm_error_support      004d63d3 f   libucrt:libm_error.obj
 0001:000d55c7       __ceil_default             004d65c7 f   libucrt:ceil.obj
 0001:000d5708       __close                    004d6708 f   libucrt:close.obj
 0001:000d5795       __close_nolock             004d6795 f   libucrt:close.obj
 0001:000d5831       ?__acrt_stdio_free_stream@@YAXV__crt_stdio_stream@@@Z 004d6831 f   libucrt:stream.obj
 0001:000d588b       ___dcrt_lowio_ensure_console_output_initialized 004d688b f   libucrt:initcon.obj
 0001:000d58b0       ___dcrt_terminate_console_output 004d68b0 f   libucrt:initcon.obj
 0001:000d58c7       ___dcrt_write_console      004d68c7 f   libucrt:initcon.obj
 0001:000d591c       __d_inttype                004d691c f   libucrt:powhlp.obj
 0001:000d5984       __powhlp                   004d6984 f   libucrt:powhlp.obj
 0001:000d5aaf       __87except                 004d6aaf f   libucrt:87except.obj
 0001:000d5bb9       __frnd                     004d6bb9 f   libucrt:frnd.obj
 0001:000d5bd0       __FindPESection            004d6bd0 f   LIBCMT:pesect.obj
 0001:000d5c20       __IsNonwritableInCurrentImage 004d6c20 f   LIBCMT:pesect.obj
 0001:000d5ce0       __ValidateImageBase        004d6ce0 f   LIBCMT:pesect.obj
 0001:000d5d11       __EH_prolog3_catch         004d6d11 f   LIBCMT:ehprolg3.obj
 0001:000d5d50       __aulldiv                  004d6d50 f   LIBCMT:ulldiv.obj
 0001:000d5dc0       __aulldvrm                 004d6dc0 f   LIBCMT:ulldvrm.obj
 0001:000d5e60       __alldiv                   004d6e60 f   LIBCMT:lldiv.obj
 0001:000d5f10       __alldvrm                  004d6f10 f   LIBCMT:lldvrm.obj
 0001:000d5ff0       __allmul                   004d6ff0 f   LIBCMT:llmul.obj
 0001:000d6030       __allshl                   004d7030 f   LIBCMT:llshl.obj
 0001:000d6050       __aullshr                  004d7050 f   LIBCMT:ullshr.obj
 0001:000d6070       __alloca_probe_16          004d7070 f   LIBCMT:alloca16.obj
 0001:000d6086       __alloca_probe_8           004d7086     LIBCMT:alloca16.obj
 0001:000d60a0       __ftol2_sse                004d70a0 f   LIBCMT:ftol2.obj
 0001:000d60b0       __ftoi2                    004d70b0 f   LIBCMT:ftol2.obj
 0001:000d6130       __chkstk                   004d7130 f   LIBCMT:chkstk.obj
 0001:000d6130       __alloca_probe             004d7130 f   LIBCMT:chkstk.obj
 0001:000d6160       _strrchr                   004d7160 f   libvcruntime:strrchr.obj
 0001:000d62a0       __filter_x86_sse2_floating_point_exception_default 004d72a0 f   LIBCMT:x86_exception_filter.obj
 0001:000d62a0       __filter_x86_sse2_floating_point_exception 004d72a0 f   LIBCMT:x86_exception_filter.obj
 0001:000d6320       __dtol3                    004d7320 f   LIBCMT:ftol3.obj
 0001:000d63d0       __ultod3                   004d73d0 f   LIBCMT:ftol3.obj
 0001:000d6430       __ltod3                    004d7430 f   LIBCMT:ftol3.obj
 0001:000d6480       __libm_sse2_log_precise    004d7480 f   libucrt:log_sse2_precise.obj
 0001:000d6710       __libm_sse2_pow_precise    004d7710 f   libucrt:pow_sse2_precise.obj
 0001:000d7260       __CIlog                    004d8260 f   libucrt:log_impl.obj
 0001:000d729b       __CIlog_default            004d829b f   libucrt:log_impl.obj
 0001:000d72af       __log_default              004d82af     libucrt:log_impl.obj
 0001:000d7370       __CIpow                    004d8370 f   libucrt:pow_impl.obj
 0001:000d73ab       __CIpow_default            004d83ab f   libucrt:pow_impl.obj
 0001:000d73c4       __pow_default              004d83c4     libucrt:pow_impl.obj
 0001:000d75c0       __CIlog_pentium4           004d85c0 f   libucrt:log_pentium4.obj
 0001:000d75d8       __log_pentium4             004d85d8     libucrt:log_pentium4.obj
 0001:000d7830       __CIpow_pentium4           004d8830 f   libucrt:pow_pentium4.obj
 0001:000d7849       __pow_pentium4             004d8849     libucrt:pow_pentium4.obj
 0002:00000000       __imp__LsaFreeMemory@4     004e8000     advapi32:ADVAPI32.dll
 0002:00000004       __imp__LsaEnumerateAccountRights@16 004e8004     advapi32:ADVAPI32.dll
 0002:00000008       __imp__LsaNtStatusToWinError@4 004e8008     advapi32:ADVAPI32.dll
 0002:0000000c       __imp__LsaOpenPolicy@16    004e800c     advapi32:ADVAPI32.dll
 0002:00000010       __imp__LsaClose@4          004e8010     advapi32:ADVAPI32.dll
 0002:00000014       __imp__LookupAccountNameW@28 004e8014     advapi32:ADVAPI32.dll
 0002:00000018       __imp__CloseEventLog@4     004e8018     advapi32:ADVAPI32.dll
 0002:0000001c       __imp__RevertToSelf@0      004e801c     advapi32:ADVAPI32.dll
 0002:00000020       __imp__ReadEventLogW@28    004e8020     advapi32:ADVAPI32.dll
 0002:00000024       __imp__OpenEventLogW@8     004e8024     advapi32:ADVAPI32.dll
 0002:00000028       __imp__ConvertSidToStringSidW@8 004e8028     advapi32:ADVAPI32.dll
 0002:0000002c       __imp__CryptReleaseContext@8 004e802c     advapi32:ADVAPI32.dll
 0002:00000030       __imp__CryptGetHashParam@20 004e8030     advapi32:ADVAPI32.dll
 0002:00000034       __imp__CryptDestroyHash@4  004e8034     advapi32:ADVAPI32.dll
 0002:00000038       __imp__CryptHashData@16    004e8038     advapi32:ADVAPI32.dll
 0002:0000003c       __imp__EnumServicesStatusW@32 004e803c     advapi32:ADVAPI32.dll
 0002:00000040       __imp__OpenServiceW@12     004e8040     advapi32:ADVAPI32.dll
 0002:00000044       __imp__QueryServiceConfig2W@20 004e8044     advapi32:ADVAPI32.dll
 0002:00000048       __imp__QueryServiceConfigW@16 004e8048     advapi32:ADVAPI32.dll
 0002:0000004c       __imp__OpenSCManagerW@12   004e804c     advapi32:ADVAPI32.dll
 0002:00000050       __imp__CloseServiceHandle@4 004e8050     advapi32:ADVAPI32.dll
 0002:00000054       __imp__RegQueryInfoKeyW@48 004e8054     advapi32:ADVAPI32.dll
 0002:00000058       __imp__CryptCreateHash@20  004e8058     advapi32:ADVAPI32.dll
 0002:0000005c       __imp__CryptAcquireContextW@20 004e805c     advapi32:ADVAPI32.dll
 0002:00000060       __imp__GetSidIdentifierAuthority@4 004e8060     advapi32:ADVAPI32.dll
 0002:00000064       __imp__RegQueryValueExW@24 004e8064     advapi32:ADVAPI32.dll
 0002:00000068       __imp__FreeSid@4           004e8068     advapi32:ADVAPI32.dll
 0002:0000006c       __imp__IsValidSid@4        004e806c     advapi32:ADVAPI32.dll
 0002:00000070       __imp__InitializeSid@12    004e8070     advapi32:ADVAPI32.dll
 0002:00000074       __imp__GetSidSubAuthority@8 004e8074     advapi32:ADVAPI32.dll
 0002:00000078       __imp__AllocateAndInitializeSid@44 004e8078     advapi32:ADVAPI32.dll
 0002:0000007c       __imp__GetSidSubAuthorityCount@4 004e807c     advapi32:ADVAPI32.dll
 0002:00000080       __imp__EqualSid@8          004e8080     advapi32:ADVAPI32.dll
 0002:00000084       __imp__RegEnumKeyExW@32    004e8084     advapi32:ADVAPI32.dll
 0002:00000088       __imp__IsTextUnicode@12    004e8088     advapi32:ADVAPI32.dll
 0002:0000008c       __imp__ImpersonateAnonymousToken@4 004e808c     advapi32:ADVAPI32.dll
 0002:00000090       __imp__LsaEnumerateAccountsWithUserRight@16 004e8090     advapi32:ADVAPI32.dll
 0002:00000094       __imp__RegOpenKeyExW@20    004e8094     advapi32:ADVAPI32.dll
 0002:00000098       __imp__LookupPrivilegeDisplayNameW@20 004e8098     advapi32:ADVAPI32.dll
 0002:0000009c       __imp__LsaQueryInformationPolicy@12 004e809c     advapi32:ADVAPI32.dll
 0002:000000a0       __imp__GetUserNameW@8      004e80a0     advapi32:ADVAPI32.dll
 0002:000000a4       __imp__RegEnumValueW@32    004e80a4     advapi32:ADVAPI32.dll
 0002:000000a8       __imp__LookupPrivilegeValueW@12 004e80a8     advapi32:ADVAPI32.dll
 0002:000000ac       __imp__AdjustTokenPrivileges@24 004e80ac     advapi32:ADVAPI32.dll
 0002:000000b0       __imp__LookupPrivilegeNameW@16 004e80b0     advapi32:ADVAPI32.dll
 0002:000000b4       __imp__ImpersonateSelf@4   004e80b4     advapi32:ADVAPI32.dll
 0002:000000b8       __imp__OpenProcessToken@12 004e80b8     advapi32:ADVAPI32.dll
 0002:000000bc       __imp__OpenThreadToken@16  004e80bc     advapi32:ADVAPI32.dll
 0002:000000c0       __imp__GetTokenInformation@20 004e80c0     advapi32:ADVAPI32.dll
 0002:000000c4       __imp__GetSecurityDescriptorDacl@16 004e80c4     advapi32:ADVAPI32.dll
 0002:000000c8       __imp__GetAce@12           004e80c8     advapi32:ADVAPI32.dll
 0002:000000cc       __imp__GetNamedSecurityInfoW@32 004e80cc     advapi32:ADVAPI32.dll
 0002:000000d0       __imp__GetSecurityDescriptorOwner@12 004e80d0     advapi32:ADVAPI32.dll
 0002:000000d4       __imp__LookupAccountSidW@28 004e80d4     advapi32:ADVAPI32.dll
 0002:000000d8       __imp__RegCloseKey@4       004e80d8     advapi32:ADVAPI32.dll
 0002:000000dc       \177ADVAPI32_NULL_THUNK_DATA 004e80dc     advapi32:ADVAPI32.dll
 0002:000000e0       __imp__ChooseFontW@4       004e80e0     comdlg32:COMDLG32.dll
 0002:000000e4       __imp__CommDlgExtendedError@0 004e80e4     comdlg32:COMDLG32.dll
 0002:000000e8       __imp__GetSaveFileNameW@4  004e80e8     comdlg32:COMDLG32.dll
 0002:000000ec       __imp__GetOpenFileNameW@4  004e80ec     comdlg32:COMDLG32.dll
 0002:000000f0       \177COMDLG32_NULL_THUNK_DATA 004e80f0     comdlg32:COMDLG32.dll
 0002:000000f4       __imp__TextOutW@20         004e80f4     gdi32:GDI32.dll
 0002:000000f8       __imp__Polygon@12          004e80f8     gdi32:GDI32.dll
 0002:000000fc       __imp__ExcludeClipRect@20  004e80fc     gdi32:GDI32.dll
 0002:00000100       __imp__Arc@36              004e8100     gdi32:GDI32.dll
 0002:00000104       __imp__BeginPath@4         004e8104     gdi32:GDI32.dll
 0002:00000108       __imp__GetDeviceCaps@8     004e8108     gdi32:GDI32.dll
 0002:0000010c       __imp__DeleteObject@4      004e810c     gdi32:GDI32.dll
 0002:00000110       __imp__GetObjectW@12       004e8110     gdi32:GDI32.dll
 0002:00000114       __imp__DeleteDC@4          004e8114     gdi32:GDI32.dll
 0002:00000118       __imp__SetPixelV@16        004e8118     gdi32:GDI32.dll
 0002:0000011c       __imp__GetPixel@12         004e811c     gdi32:GDI32.dll
 0002:00000120       __imp__GetTextMetricsW@8   004e8120     gdi32:GDI32.dll
 0002:00000124       __imp__GetStockObject@4    004e8124     gdi32:GDI32.dll
 0002:00000128       __imp__CreateCompatibleDC@4 004e8128     gdi32:GDI32.dll
 0002:0000012c       __imp__SelectObject@8      004e812c     gdi32:GDI32.dll
 0002:00000130       __imp__CreateCompatibleBitmap@12 004e8130     gdi32:GDI32.dll
 0002:00000134       __imp__BitBlt@36           004e8134     gdi32:GDI32.dll
 0002:00000138       __imp__GetCurrentObject@8  004e8138     gdi32:GDI32.dll
 0002:0000013c       __imp__CreateFontIndirectW@4 004e813c     gdi32:GDI32.dll
 0002:00000140       __imp__CreateSolidBrush@4  004e8140     gdi32:GDI32.dll
 0002:00000144       __imp__RestoreDC@8         004e8144     gdi32:GDI32.dll
 0002:00000148       __imp__SetBkColor@8        004e8148     gdi32:GDI32.dll
 0002:0000014c       __imp__MoveToEx@16         004e814c     gdi32:GDI32.dll
 0002:00000150       __imp__CreatePen@12        004e8150     gdi32:GDI32.dll
 0002:00000154       __imp__LineTo@12           004e8154     gdi32:GDI32.dll
 0002:00000158       __imp__SetBkMode@8         004e8158     gdi32:GDI32.dll
 0002:0000015c       __imp__SetTextColor@8      004e815c     gdi32:GDI32.dll
 0002:00000160       __imp__GetTextExtentPoint32W@16 004e8160     gdi32:GDI32.dll
 0002:00000164       __imp__SaveDC@4            004e8164     gdi32:GDI32.dll
 0002:00000168       __imp__SetDCPenColor@8     004e8168     gdi32:GDI32.dll
 0002:0000016c       __imp__SetMapMode@8        004e816c     gdi32:GDI32.dll
 0002:00000170       __imp__SelectClipRgn@8     004e8170     gdi32:GDI32.dll
 0002:00000174       __imp__Rectangle@20        004e8174     gdi32:GDI32.dll
 0002:00000178       __imp__EndPath@4           004e8178     gdi32:GDI32.dll
 0002:0000017c       __imp__CreateRectRgn@16    004e817c     gdi32:GDI32.dll
 0002:00000180       __imp__PathToRegion@4      004e8180     gdi32:GDI32.dll
 0002:00000184       \177GDI32_NULL_THUNK_DATA  004e8184     gdi32:GDI32.dll
 0002:00000188       __imp__GetTcpTable@12      004e8188     IPHlpApi:IPHLPAPI.DLL
 0002:0000018c       __imp__GetExtendedTcpTable@24 004e818c     IPHlpApi:IPHLPAPI.DLL
 0002:00000190       __imp__GetUdpTable@12      004e8190     IPHlpApi:IPHLPAPI.DLL
 0002:00000194       __imp__GetIpForwardTable@12 004e8194     IPHlpApi:IPHLPAPI.DLL
 0002:00000198       __imp__GetAdaptersAddresses@20 004e8198     IPHlpApi:IPHLPAPI.DLL
 0002:0000019c       __imp__GetIpAddrTable@12   004e819c     IPHlpApi:IPHLPAPI.DLL
 0002:000001a0       __imp__GetExtendedUdpTable@24 004e81a0     IPHlpApi:IPHLPAPI.DLL
 0002:000001a4       \177IPHLPAPI_NULL_THUNK_DATA 004e81a4     IPHlpApi:IPHLPAPI.DLL
 0002:000001a8       __imp__MultiByteToWideChar@24 004e81a8     kernel32:KERNEL32.dll
 0002:000001ac       __imp__FormatMessageW@28   004e81ac     kernel32:KERNEL32.dll
 0002:000001b0       __imp__FileTimeToSystemTime@8 004e81b0     kernel32:KERNEL32.dll
 0002:000001b4       __imp__FileTimeToLocalFileTime@8 004e81b4     kernel32:KERNEL32.dll
 0002:000001b8       __imp__GetTimeFormatW@24   004e81b8     kernel32:KERNEL32.dll
 0002:000001bc       __imp__FreeLibrary@4       004e81bc     kernel32:KERNEL32.dll
 0002:000001c0       __imp__WideCharToMultiByte@32 004e81c0     kernel32:KERNEL32.dll
 0002:000001c4       __imp__GetDateFormatW@24   004e81c4     kernel32:KERNEL32.dll
 0002:000001c8       __imp__LoadLibraryExW@12   004e81c8     kernel32:KERNEL32.dll
 0002:000001cc       __imp__SizeofResource@8    004e81cc     kernel32:KERNEL32.dll
 0002:000001d0       __imp__ExpandEnvironmentStringsW@12 004e81d0     kernel32:KERNEL32.dll
 0002:000001d4       __imp__GetModuleFileNameW@12 004e81d4     kernel32:KERNEL32.dll
 0002:000001d8       __imp__LockResource@4      004e81d8     kernel32:KERNEL32.dll
 0002:000001dc       __imp__LoadResource@8      004e81dc     kernel32:KERNEL32.dll
 0002:000001e0       __imp__FindResourceW@12    004e81e0     kernel32:KERNEL32.dll
 0002:000001e4       __imp__ExitProcess@4       004e81e4     kernel32:KERNEL32.dll
 0002:000001e8       __imp__GetCurrentThreadId@0 004e81e8     kernel32:KERNEL32.dll
 0002:000001ec       __imp__VirtualQuery@12     004e81ec     kernel32:KERNEL32.dll
 0002:000001f0       __imp__GetEnvironmentVariableW@12 004e81f0     kernel32:KERNEL32.dll
 0002:000001f4       __imp__GetSystemDirectoryW@8 004e81f4     kernel32:KERNEL32.dll
 0002:000001f8       __imp__GetComputerNameExW@12 004e81f8     kernel32:KERNEL32.dll
 0002:000001fc       __imp__lstrcmpW@8          004e81fc     kernel32:KERNEL32.dll
 0002:00000200       __imp__GetComputerNameW@8  004e8200     kernel32:KERNEL32.dll
 0002:00000204       __imp__IsWow64Process@8    004e8204     kernel32:KERNEL32.dll
 0002:00000208       __imp__GetACP@0            004e8208     kernel32:KERNEL32.dll
 0002:0000020c       __imp__GetSystemInfo@4     004e820c     kernel32:KERNEL32.dll
 0002:00000210       __imp__CreateDirectoryW@8  004e8210     kernel32:KERNEL32.dll
 0002:00000214       __imp__FindFirstFileW@8    004e8214     kernel32:KERNEL32.dll
 0002:00000218       __imp__FindNextFileW@8     004e8218     kernel32:KERNEL32.dll
 0002:0000021c       __imp__GetTempPathW@8      004e821c     kernel32:KERNEL32.dll
 0002:00000220       __imp__FindClose@4         004e8220     kernel32:KERNEL32.dll
 0002:00000224       __imp__SetLastError@4      004e8224     kernel32:KERNEL32.dll
 0002:00000228       __imp__TryEnterCriticalSection@4 004e8228     kernel32:KERNEL32.dll
 0002:0000022c       __imp__EnterCriticalSection@4 004e822c     kernel32:KERNEL32.dll
 0002:00000230       __imp__LeaveCriticalSection@4 004e8230     kernel32:KERNEL32.dll
 0002:00000234       __imp__InitializeCriticalSection@4 004e8234     kernel32:KERNEL32.dll
 0002:00000238       __imp__DeleteCriticalSection@4 004e8238     kernel32:KERNEL32.dll
 0002:0000023c       __imp__WaitForSingleObject@8 004e823c     kernel32:KERNEL32.dll
 0002:00000240       __imp__CreateEventW@16     004e8240     kernel32:KERNEL32.dll
 0002:00000244       __imp__GetExitCodeThread@8 004e8244     kernel32:KERNEL32.dll
 0002:00000248       __imp__CreateThread@24     004e8248     kernel32:KERNEL32.dll
 0002:0000024c       __imp__MulDiv@12           004e824c     kernel32:KERNEL32.dll
 0002:00000250       __imp__GetCurrentDirectoryW@8 004e8250     kernel32:KERNEL32.dll
 0002:00000254       __imp__GetUserDefaultLangID@0 004e8254     kernel32:KERNEL32.dll
 0002:00000258       __imp__LoadLibraryW@4      004e8258     kernel32:KERNEL32.dll
 0002:0000025c       __imp__WriteFile@20        004e825c     kernel32:KERNEL32.dll
 0002:00000260       __imp__IsValidCodePage@4   004e8260     kernel32:KERNEL32.dll
 0002:00000264       __imp__FindFirstFileExW@24 004e8264     kernel32:KERNEL32.dll
 0002:00000268       __imp__GetProcessHeap@0    004e8268     kernel32:KERNEL32.dll
 0002:0000026c       __imp__LCMapStringW@24     004e826c     kernel32:KERNEL32.dll
 0002:00000270       __imp__GetFileType@4       004e8270     kernel32:KERNEL32.dll
 0002:00000274       __imp__HeapAlloc@12        004e8274     kernel32:KERNEL32.dll
 0002:00000278       __imp__HeapFree@12         004e8278     kernel32:KERNEL32.dll
 0002:0000027c       __imp__GetFileTime@16      004e827c     kernel32:KERNEL32.dll
 0002:00000280       __imp__GetStdHandle@4      004e8280     kernel32:KERNEL32.dll
 0002:00000284       __imp__HeapValidate@12     004e8284     kernel32:KERNEL32.dll
 0002:00000288       __imp__TlsFree@4           004e8288     kernel32:KERNEL32.dll
 0002:0000028c       __imp__TlsSetValue@8       004e828c     kernel32:KERNEL32.dll
 0002:00000290       __imp__TlsGetValue@4       004e8290     kernel32:KERNEL32.dll
 0002:00000294       __imp__TlsAlloc@0          004e8294     kernel32:KERNEL32.dll
 0002:00000298       __imp__InitializeCriticalSectionAndSpinCount@8 004e8298     kernel32:KERNEL32.dll
 0002:0000029c       __imp__EncodePointer@4     004e829c     kernel32:KERNEL32.dll
 0002:000002a0       __imp__RaiseException@16   004e82a0     kernel32:KERNEL32.dll
 0002:000002a4       __imp__RtlUnwind@16        004e82a4     kernel32:KERNEL32.dll
 0002:000002a8       __imp__GetStartupInfoW@4   004e82a8     kernel32:KERNEL32.dll
 0002:000002ac       __imp__IsDebuggerPresent@0 004e82ac     kernel32:KERNEL32.dll
 0002:000002b0       __imp__InitializeSListHead@4 004e82b0     kernel32:KERNEL32.dll
 0002:000002b4       __imp__GetSystemTimeAsFileTime@4 004e82b4     kernel32:KERNEL32.dll
 0002:000002b8       __imp__GetCurrentProcessId@0 004e82b8     kernel32:KERNEL32.dll
 0002:000002bc       __imp__TerminateProcess@8  004e82bc     kernel32:KERNEL32.dll
 0002:000002c0       __imp__UnhandledExceptionFilter@4 004e82c0     kernel32:KERNEL32.dll
 0002:000002c4       __imp__GetFileSizeEx@8     004e82c4     kernel32:KERNEL32.dll
 0002:000002c8       __imp__ReadFile@20         004e82c8     kernel32:KERNEL32.dll
 0002:000002cc       __imp__GetModuleHandleW@4  004e82cc     kernel32:KERNEL32.dll
 0002:000002d0       __imp__GetProcAddress@8    004e82d0     kernel32:KERNEL32.dll
 0002:000002d4       __imp__GetSystemDefaultLangID@0 004e82d4     kernel32:KERNEL32.dll
 0002:000002d8       __imp__Module32FirstW@8    004e82d8     kernel32:KERNEL32.dll
 0002:000002dc       __imp__Process32FirstW@8   004e82dc     kernel32:KERNEL32.dll
 0002:000002e0       __imp__K32GetProcessMemoryInfo@12 004e82e0     kernel32:KERNEL32.dll
 0002:000002e4       __imp__Process32NextW@8    004e82e4     kernel32:KERNEL32.dll
 0002:000002e8       __imp__CreateToolhelp32Snapshot@8 004e82e8     kernel32:KERNEL32.dll
 0002:000002ec       __imp__OpenProcess@12      004e82ec     kernel32:KERNEL32.dll
 0002:000002f0       __imp__CompareStringW@24   004e82f0     kernel32:KERNEL32.dll
 0002:000002f4       __imp__GetTickCount64@0    004e82f4     kernel32:KERNEL32.dll
 0002:000002f8       __imp__LocalFree@4         004e82f8     kernel32:KERNEL32.dll
 0002:000002fc       __imp__SetUnhandledExceptionFilter@4 004e82fc     kernel32:KERNEL32.dll
 0002:00000300       __imp__GetCommandLineW@0   004e8300     kernel32:KERNEL32.dll
 0002:00000304       __imp__GetDriveTypeW@4     004e8304     kernel32:KERNEL32.dll
 0002:00000308       __imp__GetDiskFreeSpaceExW@16 004e8308     kernel32:KERNEL32.dll
 0002:0000030c       __imp__SetErrorMode@4      004e830c     kernel32:KERNEL32.dll
 0002:00000310       __imp__GetDiskFreeSpaceW@20 004e8310     kernel32:KERNEL32.dll
 0002:00000314       __imp__GetLogicalDrives@0  004e8314     kernel32:KERNEL32.dll
 0002:00000318       __imp__GetVolumeInformationW@32 004e8318     kernel32:KERNEL32.dll
 0002:0000031c       __imp__CreateFileW@28      004e831c     kernel32:KERNEL32.dll
 0002:00000320       __imp__DeviceIoControl@32  004e8320     kernel32:KERNEL32.dll
 0002:00000324       __imp__lstrcmpiW@8         004e8324     kernel32:KERNEL32.dll
 0002:00000328       __imp__QueryPerformanceCounter@4 004e8328     kernel32:KERNEL32.dll
 0002:0000032c       __imp__IsProcessorFeaturePresent@4 004e832c     kernel32:KERNEL32.dll
 0002:00000330       __imp__GetPriorityClass@4  004e8330     kernel32:KERNEL32.dll
 0002:00000334       __imp__GetNativeSystemInfo@4 004e8334     kernel32:KERNEL32.dll
 0002:00000338       __imp__GetEnvironmentStringsW@0 004e8338     kernel32:KERNEL32.dll
 0002:0000033c       __imp__GetSystemTime@4     004e833c     kernel32:KERNEL32.dll
 0002:00000340       __imp__GlobalMemoryStatusEx@4 004e8340     kernel32:KERNEL32.dll
 0002:00000344       __imp__GetLocalTime@4      004e8344     kernel32:KERNEL32.dll
 0002:00000348       __imp__GetLastError@0      004e8348     kernel32:KERNEL32.dll
 0002:0000034c       __imp__GetTimeZoneInformation@4 004e834c     kernel32:KERNEL32.dll
 0002:00000350       __imp__FreeEnvironmentStringsW@4 004e8350     kernel32:KERNEL32.dll
 0002:00000354       __imp__GetLocaleInfoW@16   004e8354     kernel32:KERNEL32.dll
 0002:00000358       __imp__GetOEMCP@0          004e8358     kernel32:KERNEL32.dll
 0002:0000035c       __imp__GetCPInfo@8         004e835c     kernel32:KERNEL32.dll
 0002:00000360       __imp__GetCommandLineA@0   004e8360     kernel32:KERNEL32.dll
 0002:00000364       __imp__SetStdHandle@8      004e8364     kernel32:KERNEL32.dll
 0002:00000368       __imp__GetStringTypeW@16   004e8368     kernel32:KERNEL32.dll
 0002:0000036c       __imp__FlushFileBuffers@4  004e836c     kernel32:KERNEL32.dll
 0002:00000370       __imp__SetFilePointerEx@20 004e8370     kernel32:KERNEL32.dll
 0002:00000374       __imp__CloseHandle@4       004e8374     kernel32:KERNEL32.dll
 0002:00000378       __imp__DeleteFileW@4       004e8378     kernel32:KERNEL32.dll
 0002:0000037c       __imp__GetFileAttributesW@4 004e837c     kernel32:KERNEL32.dll
 0002:00000380       __imp__GetCurrentProcess@0 004e8380     kernel32:KERNEL32.dll
 0002:00000384       __imp__GetModuleHandleExW@12 004e8384     kernel32:KERNEL32.dll
 0002:00000388       __imp__SetFilePointer@16   004e8388     kernel32:KERNEL32.dll
 0002:0000038c       __imp__HeapSize@12         004e838c     kernel32:KERNEL32.dll
 0002:00000390       __imp__HeapReAlloc@16      004e8390     kernel32:KERNEL32.dll
 0002:00000394       __imp__GetConsoleOutputCP@0 004e8394     kernel32:KERNEL32.dll
 0002:00000398       __imp__GetConsoleMode@8    004e8398     kernel32:KERNEL32.dll
 0002:0000039c       __imp__GetThreadPriority@4 004e839c     kernel32:KERNEL32.dll
 0002:000003a0       __imp__QueryPerformanceFrequency@4 004e83a0     kernel32:KERNEL32.dll
 0002:000003a4       __imp__GetCurrentThread@0  004e83a4     kernel32:KERNEL32.dll
 0002:000003a8       __imp__Sleep@4             004e83a8     kernel32:KERNEL32.dll
 0002:000003ac       __imp__GetProcessAffinityMask@12 004e83ac     kernel32:KERNEL32.dll
 0002:000003b0       __imp__SetThreadPriority@8 004e83b0     kernel32:KERNEL32.dll
 0002:000003b4       __imp__SetPriorityClass@8  004e83b4     kernel32:KERNEL32.dll
 0002:000003b8       __imp__SetThreadAffinityMask@8 004e83b8     kernel32:KERNEL32.dll
 0002:000003bc       __imp__SetEvent@4          004e83bc     kernel32:KERNEL32.dll
 0002:000003c0       __imp__SetCurrentDirectoryW@4 004e83c0     kernel32:KERNEL32.dll
 0002:000003c4       __imp__WaitForMultipleObjects@16 004e83c4     kernel32:KERNEL32.dll
 0002:000003c8       __imp__DecodePointer@4     004e83c8     kernel32:KERNEL32.dll
 0002:000003cc       __imp__GetWindowsDirectoryW@8 004e83cc     kernel32:KERNEL32.dll
 0002:000003d0       __imp__WriteConsoleW@20    004e83d0     kernel32:KERNEL32.dll
 0002:000003d4       \177KERNEL32_NULL_THUNK_DATA 004e83d4     kernel32:KERNEL32.dll
 0002:000003d8       __imp__WNetOpenEnumW@20    004e83d8     Mpr:MPR.dll
 0002:000003dc       __imp__WNetEnumResourceW@16 004e83dc     Mpr:MPR.dll
 0002:000003e0       __imp__WNetCloseEnum@4     004e83e0     Mpr:MPR.dll
 0002:000003e4       \177MPR_NULL_THUNK_DATA    004e83e4     Mpr:MPR.dll
 0002:000003e8       __imp__GradientFill@24     004e83e8     MSImg32:MSIMG32.dll
 0002:000003ec       __imp__TransparentBlt@44   004e83ec     MSImg32:MSIMG32.dll
 0002:000003f0       \177MSIMG32_NULL_THUNK_DATA 004e83f0     MSImg32:MSIMG32.dll
 0002:000003f4       __imp__NetGroupGetInfo@16  004e83f4     NetAPI32:NETAPI32.dll
 0002:000003f8       __imp__NetUserGetGroups@28 004e83f8     NetAPI32:NETAPI32.dll
 0002:000003fc       __imp__NetLocalGroupGetMembers@32 004e83fc     NetAPI32:NETAPI32.dll
 0002:00000400       __imp__NetUserModalsGet@12 004e8400     NetAPI32:NETAPI32.dll
 0002:00000404       __imp__NetShareGetInfo@16  004e8404     NetAPI32:NETAPI32.dll
 0002:00000408       __imp__NetShareEnum@28     004e8408     NetAPI32:NETAPI32.dll
 0002:0000040c       __imp__NetFileEnum@36      004e840c     NetAPI32:NETAPI32.dll
 0002:00000410       __imp__NetSessionEnum@36   004e8410     NetAPI32:NETAPI32.dll
 0002:00000414       __imp__NetLocalGroupGetInfo@16 004e8414     NetAPI32:NETAPI32.dll
 0002:00000418       __imp__NetQueryDisplayInformation@28 004e8418     NetAPI32:NETAPI32.dll
 0002:0000041c       __imp__NetLocalGroupEnum@28 004e841c     NetAPI32:NETAPI32.dll
 0002:00000420       __imp__NetGroupGetUsers@32 004e8420     NetAPI32:NETAPI32.dll
 0002:00000424       __imp__NetServerGetInfo@12 004e8424     NetAPI32:NETAPI32.dll
 0002:00000428       __imp__DsGetSiteNameW@8    004e8428     NetAPI32:NETAPI32.dll
 0002:0000042c       __imp__NetApiBufferFree@4  004e842c     NetAPI32:NETAPI32.dll
 0002:00000430       __imp__NetWkstaGetInfo@12  004e8430     NetAPI32:NETAPI32.dll
 0002:00000434       __imp__NetUserGetInfo@16   004e8434     NetAPI32:NETAPI32.dll
 0002:00000438       __imp__NetUserGetLocalGroups@32 004e8438     NetAPI32:NETAPI32.dll
 0002:0000043c       \177NETAPI32_NULL_THUNK_DATA 004e843c     NetAPI32:NETAPI32.dll
 0002:00000440       __imp__SQLSetEnvAttr@16    004e8440     odbc32:ODBC32.dll
 0002:00000444       __imp__SQLDescribeColW@36  004e8444     odbc32:ODBC32.dll
 0002:00000448       __imp__SQLFetchScroll@12   004e8448     odbc32:ODBC32.dll
 0002:0000044c       __imp__SQLNumResultCols@8  004e844c     odbc32:ODBC32.dll
 0002:00000450       __imp__SQLBindCol@24       004e8450     odbc32:ODBC32.dll
 0002:00000454       __imp__SQLExecDirectW@12   004e8454     odbc32:ODBC32.dll
 0002:00000458       __imp__SQLFreeStmt@8       004e8458     odbc32:ODBC32.dll
 0002:0000045c       __imp__SQLDisconnect@4     004e845c     odbc32:ODBC32.dll
 0002:00000460       __imp__SQLGetStmtAttrW@20  004e8460     odbc32:ODBC32.dll
 0002:00000464       __imp__SQLDriverConnectW@32 004e8464     odbc32:ODBC32.dll
 0002:00000468       __imp__SQLDataSourcesW@32  004e8468     odbc32:ODBC32.dll
 0002:0000046c       __imp__SQLBulkOperations@8 004e846c     odbc32:ODBC32.dll
 0002:00000470       __imp__SQLFetch@4          004e8470     odbc32:ODBC32.dll
 0002:00000474       __imp__SQLSetConnectAttrW@16 004e8474     odbc32:ODBC32.dll
 0002:00000478       __imp__SQLGetTypeInfoW@8   004e8478     odbc32:ODBC32.dll
 0002:0000047c       __imp__SQLGetInfoW@20      004e847c     odbc32:ODBC32.dll
 0002:00000480       __imp__SQLAllocHandle@12   004e8480     odbc32:ODBC32.dll
 0002:00000484       __imp__SQLEndTran@12       004e8484     odbc32:ODBC32.dll
 0002:00000488       __imp__SQLSetDescFieldW@20 004e8488     odbc32:ODBC32.dll
 0002:0000048c       __imp__SQLRowCount@8       004e848c     odbc32:ODBC32.dll
 0002:00000490       __imp__SQLColAttributeW@28 004e8490     odbc32:ODBC32.dll
 0002:00000494       __imp__SQLSetStmtAttrW@16  004e8494     odbc32:ODBC32.dll
 0002:00000498       __imp__SQLFreeHandle@8     004e8498     odbc32:ODBC32.dll
 0002:0000049c       __imp__SQLDriversW@32      004e849c     odbc32:ODBC32.dll
 0002:000004a0       __imp__SQLGetConnectAttrW@20 004e84a0     odbc32:ODBC32.dll
 0002:000004a4       __imp__SQLGetDiagRecW@32   004e84a4     odbc32:ODBC32.dll
 0002:000004a8       \177ODBC32_NULL_THUNK_DATA 004e84a8     odbc32:ODBC32.dll
 0002:000004ac       __imp__VariantClear@4      004e84ac     oleaut32:OLEAUT32.dll
 0002:000004b0       __imp__SafeArrayDestroy@4  004e84b0     oleaut32:OLEAUT32.dll
 0002:000004b4       __imp__SysAllocString@4    004e84b4     oleaut32:OLEAUT32.dll
 0002:000004b8       __imp__SysFreeString@4     004e84b8     oleaut32:OLEAUT32.dll
 0002:000004bc       __imp__SafeArrayGetUBound@12 004e84bc     oleaut32:OLEAUT32.dll
 0002:000004c0       __imp__SafeArrayGetElement@12 004e84c0     oleaut32:OLEAUT32.dll
 0002:000004c4       __imp__SafeArrayGetLBound@12 004e84c4     oleaut32:OLEAUT32.dll
 0002:000004c8       __imp__VariantTimeToSystemTime@12 004e84c8     oleaut32:OLEAUT32.dll
 0002:000004cc       __imp__VariantInit@4       004e84cc     oleaut32:OLEAUT32.dll
 0002:000004d0       __imp__GetErrorInfo@8      004e84d0     oleaut32:OLEAUT32.dll
 0002:000004d4       \177OLEAUT32_NULL_THUNK_DATA 004e84d4     oleaut32:OLEAUT32.dll
 0002:000004d8       __imp__SetupDiGetDeviceRegistryPropertyW@28 004e84d8     SetupAPI:SETUPAPI.dll
 0002:000004dc       __imp__SetupDiEnumDeviceInfo@12 004e84dc     SetupAPI:SETUPAPI.dll
 0002:000004e0       __imp__SetupDiGetDeviceInstanceIdW@20 004e84e0     SetupAPI:SETUPAPI.dll
 0002:000004e4       __imp__SetupDiGetClassDescriptionW@16 004e84e4     SetupAPI:SETUPAPI.dll
 0002:000004e8       __imp__CM_Get_DevNode_Status@16 004e84e8     SetupAPI:SETUPAPI.dll
 0002:000004ec       __imp__SetupDiDestroyDeviceInfoList@4 004e84ec     SetupAPI:SETUPAPI.dll
 0002:000004f0       __imp__SetupDiGetClassDevsW@16 004e84f0     SetupAPI:SETUPAPI.dll
 0002:000004f4       \177SETUPAPI_NULL_THUNK_DATA 004e84f4     SetupAPI:SETUPAPI.dll
 0002:000004f8       __imp__ExtractIconW@12     004e84f8     shell32:SHELL32.dll
 0002:000004fc       __imp__ShellExecuteW@24    004e84fc     shell32:SHELL32.dll
 0002:00000500       __imp__FindExecutableW@12  004e8500     shell32:SHELL32.dll
 0002:00000504       __imp__SHGetFolderPathW@20 004e8504     shell32:SHELL32.dll
 0002:00000508       \177SHELL32_NULL_THUNK_DATA 004e8508     shell32:SHELL32.dll
 0002:0000050c       __imp__LsaCallAuthenticationPackage@28 004e850c     Secur32:Secur32.dll
 0002:00000510       __imp__LsaDeregisterLogonProcess@4 004e8510     Secur32:Secur32.dll
 0002:00000514       __imp__LsaConnectUntrusted@4 004e8514     Secur32:Secur32.dll
 0002:00000518       __imp__LsaLookupAuthenticationPackage@12 004e8518     Secur32:Secur32.dll
 0002:0000051c       __imp__LsaFreeReturnBuffer@4 004e851c     Secur32:Secur32.dll
 0002:00000520       \177Secur32_NULL_THUNK_DATA 004e8520     Secur32:Secur32.dll
 0002:00000524       __imp__CreateMenu@0        004e8524     user32:USER32.dll
 0002:00000528       __imp__CreatePopupMenu@0   004e8528     user32:USER32.dll
 0002:0000052c       __imp__SetMenuItemInfoW@16 004e852c     user32:USER32.dll
 0002:00000530       __imp__InsertMenuW@20      004e8530     user32:USER32.dll
 0002:00000534       __imp__RemoveMenu@12       004e8534     user32:USER32.dll
 0002:00000538       __imp__AppendMenuW@16      004e8538     user32:USER32.dll
 0002:0000053c       __imp__GetKeyState@4       004e853c     user32:USER32.dll
 0002:00000540       __imp__EqualRect@8         004e8540     user32:USER32.dll
 0002:00000544       __imp__GetScrollInfo@12    004e8544     user32:USER32.dll
 0002:00000548       __imp__CopyRect@8          004e8548     user32:USER32.dll
 0002:0000054c       __imp__GetForegroundWindow@0 004e854c     user32:USER32.dll
 0002:00000550       __imp__DestroyMenu@4       004e8550     user32:USER32.dll
 0002:00000554       __imp__DestroyAcceleratorTable@4 004e8554     user32:USER32.dll
 0002:00000558       __imp__DrawMenuBar@4       004e8558     user32:USER32.dll
 0002:0000055c       __imp__GetMenuState@12     004e855c     user32:USER32.dll
 0002:00000560       __imp__CheckMenuItem@12    004e8560     user32:USER32.dll
 0002:00000564       __imp__EnableMenuItem@12   004e8564     user32:USER32.dll
 0002:00000568       __imp__GetMessageW@16      004e8568     user32:USER32.dll
 0002:0000056c       __imp__GetLastActivePopup@4 004e856c     user32:USER32.dll
 0002:00000570       __imp__GetMenuBarInfo@16   004e8570     user32:USER32.dll
 0002:00000574       __imp__IsChild@8           004e8574     user32:USER32.dll
 0002:00000578       __imp__TranslateAcceleratorW@12 004e8578     user32:USER32.dll
 0002:0000057c       __imp__GetMenuItemRect@16  004e857c     user32:USER32.dll
 0002:00000580       __imp__SetForegroundWindow@4 004e8580     user32:USER32.dll
 0002:00000584       __imp__IsIconic@4          004e8584     user32:USER32.dll
 0002:00000588       __imp__SetLayeredWindowAttributes@16 004e8588     user32:USER32.dll
 0002:0000058c       __imp__SetRect@20          004e858c     user32:USER32.dll
 0002:00000590       __imp__LoadIconW@8         004e8590     user32:USER32.dll
 0002:00000594       __imp__SetCapture@4        004e8594     user32:USER32.dll
 0002:00000598       __imp__ReleaseCapture@0    004e8598     user32:USER32.dll
 0002:0000059c       __imp__GetCapture@0        004e859c     user32:USER32.dll
 0002:000005a0       __imp__DialogBoxIndirectParamW@20 004e85a0     user32:USER32.dll
 0002:000005a4       __imp__GetDialogBaseUnits@0 004e85a4     user32:USER32.dll
 0002:000005a8       __imp__SetMenu@8           004e85a8     user32:USER32.dll
 0002:000005ac       __imp__SetParent@8         004e85ac     user32:USER32.dll
 0002:000005b0       __imp__SetScrollInfo@16    004e85b0     user32:USER32.dll
 0002:000005b4       __imp__CreateAcceleratorTableW@8 004e85b4     user32:USER32.dll
 0002:000005b8       __imp__DispatchMessageW@4  004e85b8     user32:USER32.dll
 0002:000005bc       __imp__PostMessageW@16     004e85bc     user32:USER32.dll
 0002:000005c0       __imp__InvalidateRect@12   004e85c0     user32:USER32.dll
 0002:000005c4       __imp__RedrawWindow@16     004e85c4     user32:USER32.dll
 0002:000005c8       __imp__EndDialog@8         004e85c8     user32:USER32.dll
 0002:000005cc       __imp__MessageBoxW@16      004e85cc     user32:USER32.dll
 0002:000005d0       __imp__ReleaseDC@8         004e85d0     user32:USER32.dll
 0002:000005d4       __imp__EnumDisplaySettingsW@12 004e85d4     user32:USER32.dll
 0002:000005d8       __imp__EnumDisplayDevicesW@16 004e85d8     user32:USER32.dll
 0002:000005dc       __imp__GetDC@4             004e85dc     user32:USER32.dll
 0002:000005e0       __imp__GetDesktopWindow@0  004e85e0     user32:USER32.dll
 0002:000005e4       __imp__CopyImage@20        004e85e4     user32:USER32.dll
 0002:000005e8       __imp__CopyIcon@4          004e85e8     user32:USER32.dll
 0002:000005ec       __imp__DrawIcon@16         004e85ec     user32:USER32.dll
 0002:000005f0       __imp__DestroyIcon@4       004e85f0     user32:USER32.dll
 0002:000005f4       __imp__GetWindowLongW@8    004e85f4     user32:USER32.dll
 0002:000005f8       __imp__GetWindowTextLengthW@4 004e85f8     user32:USER32.dll
 0002:000005fc       __imp__GetMenuItemInfoW@16 004e85fc     user32:USER32.dll
 0002:00000600       __imp__DefWindowProcW@16   004e8600     user32:USER32.dll
 0002:00000604       __imp__GetWindow@8         004e8604     user32:USER32.dll
 0002:00000608       __imp__GetWindowRect@8     004e8608     user32:USER32.dll
 0002:0000060c       __imp__DestroyWindow@4     004e860c     user32:USER32.dll
 0002:00000610       __imp__SetWindowPos@28     004e8610     user32:USER32.dll
 0002:00000614       __imp__GetMenuItemCount@4  004e8614     user32:USER32.dll
 0002:00000618       __imp__CreateWindowExW@48  004e8618     user32:USER32.dll
 0002:0000061c       __imp__ScreenToClient@8    004e861c     user32:USER32.dll
 0002:00000620       __imp__SetWindowTextW@8    004e8620     user32:USER32.dll
 0002:00000624       __imp__RegisterClassExW@4  004e8624     user32:USER32.dll
 0002:00000628       __imp__BringWindowToTop@4  004e8628     user32:USER32.dll
 0002:0000062c       __imp__SetTimer@16         004e862c     user32:USER32.dll
 0002:00000630       __imp__ClientToScreen@8    004e8630     user32:USER32.dll
 0002:00000634       __imp__PeekMessageW@20     004e8634     user32:USER32.dll
 0002:00000638       __imp__IsWindowEnabled@4   004e8638     user32:USER32.dll
 0002:0000063c       __imp__LoadBitmapW@8       004e863c     user32:USER32.dll
 0002:00000640       __imp__TranslateMessage@4  004e8640     user32:USER32.dll
 0002:00000644       __imp__GetClassNameW@12    004e8644     user32:USER32.dll
 0002:00000648       __imp__GetWindowDC@4       004e8648     user32:USER32.dll
 0002:0000064c       __imp__SetWindowLongW@12   004e864c     user32:USER32.dll
 0002:00000650       __imp__GetClientRect@8     004e8650     user32:USER32.dll
 0002:00000654       __imp__KillTimer@8         004e8654     user32:USER32.dll
 0002:00000658       __imp__GetSysColorBrush@4  004e8658     user32:USER32.dll
 0002:0000065c       __imp__GetClassInfoExW@12  004e865c     user32:USER32.dll
 0002:00000660       __imp__PtInRect@12         004e8660     user32:USER32.dll
 0002:00000664       __imp__UpdateWindow@4      004e8664     user32:USER32.dll
 0002:00000668       __imp__BeginPaint@8        004e8668     user32:USER32.dll
 0002:0000066c       __imp__EndPaint@8          004e866c     user32:USER32.dll
 0002:00000670       __imp__GetKeyboardType@4   004e8670     user32:USER32.dll
 0002:00000674       __imp__GetSystemMetrics@4  004e8674     user32:USER32.dll
 0002:00000678       __imp__OffsetRect@12       004e8678     user32:USER32.dll
 0002:0000067c       __imp__GetCursorPos@4      004e867c     user32:USER32.dll
 0002:00000680       __imp__SystemParametersInfoW@16 004e8680     user32:USER32.dll
 0002:00000684       __imp__EnableWindow@8      004e8684     user32:USER32.dll
 0002:00000688       __imp__GetWindowTextW@12   004e8688     user32:USER32.dll
 0002:0000068c       __imp__CharUpperW@4        004e868c     user32:USER32.dll
 0002:00000690       __imp__SetFocus@4          004e8690     user32:USER32.dll
 0002:00000694       __imp__MoveWindow@24       004e8694     user32:USER32.dll
 0002:00000698       __imp__GetSysColor@4       004e8698     user32:USER32.dll
 0002:0000069c       __imp__ShowWindow@8        004e869c     user32:USER32.dll
 0002:000006a0       __imp__IsWindowVisible@4   004e86a0     user32:USER32.dll
 0002:000006a4       __imp__FillRect@12         004e86a4     user32:USER32.dll
 0002:000006a8       __imp__MessageBeep@4       004e86a8     user32:USER32.dll
 0002:000006ac       __imp__LoadCursorW@8       004e86ac     user32:USER32.dll
 0002:000006b0       __imp__SetCursor@4         004e86b0     user32:USER32.dll
 0002:000006b4       __imp__DrawTextW@20        004e86b4     user32:USER32.dll
 0002:000006b8       __imp__PostQuitMessage@4   004e86b8     user32:USER32.dll
 0002:000006bc       __imp__GetParent@4         004e86bc     user32:USER32.dll
 0002:000006c0       __imp__GetFocus@0          004e86c0     user32:USER32.dll
 0002:000006c4       __imp__SendMessageW@16     004e86c4     user32:USER32.dll
 0002:000006c8       __imp__TrackPopupMenu@28   004e86c8     user32:USER32.dll
 0002:000006cc       \177USER32_NULL_THUNK_DATA 004e86cc     user32:USER32.dll
 0002:000006d0       __imp__VerQueryValueW@16   004e86d0     Version:VERSION.dll
 0002:000006d4       __imp__GetFileVersionInfoSizeW@8 004e86d4     Version:VERSION.dll
 0002:000006d8       __imp__GetFileVersionInfoW@16 004e86d8     Version:VERSION.dll
 0002:000006dc       \177VERSION_NULL_THUNK_DATA 004e86dc     Version:VERSION.dll
 0002:000006e0       __imp__GetPrinterDriverW@24 004e86e0     winspool:WINSPOOL.DRV
 0002:000006e4       __imp__EnumPrintersW@28    004e86e4     winspool:WINSPOOL.DRV
 0002:000006e8       __imp__EnumPortsW@24       004e86e8     winspool:WINSPOOL.DRV
 0002:000006ec       __imp__ClosePrinter@4      004e86ec     winspool:WINSPOOL.DRV
 0002:000006f0       __imp__OpenPrinterW@12     004e86f0     winspool:WINSPOOL.DRV
 0002:000006f4       \177WINSPOOL_NULL_THUNK_DATA 004e86f4     winspool:WINSPOOL.DRV
 0002:000006f8       __imp__SymFromAddr@20      004e86f8     Dbghelp:dbghelp.dll
 0002:000006fc       __imp__StackWalk64@36      004e86fc     Dbghelp:dbghelp.dll
 0002:00000700       __imp__SymInitialize@12    004e8700     Dbghelp:dbghelp.dll
 0002:00000704       __imp__SymFunctionTableAccess64@12 004e8704     Dbghelp:dbghelp.dll
 0002:00000708       __imp__SymGetModuleBase64@12 004e8708     Dbghelp:dbghelp.dll
 0002:0000070c       __imp__SymCleanup@4        004e870c     Dbghelp:dbghelp.dll
 0002:00000710       \177dbghelp_NULL_THUNK_DATA 004e8710     Dbghelp:dbghelp.dll
 0002:00000714       __imp__MsiEnumPatchesW@20  004e8714     Msi:msi.dll
 0002:00000718       __imp__MsiGetProductInfoW@16 004e8718     Msi:msi.dll
 0002:0000071c       __imp__MsiGetPatchInfoExW@28 004e871c     Msi:msi.dll
 0002:00000720       __imp__MsiEnumProductsW@8  004e8720     Msi:msi.dll
 0002:00000724       __imp__MsiQueryProductStateW@4 004e8724     Msi:msi.dll
 0002:00000728       \177msi_NULL_THUNK_DATA    004e8728     Msi:msi.dll
 0002:0000072c       __imp__CLSIDFromProgID@8   004e872c     ole32:ole32.dll
 0002:00000730       __imp__CoUninitialize@0    004e8730     ole32:ole32.dll
 0002:00000734       __imp__CoTaskMemFree@4     004e8734     ole32:ole32.dll
 0002:00000738       __imp__CoCreateInstance@20 004e8738     ole32:ole32.dll
 0002:0000073c       __imp__CoCreateGuid@4      004e873c     ole32:ole32.dll
 0002:00000740       __imp__StringFromGUID2@12  004e8740     ole32:ole32.dll
 0002:00000744       __imp__CoInitializeSecurity@36 004e8744     ole32:ole32.dll
 0002:00000748       __imp__CoInitializeEx@8    004e8748     ole32:ole32.dll
 0002:0000074c       __imp__CoSetProxyBlanket@32 004e874c     ole32:ole32.dll
 0002:00000750       __imp__CLSIDFromString@8   004e8750     ole32:ole32.dll
 0002:00000754       \177ole32_NULL_THUNK_DATA  004e8754     ole32:ole32.dll
 0002:00000758       ___guard_check_icall_fptr  004e8758     LIBCMT:guard_support.obj
 0002:0000075c       ___castguard_check_failure_os_handled_fptr 004e875c     LIBCMT:guard_support.obj
 0002:00000760       ___xc_a                    004e8760     LIBCMT:initializers.obj
 0002:00000768       ___xc_z                    004e8768     LIBCMT:initializers.obj
 0002:0000076c       ___xi_a                    004e876c     LIBCMT:initializers.obj
 0002:00000778       ___acrt_stdio_initializer  004e8778     libucrt:stdio_initializer.obj
 0002:0000077c       ___acrt_multibyte_initializer 004e877c     libucrt:multibyte_initializer.obj
 0002:00000780       ___acrt_fmode_initializer  004e8780     libucrt:fmode_initializer.obj
 0002:00000784       ___acrt_tran_sse2_initializer 004e8784     libucrt:sse2_initializer.obj
 0002:00000788       ___xi_z                    004e8788     LIBCMT:initializers.obj
 0002:0000078c       ___xp_a                    004e878c     LIBCMT:initializers.obj
 0002:00000790       ___acrt_locale_terminator  004e8790     libucrt:locale_initializer.obj
 0002:00000794       ___dcrt_console_output_terminator 004e8794     libucrt:console_output_initializer.obj
 0002:00000798       ___acrt_stdio_terminator   004e8798     libucrt:stdio_initializer.obj
 0002:0000079c       ___xp_z                    004e879c     LIBCMT:initializers.obj
 0002:000007a0       ___xt_a                    004e87a0     LIBCMT:initializers.obj
 0002:000007a4       ___xt_z                    004e87a4     LIBCMT:initializers.obj
 0002:000007a8       ___guard_fids_table        004e87a8     <linker-defined>
 0002:00001a78       ___guard_iat_table         004e9a78     <linker-defined>
 0002:00001a90       _IID_ITaskService          004e9a90     taskschd:taskschd.obj
 0002:00001aa0       _IID_IExecAction           004e9aa0     taskschd:taskschd.obj
 0002:00001ab0       _IID_ITaskScheduler        004e9ab0     MSTask:guids.obj
 0002:00001ac0       _IID_ITask                 004e9ac0     MSTask:guids.obj
 0002:00001ad0       _IID_IScheduledWorkItem    004e9ad0     MSTask:guids.obj
 0002:00001ae0       _IID_IShellLinkW           004e9ae0     shell32:shguid.obj
 0002:00001af0       _IID_IDBProperties         004e9af0     uuid:oledbiid.obj
 0002:00001b00       _IID_IDBInitialize         004e9b00     uuid:oledbiid.obj
 0002:00001b10       _IID_IAccessor             004e9b10     uuid:oledbiid.obj
 0002:00001b20       _IID_ISQLErrorInfo         004e9b20     uuid:oledbiid.obj
 0002:00001b30       _IID_ISourcesRowset        004e9b30     uuid:oledbiid.obj
 0002:00001b40       _IID_ICommandText          004e9b40     uuid:oledbiid.obj
 0002:00001b50       _IID_IErrorRecords         004e9b50     uuid:oledbiid.obj
 0002:00001b60       _IID_IRowset               004e9b60     uuid:oledbiid.obj
 0002:00001b70       _IID_IDBCreateCommand      004e9b70     uuid:oledbiid.obj
 0002:00001b80       _IID_IDBDataSourceAdmin    004e9b80     uuid:oledbiid.obj
 0002:00001b90       _IID_IDBCreateSession      004e9b90     uuid:oledbiid.obj
 0002:00001ba0       _DB_NULLID                 004e9ba0     uuid:oledbdat.obj
 0002:00001bb8       _CLSID_OLEDB_ENUMERATOR    004e9bb8     uuid:oledbdat.obj
 0002:00001bc8       _DBPROPSET_DBINIT          004e9bc8     uuid:oledbdat.obj
 0002:00001bd8       _DBGUID_DEFAULT            004e9bd8     uuid:oledbdat.obj
 0002:00001be8       _IID_IEnumVARIANT          004e9be8     uuid:oaidl_i.obj
 0002:00001bf8       _GUID_NULL                 004e9bf8     uuid:cguid_i.obj
 0002:00001c08       _GUID_DEVCLASS_HDC         004e9c08     uuid:cguid_i.obj
 0002:00001c18       _CLSID_InternetZoneManager 004e9c18     uuid:ieguids.obj
 0002:00001c28       _IID_IInternetZoneManager  004e9c28     uuid:i_urlmon.obj
 0002:00001c38       _IID_INetFwOpenPort        004e9c38     uuid:netfw_i.obj
 0002:00001c48       _IID_INetFwService         004e9c48     uuid:netfw_i.obj
 0002:00001c58       _IID_INetFwAuthorizedApplication 004e9c58     uuid:netfw_i.obj
 0002:00001c68       _IID_INetFwMgr             004e9c68     uuid:netfw_i.obj
 0002:00001c78       _CLSID_NetFwMgr            004e9c78     uuid:netfw_i.obj
 0002:00001c88       _IID_IPersistFile          004e9c88     uuid:objidl_i.obj
 0002:00001c98       _CLSID_ShellLink           004e9c98     uuid:shguids.obj
 0002:00001cb4       ??_7type_info@@6B@         004e9cb4     LIBCMT:std_type_info_static.obj
 0002:00001cbc       ??_7exception@std@@6B@     004e9cbc     LIBCMT:throw_bad_alloc.obj
 0002:00001cc4       ??_C@_0BC@EOODALEL@Unknown?5exception@ 004e9cc4     LIBCMT:throw_bad_alloc.obj
 0002:00001cdc       ??_7bad_alloc@std@@6B@     004e9cdc     LIBCMT:throw_bad_alloc.obj
 0002:00001ce4       ??_C@_0P@GHFPNOJB@bad?5allocation@ 004e9ce4     LIBCMT:throw_bad_alloc.obj
 0002:00001cf8       ??_7bad_array_new_length@std@@6B@ 004e9cf8     LIBCMT:throw_bad_alloc.obj
 0002:00001d00       ??_C@_0BF@KINCDENJ@bad?5array?5new?5length@ 004e9d00     LIBCMT:throw_bad_alloc.obj
 0002:00001d18       _CLSID_UpdateSearcher      004e9d18     wuguid:wuapi_i.obj
 0002:00001d28       _IID_IUpdateSearcher       004e9d28     wuguid:wuapi_i.obj
 0002:00001d38       _IID_IAutomaticUpdates     004e9d38     wuguid:wuapi_i.obj
 0002:00001d48       _CLSID_AutomaticUpdates    004e9d48     wuguid:wuapi_i.obj
 0002:00001d58       __pDestructExceptionObject 004e9d58     libvcruntime:ehhelpers.obj
 0002:00001d60       ??_7bad_exception@std@@6B@ 004e9d60     libvcruntime:frame.obj
 0002:00001d68       ??_C@_0O@DPKOEFFH@bad?5exception@ 004e9d68     libvcruntime:frame.obj
 0002:00002100       ??_C@_08EHJDFFNH@__based?$CI@ 004ea100     libvcruntime:undname.obj
 0002:0000210c       ??_C@_07KOLFKCDI@__cdecl@  004ea10c     libvcruntime:undname.obj
 0002:00002114       ??_C@_08GHMPAG@__pascal@   004ea114     libvcruntime:undname.obj
 0002:00002120       ??_C@_09IFJBGAPI@__stdcall@ 004ea120     libvcruntime:undname.obj
 0002:0000212c       ??_C@_0L@NPHFGOKO@__thiscall@ 004ea12c     libvcruntime:undname.obj
 0002:00002138       ??_C@_0L@JMKHOMEK@__fastcall@ 004ea138     libvcruntime:undname.obj
 0002:00002144       ??_C@_0N@BCKKPABJ@__vectorcall@ 004ea144     libvcruntime:undname.obj
 0002:00002154       ??_C@_09HIJEGCPM@__clrcall@ 004ea154     libvcruntime:undname.obj
 0002:00002160       ??_C@_06GHPCKEAG@__eabi@   004ea160     libvcruntime:undname.obj
 0002:00002168       ??_C@_09IOPIDJLG@__swift_1@ 004ea168     libvcruntime:undname.obj
 0002:00002174       ??_C@_09KFNFGKHF@__swift_2@ 004ea174     libvcruntime:undname.obj
 0002:00002180       ??_C@_09LMMOFLDE@__swift_3@ 004ea180     libvcruntime:undname.obj
 0002:0000218c       ??_C@_07JOMMBBKO@__ptr64@  004ea18c     libvcruntime:undname.obj
 0002:00002194       ??_C@_0L@PILCLIHE@__restrict@ 004ea194     libvcruntime:undname.obj
 0002:000021a0       ??_C@_0M@GFIIJFMG@__unaligned@ 004ea1a0     libvcruntime:undname.obj
 0002:000021ac       ??_C@_09DHDLOLLB@restrict?$CI@ 004ea1ac     libvcruntime:undname.obj
 0002:000021b6       ??_C@_00CNPNBAHC@@         004ea1b6     libvcruntime:undname.obj
 0002:000021b8       ??_C@_04NIHEBCM@?5new@     004ea1b8     libvcruntime:undname.obj
 0002:000021c0       ??_C@_07FPCDHGMM@?5delete@ 004ea1c0     libvcruntime:undname.obj
 0002:000021c8       ??_C@_01NEMOKFLO@?$DN@     004ea1c8     libvcruntime:undname.obj
 0002:000021cc       ??_C@_02GPIOPFAK@?$DO?$DO@ 004ea1cc     libvcruntime:undname.obj
 0002:000021d0       ??_C@_02FODMEDOG@?$DM?$DM@ 004ea1d0     libvcruntime:undname.obj
 0002:000021d4       ??_C@_01DCLJPIOD@?$CB@     004ea1d4     libvcruntime:undname.obj
 0002:000021d8       ??_C@_02EGOFBIJA@?$DN?$DN@ 004ea1d8     libvcruntime:undname.obj
 0002:000021dc       ??_C@_02FDNJECIE@?$CB?$DN@ 004ea1dc     libvcruntime:undname.obj
 0002:000021e0       ??_C@_02GPECMEKF@?$FL?$FN@ 004ea1e0     libvcruntime:undname.obj
 0002:000021e4       ??_C@_08LHJFAFGD@operator@ 004ea1e4     libvcruntime:undname.obj
 0002:000021f0       ??_C@_02HBOOOICD@?9?$DO@   004ea1f0     libvcruntime:undname.obj
 0002:000021f4       ??_C@_01NBENCBCI@?$CK@     004ea1f4     libvcruntime:undname.obj
 0002:000021f8       ??_C@_02ECNGHCIF@?$CL?$CL@ 004ea1f8     libvcruntime:undname.obj
 0002:000021fc       ??_C@_02BAABKJLB@?9?9@     004ea1fc     libvcruntime:undname.obj
 0002:00002200       ??_C@_01JOAMLHOP@?9@       004ea200     libvcruntime:undname.obj
 0002:00002204       ??_C@_01MIFGBAGJ@?$CL@     004ea204     libvcruntime:undname.obj
 0002:00002208       ??_C@_01HNPIGOCE@?$CG@     004ea208     libvcruntime:undname.obj
 0002:0000220c       ??_C@_03MNHNFDLC@?9?$DO?$CK@ 004ea20c     libvcruntime:undname.obj
 0002:00002210       ??_C@_01KMDKNFGN@?1@       004ea210     libvcruntime:undname.obj
 0002:00002214       ??_C@_01FGNFDNOH@?$CF@     004ea214     libvcruntime:undname.obj
 0002:00002218       ??_C@_01MNNFJEPP@?$DM@     004ea218     libvcruntime:undname.obj
 0002:0000221c       ??_C@_02EHCHHCKH@?$DM?$DN@ 004ea21c     libvcruntime:undname.obj
 0002:00002220       ??_C@_01PPODPGHN@?$DO@     004ea220     libvcruntime:undname.obj
 0002:00002224       ??_C@_02EEKDKGMJ@?$DO?$DN@ 004ea224     libvcruntime:undname.obj
 0002:00002228       ??_C@_01IHBHIGKO@?0@       004ea228     libvcruntime:undname.obj
 0002:0000222c       ??_C@_02HCKGKOFO@?$CI?$CJ@ 004ea22c     libvcruntime:undname.obj
 0002:00002230       ??_C@_01PJKLJHI@?$HO@      004ea230     libvcruntime:undname.obj
 0002:00002234       ??_C@_01JKBOJNNK@?$FO@     004ea234     libvcruntime:undname.obj
 0002:00002238       ??_C@_01DNKMNLPK@?$HM@     004ea238     libvcruntime:undname.obj
 0002:0000223c       ??_C@_02PPKAJPJL@?$CG?$CG@ 004ea23c     libvcruntime:undname.obj
 0002:00002240       ??_C@_02NONPIBCD@?$HM?$HM@ 004ea240     libvcruntime:undname.obj
 0002:00002244       ??_C@_02FPIMKNGF@?$CK?$DN@ 004ea244     libvcruntime:undname.obj
 0002:00002248       ??_C@_02FOEOMHFC@?$CL?$DN@ 004ea248     libvcruntime:undname.obj
 0002:0000224c       ??_C@_02FKMDLLOA@?9?$DN@   004ea24c     libvcruntime:undname.obj
 0002:00002250       ??_C@_02FJEHGPIO@?1?$DN@   004ea250     libvcruntime:undname.obj
 0002:00002254       ??_C@_02FENAOKFI@?$CF?$DN@ 004ea254     libvcruntime:undname.obj
 0002:00002258       ??_C@_03IKFCCPFF@?$DO?$DO?$DN@ 004ea258     libvcruntime:undname.obj
 0002:0000225c       ??_C@_03CDNPDDLA@?$DM?$DM?$DN@ 004ea25c     libvcruntime:undname.obj
 0002:00002260       ??_C@_02FGJGFEAB@?$CG?$DN@ 004ea260     libvcruntime:undname.obj
 0002:00002264       ??_C@_02DHLNPPGH@?$HM?$DN@ 004ea264     libvcruntime:undname.obj
 0002:00002268       ??_C@_02MHEGNOJ@?$FO?$DN@  004ea268     libvcruntime:undname.obj
 0002:0000226c       ??_C@_09IFPLHPGF@?$GAvftable?8@ 004ea26c     libvcruntime:undname.obj
 0002:00002278       ??_C@_09BLBHBJP@?$GAvbtable?8@ 004ea278     libvcruntime:undname.obj
 0002:00002284       ??_C@_07FEEIOKP@?$GAvcall?8@ 004ea284     libvcruntime:undname.obj
 0002:0000228c       ??_C@_08LLFFHHDJ@?$GAtypeof?8@ 004ea28c     libvcruntime:undname.obj
 0002:00002298       ??_C@_0BF@KDPPACIK@?$GAlocal?5static?5guard?8@ 004ea298     libvcruntime:undname.obj
 0002:000022b0       ??_C@_08OBABFOLI@?$GAstring?8@ 004ea2b0     libvcruntime:undname.obj
 0002:000022bc       ??_C@_0BD@JDLKDPAB@?$GAvbase?5destructor?8@ 004ea2bc     libvcruntime:undname.obj
 0002:000022d0       ??_C@_0BN@DEGPLNFK@?$GAvector?5deleting?5destructor?8@ 004ea2d0     libvcruntime:undname.obj
 0002:000022f0       ??_C@_0BO@OBMKPJIG@?$GAdefault?5constructor?5closure?8@ 004ea2f0     libvcruntime:undname.obj
 0002:00002310       ??_C@_0BN@IMDCHIKM@?$GAscalar?5deleting?5destructor?8@ 004ea310     libvcruntime:undname.obj
 0002:00002330       ??_C@_0BO@PFGOCPJJ@?$GAvector?5constructor?5iterator?8@ 004ea330     libvcruntime:undname.obj
 0002:00002350       ??_C@_0BN@LFPFMEDL@?$GAvector?5destructor?5iterator?8@ 004ea350     libvcruntime:undname.obj
 0002:00002370       ??_C@_0CE@IKBNEHA@?$GAvector?5vbase?5constructor?5itera@ 004ea370     libvcruntime:undname.obj
 0002:00002394       ??_C@_0BL@NILFHHPC@?$GAvirtual?5displacement?5map?8@ 004ea394     libvcruntime:undname.obj
 0002:000023b0       ??_C@_0CB@JONCMFFK@?$GAeh?5vector?5constructor?5iterator@ 004ea3b0     libvcruntime:undname.obj
 0002:000023d4       ??_C@_0CA@GCEOPDGL@?$GAeh?5vector?5destructor?5iterator?8@ 004ea3d4     libvcruntime:undname.obj
 0002:000023f4       ??_C@_0CH@OOJPLCPH@?$GAeh?5vector?5vbase?5constructor?5it@ 004ea3f4     libvcruntime:undname.obj
 0002:0000241c       ??_C@_0BL@LLKPOHJI@?$GAcopy?5constructor?5closure?8@ 004ea41c     libvcruntime:undname.obj
 0002:00002438       ??_C@_0BA@KBCDOMBN@?$GAudt?5returning?8@ 004ea438     libvcruntime:undname.obj
 0002:00002448       ??_C@_03KLGMFNMG@?$GAEH@   004ea448     libvcruntime:undname.obj
 0002:0000244c       ??_C@_05KHLCHHI@?$GARTTI@  004ea44c     libvcruntime:undname.obj
 0002:00002454       ??_C@_0BA@KKLDJDLB@?$GAlocal?5vftable?8@ 004ea454     libvcruntime:undname.obj
 0002:00002464       ??_C@_0CE@IIHCMGGL@?$GAlocal?5vftable?5constructor?5clos@ 004ea464     libvcruntime:undname.obj
 0002:00002488       ??_C@_06FHBGPFGH@?5new?$FL?$FN@ 004ea488     libvcruntime:undname.obj
 0002:00002490       ??_C@_09LBNFPBCA@?5delete?$FL?$FN@ 004ea490     libvcruntime:undname.obj
 0002:0000249c       ??_C@_0P@HJKNJFNN@?$GAomni?5callsig?8@ 004ea49c     libvcruntime:undname.obj
 0002:000024ac       ??_C@_0BL@CNOONJFP@?$GAplacement?5delete?5closure?8@ 004ea4ac     libvcruntime:undname.obj
 0002:000024c8       ??_C@_0BN@CKNJLHMB@?$GAplacement?5delete?$FL?$FN?5closure?8@ 004ea4c8     libvcruntime:undname.obj
 0002:000024e8       ??_C@_0CG@CFDHKGGD@?$GAmanaged?5vector?5constructor?5ite@ 004ea4e8     libvcruntime:undname.obj
 0002:00002510       ??_C@_0CF@IMGKMJNO@?$GAmanaged?5vector?5destructor?5iter@ 004ea510     libvcruntime:undname.obj
 0002:00002538       ??_C@_0CG@HLDDJMAG@?$GAeh?5vector?5copy?5constructor?5ite@ 004ea538     libvcruntime:undname.obj
 0002:00002560       ??_C@_0CM@FCBBDIGB@?$GAeh?5vector?5vbase?5copy?5construct@ 004ea560     libvcruntime:undname.obj
 0002:0000258c       ??_C@_0BL@CLIPGLGB@?$GAdynamic?5initializer?5for?5?8@ 004ea58c     libvcruntime:undname.obj
 0002:000025a8       ??_C@_0CB@PDBIFEP@?$GAdynamic?5atexit?5destructor?5for?5@ 004ea5a8     libvcruntime:undname.obj
 0002:000025cc       ??_C@_0CD@CGAJBKEJ@?$GAvector?5copy?5constructor?5iterat@ 004ea5cc     libvcruntime:undname.obj
 0002:000025f0       ??_C@_0CJ@GJELGAMM@?$GAvector?5vbase?5copy?5constructor?5@ 004ea5f0     libvcruntime:undname.obj
 0002:0000261c       ??_C@_0CL@FGIJHLCE@?$GAmanaged?5vector?5copy?5constructo@ 004ea61c     libvcruntime:undname.obj
 0002:00002648       ??_C@_0BM@PMGGMLDN@?$GAlocal?5static?5thread?5guard?8@ 004ea648     libvcruntime:undname.obj
 0002:00002664       ??_C@_0N@BDNMDMOL@operator?5?$CC?$CC?5@ 004ea664     libvcruntime:undname.obj
 0002:00002674       ??_C@_0BC@GGEBGALA@operator?5co_await@ 004ea674     libvcruntime:undname.obj
 0002:00002688       ??_C@_0M@GAAIMMOH@operator?$DM?$DN?$DO@ 004ea688     libvcruntime:undname.obj
 0002:00002694       ??_C@_0BC@DAFEJGAK@?5Type?5Descriptor?8@ 004ea694     libvcruntime:undname.obj
 0002:000026a8       ??_C@_0BM@LDKODKLH@?5Base?5Class?5Descriptor?5at?5?$CI@ 004ea6a8     libvcruntime:undname.obj
 0002:000026c4       ??_C@_0BD@LGICGFMM@?5Base?5Class?5Array?8@ 004ea6c4     libvcruntime:undname.obj
 0002:000026d8       ??_C@_0BN@MECKDCOJ@?5Class?5Hierarchy?5Descriptor?8@ 004ea6d8     libvcruntime:undname.obj
 0002:000026f8       ??_C@_0BK@CFCOFLF@?5Complete?5Object?5Locator?8@ 004ea6f8     libvcruntime:undname.obj
 0002:00002714       ??_C@_0BG@JNJLAMPM@?$GAanonymous?5namespace?8@ 004ea714     libvcruntime:undname.obj
 0002:00002738       ??_C@_1DM@KHCHBNEB@?$AAa?$AAp?$AAi?$AA?9?$AAm?$AAs?$AA?9?$AAw?$AAi?$AAn?$AA?9?$AAc?$AAo?$AAr?$AAe@ 004ea738     libvcruntime:winapi_downlevel.obj
 0002:00002774       ??_C@_1DK@LPPGFMPP@?$AAa?$AAp?$AAi?$AA?9?$AAm?$AAs?$AA?9?$AAw?$AAi?$AAn?$AA?9?$AAc?$AAo?$AAr?$AAe@ 004ea774     libvcruntime:winapi_downlevel.obj
 0002:000027b0       ??_C@_1BC@GDMECMAK@?$AAk?$AAe?$AAr?$AAn?$AAe?$AAl?$AA3?$AA2@ 004ea7b0     libvcruntime:winapi_downlevel.obj
 0002:000027c4       ??_C@_1BA@PFFKHIOG@?$AAa?$AAp?$AAi?$AA?9?$AAm?$AAs?$AA?9@ 004ea7c4     libvcruntime:winapi_downlevel.obj
 0002:000027dc       ??_C@_08KNHFBNJ@FlsAlloc@  004ea7dc     libvcruntime:winapi_downlevel.obj
 0002:000027f0       ??_C@_07PEJMOBNF@FlsFree@  004ea7f0     libvcruntime:winapi_downlevel.obj
 0002:00002800       ??_C@_0M@GDNOONDI@FlsGetValue@ 004ea800     libvcruntime:winapi_downlevel.obj
 0002:00002814       ??_C@_0M@JCPCPOEF@FlsSetValue@ 004ea814     libvcruntime:winapi_downlevel.obj
 0002:00002828       ??_C@_0BM@HCFOFFN@InitializeCriticalSectionEx@ 004ea828     libvcruntime:winapi_downlevel.obj
 0002:00002848       ?standard_lookup_table_spectre@__crt_stdio_output@@3V?$spectre_mitigated_lookup_table@Ustate_transition_pair@__crt_stdio_output@@$0IA@@1@B 004ea848     libucrt:output.obj
 0002:00002c48       ??_C@_1O@CEDCILHN@?$AA?$CI?$AAn?$AAu?$AAl?$AAl?$AA?$CJ@ 004eac48     libucrt:output.obj
 0002:00002c58       ??_C@_06OJHGLDPL@?$CInull?$CJ@ 004eac58     libucrt:output.obj
 0002:00002c60       ?large_power_data@?1??multiply_by_power_of_ten@__crt_strtox@@YA_NAAUbig_integer@2@I@Z@4QBIB 004eac60     libucrt:atof.obj
 0002:00003568       ?large_power_indices@?1??multiply_by_power_of_ten@__crt_strtox@@YA_NAAUbig_integer@2@I@Z@4QBUunpack_index@?1??12@YA_N0I@Z@B 004eb568     libucrt:atof.obj
 0002:00003600       ?small_powers_of_ten@?1??multiply_by_power_of_ten@__crt_strtox@@YA_NAAUbig_integer@2@I@Z@4QBIB 004eb600     libucrt:atof.obj
 0002:00003790       ___acrt_exception_action_table 004eb790     libucrt:exception_filter.obj
 0002:00003820       ___acrt_signal_action_table_count 004eb820     libucrt:exception_filter.obj
 0002:00003824       ___acrt_signal_action_first_fpe_index 004eb824     libucrt:exception_filter.obj
 0002:00003828       ___acrt_signal_action_fpe_count 004eb828     libucrt:exception_filter.obj
 0002:0000382c       ??_C@_1BI@BGOHAHKC@?$AAm?$AAs?$AAc?$AAo?$AAr?$AAe?$AAe?$AA?4?$AAd?$AAl?$AAl@ 004eb82c     libucrt:exit.obj
 0002:00003844       ??_C@_0P@MIGLKIOC@CorExitProcess@ 004eb844     libucrt:exit.obj
 0002:00003918       ??_C@_03OEIAHPBN@INF@      004eb918     libucrt:cvt.obj
 0002:0000391c       ??_C@_03OJHLLCGB@inf@      004eb91c     libucrt:cvt.obj
 0002:00003920       ??_C@_03LKNCIKJB@NAN@      004eb920     libucrt:cvt.obj
 0002:00003924       ??_C@_03LHCJEHON@nan@      004eb924     libucrt:cvt.obj
 0002:00003928       ??_C@_09OFJJIMPC@NAN?$CISNAN?$CJ@ 004eb928     libucrt:cvt.obj
 0002:00003934       ??_C@_09IPFBKMDL@nan?$CIsnan?$CJ@ 004eb934     libucrt:cvt.obj
 0002:00003940       ??_C@_08IKHNHAJ@NAN?$CIIND?$CJ@ 004eb940     libucrt:cvt.obj
 0002:0000394c       ??_C@_08OFCDMILK@nan?$CIind?$CJ@ 004eb94c     libucrt:cvt.obj
 0002:00003958       ??_C@_05KLBDPFGC@e?$CL000@ 004eb958     libucrt:cvt.obj
 0002:00003960       ___lc_time_c               004eb960     libucrt:nlsdata.obj
 0002:00003ac4       ??_C@_03KOEHGMDN@Sun@      004ebac4     libucrt:nlsdata.obj
 0002:00003ac8       ??_C@_03PDAGKDH@Mon@       004ebac8     libucrt:nlsdata.obj
 0002:00003acc       ??_C@_03NAGEINEP@Tue@      004ebacc     libucrt:nlsdata.obj
 0002:00003ad0       ??_C@_03MHOMLAJA@Wed@      004ebad0     libucrt:nlsdata.obj
 0002:00003ad4       ??_C@_03IOFIKPDN@Thu@      004ebad4     libucrt:nlsdata.obj
 0002:00003ad8       ??_C@_03IDIOELNC@Fri@      004ebad8     libucrt:nlsdata.obj
 0002:00003adc       ??_C@_03FEFJNEK@Sat@       004ebadc     libucrt:nlsdata.obj
 0002:00003ae0       ??_C@_06OOPIFAJ@Sunday@    004ebae0     libucrt:nlsdata.obj
 0002:00003ae8       ??_C@_06JLEDEDGH@Monday@   004ebae8     libucrt:nlsdata.obj
 0002:00003af0       ??_C@_07BAAGCFCM@Tuesday@  004ebaf0     libucrt:nlsdata.obj
 0002:00003af8       ??_C@_09DLIGFAKA@Wednesday@ 004ebaf8     libucrt:nlsdata.obj
 0002:00003b04       ??_C@_08HACCIKIA@Thursday@ 004ebb04     libucrt:nlsdata.obj
 0002:00003b10       ??_C@_06JECMNKMI@Friday@   004ebb10     libucrt:nlsdata.obj
 0002:00003b18       ??_C@_08INBOOONO@Saturday@ 004ebb18     libucrt:nlsdata.obj
 0002:00003b24       ??_C@_03JIHJHPIE@Jan@      004ebb24     libucrt:nlsdata.obj
 0002:00003b28       ??_C@_03HJBDCHOM@Feb@      004ebb28     libucrt:nlsdata.obj
 0002:00003b2c       ??_C@_03ODNJBKGA@Mar@      004ebb2c     libucrt:nlsdata.obj
 0002:00003b30       ??_C@_03LEOLGMJP@Apr@      004ebb30     libucrt:nlsdata.obj
 0002:00003b34       ??_C@_03CNMDKL@May@        004ebb34     libucrt:nlsdata.obj
 0002:00003b38       ??_C@_03IDFGHECI@Jun@      004ebb38     libucrt:nlsdata.obj
 0002:00003b3c       ??_C@_03LBGABGKK@Jul@      004ebb3c     libucrt:nlsdata.obj
 0002:00003b40       ??_C@_03IFJFEIGA@Aug@      004ebb40     libucrt:nlsdata.obj
 0002:00003b44       ??_C@_03GGCAPAJC@Sep@      004ebb44     libucrt:nlsdata.obj
 0002:00003b48       ??_C@_03BMAOKBAD@Oct@      004ebb48     libucrt:nlsdata.obj
 0002:00003b4c       ??_C@_03JPJOFNIA@Nov@      004ebb4c     libucrt:nlsdata.obj
 0002:00003b50       ??_C@_03MKABNOCG@Dec@      004ebb50     libucrt:nlsdata.obj
 0002:00003b54       ??_C@_07CGJPFGJA@January@  004ebb54     libucrt:nlsdata.obj
 0002:00003b5c       ??_C@_08GNJGEPFN@February@ 004ebb5c     libucrt:nlsdata.obj
 0002:00003b68       ??_C@_05HPCKOFNC@March@    004ebb68     libucrt:nlsdata.obj
 0002:00003b70       ??_C@_05DMJDNLEJ@April@    004ebb70     libucrt:nlsdata.obj
 0002:00003b78       ??_C@_04CNLMGBGM@June@     004ebb78     libucrt:nlsdata.obj
 0002:00003b80       ??_C@_04MIEPOIFP@July@     004ebb80     libucrt:nlsdata.obj
 0002:00003b88       ??_C@_06LBBHFDDG@August@   004ebb88     libucrt:nlsdata.obj
 0002:00003b90       ??_C@_09BHHEALKD@September@ 004ebb90     libucrt:nlsdata.obj
 0002:00003b9c       ??_C@_07JJNFCEND@October@  004ebb9c     libucrt:nlsdata.obj
 0002:00003ba4       ??_C@_08HCHEGEOA@November@ 004ebba4     libucrt:nlsdata.obj
 0002:00003bb0       ??_C@_08EDHMEBNP@December@ 004ebbb0     libucrt:nlsdata.obj
 0002:00003bbc       ??_C@_02DEDBPAFC@AM@       004ebbbc     libucrt:nlsdata.obj
 0002:00003bc0       ??_C@_02CJNFDJBF@PM@       004ebbc0     libucrt:nlsdata.obj
 0002:00003bc4       ??_C@_08BPBNCDIB@MM?1dd?1yy@ 004ebbc4     libucrt:nlsdata.obj
 0002:00003bd0       ??_C@_0BE@CKGJFCPC@dddd?0?5MMMM?5dd?0?5yyyy@ 004ebbd0     libucrt:nlsdata.obj
 0002:00003be4       ??_C@_08JCCMCCIL@HH?3mm?3ss@ 004ebbe4     libucrt:nlsdata.obj
 0002:00003bf0       ??_C@_17KBOMKBF@?$AAM?$AAo?$AAn@ 004ebbf0     libucrt:nlsdata.obj
 0002:00003bf8       ??_C@_17BMKGEGOJ@?$AAT?$AAu?$AAe@ 004ebbf8     libucrt:nlsdata.obj
 0002:00003c00       ??_C@_17CJEDCEPE@?$AAW?$AAe?$AAd@ 004ebc00     libucrt:nlsdata.obj
 0002:00003c08       ??_C@_17PDPHAADD@?$AAT?$AAh?$AAu@ 004ebc08     libucrt:nlsdata.obj
 0002:00003c10       ??_C@_17HFOLPPLP@?$AAF?$AAr?$AAi@ 004ebc10     libucrt:nlsdata.obj
 0002:00003c18       ??_C@_17GGIBDPIH@?$AAS?$AAa?$AAt@ 004ebc18     libucrt:nlsdata.obj
 0002:00003c20       ??_C@_1O@IHNHDHPB@?$AAS?$AAu?$AAn?$AAd?$AAa?$AAy@ 004ebc20     libucrt:nlsdata.obj
 0002:00003c30       ??_C@_1O@MMNBFLIA@?$AAM?$AAo?$AAn?$AAd?$AAa?$AAy@ 004ebc30     libucrt:nlsdata.obj
 0002:00003c40       ??_C@_1BA@ENFBFFEK@?$AAT?$AAu?$AAe?$AAs?$AAd?$AAa?$AAy@ 004ebc40     libucrt:nlsdata.obj
 0002:00003c50       ??_C@_1BE@EBOGMDOH@?$AAW?$AAe?$AAd?$AAn?$AAe?$AAs?$AAd?$AAa?$AAy@ 004ebc50     libucrt:nlsdata.obj
 0002:00003c64       ??_C@_1BC@HHMNLIHE@?$AAT?$AAh?$AAu?$AAr?$AAs?$AAd?$AAa?$AAy@ 004ebc64     libucrt:nlsdata.obj
 0002:00003c78       ??_C@_1O@PDICJHAG@?$AAF?$AAr?$AAi?$AAd?$AAa?$AAy@ 004ebc78     libucrt:nlsdata.obj
 0002:00003c88       ??_C@_1BC@ENMNNPAJ@?$AAS?$AAa?$AAt?$AAu?$AAr?$AAd?$AAa?$AAy@ 004ebc88     libucrt:nlsdata.obj
 0002:00003c9c       ??_C@_17DKNBKCHM@?$AAJ?$AAa?$AAn@ 004ebc9c     libucrt:nlsdata.obj
 0002:00003ca4       ??_C@_17LMDJEKJN@?$AAF?$AAe?$AAb@ 004ebca4     libucrt:nlsdata.obj
 0002:00003cac       ??_C@_17CKNLEDEC@?$AAM?$AAa?$AAr@ 004ebcac     libucrt:nlsdata.obj
 0002:00003cb4       ??_C@_17LFPOIHDD@?$AAA?$AAp?$AAr@ 004ebcb4     libucrt:nlsdata.obj
 0002:00003cbc       ??_C@_17PNNKMEED@?$AAM?$AAa?$AAy@ 004ebcbc     libucrt:nlsdata.obj
 0002:00003cc4       ??_C@_17KCJGOCPB@?$AAJ?$AAu?$AAn@ 004ebcc4     libucrt:nlsdata.obj
 0002:00003ccc       ??_C@_17IJPCKHK@?$AAJ?$AAu?$AAl@ 004ebccc     libucrt:nlsdata.obj
 0002:00003cd4       ??_C@_17ICPELBCN@?$AAA?$AAu?$AAg@ 004ebcd4     libucrt:nlsdata.obj
 0002:00003cdc       ??_C@_17HCHCOKMG@?$AAS?$AAe?$AAp@ 004ebcdc     libucrt:nlsdata.obj
 0002:00003ce4       ??_C@_17FNLKOI@?$AAO?$AAc?$AAt@ 004ebce4     libucrt:nlsdata.obj
 0002:00003cec       ??_C@_17BBDMLCIG@?$AAN?$AAo?$AAv@ 004ebcec     libucrt:nlsdata.obj
 0002:00003cf4       ??_C@_17EGKACKIF@?$AAD?$AAe?$AAc@ 004ebcf4     libucrt:nlsdata.obj
 0002:00003cfc       ??_C@_1BA@EFMEIEBA@?$AAJ?$AAa?$AAn?$AAu?$AAa?$AAr?$AAy@ 004ebcfc     libucrt:nlsdata.obj
 0002:00003d0c       ??_C@_1BC@JGDDFFAM@?$AAF?$AAe?$AAb?$AAr?$AAu?$AAa?$AAr?$AAy@ 004ebd0c     libucrt:nlsdata.obj
 0002:00003d20       ??_C@_1M@IKEENEDF@?$AAM?$AAa?$AAr?$AAc?$AAh@ 004ebd20     libucrt:nlsdata.obj
 0002:00003d2c       ??_C@_1M@GJNLMHFD@?$AAA?$AAp?$AAr?$AAi?$AAl@ 004ebd2c     libucrt:nlsdata.obj
 0002:00003d38       ??_C@_19EPFLPGAP@?$AAJ?$AAu?$AAn?$AAe@ 004ebd38     libucrt:nlsdata.obj
 0002:00003d44       ??_C@_19BIFMLPCD@?$AAJ?$AAu?$AAl?$AAy@ 004ebd44     libucrt:nlsdata.obj
 0002:00003d50       ??_C@_1O@PAHLKOAC@?$AAA?$AAu?$AAg?$AAu?$AAs?$AAt@ 004ebd50     libucrt:nlsdata.obj
 0002:00003d60       ??_C@_1BE@DKAAMBJL@?$AAS?$AAe?$AAp?$AAt?$AAe?$AAm?$AAb?$AAe?$AAr@ 004ebd60     libucrt:nlsdata.obj
 0002:00003d74       ??_C@_1BA@EPANDLNG@?$AAO?$AAc?$AAt?$AAo?$AAb?$AAe?$AAr@ 004ebd74     libucrt:nlsdata.obj
 0002:00003d84       ??_C@_1BC@BGLIFPF@?$AAN?$AAo?$AAv?$AAe?$AAm?$AAb?$AAe?$AAr@ 004ebd84     libucrt:nlsdata.obj
 0002:00003d98       ??_C@_1BC@FEMKIFH@?$AAD?$AAe?$AAc?$AAe?$AAm?$AAb?$AAe?$AAr@ 004ebd98     libucrt:nlsdata.obj
 0002:00003dac       ??_C@_15ODEHAHHF@?$AAA?$AAM@ 004ebdac     libucrt:nlsdata.obj
 0002:00003db4       ??_C@_15CLMNNGEL@?$AAP?$AAM@ 004ebdb4     libucrt:nlsdata.obj
 0002:00003dbc       ??_C@_1BC@IEBCMHCM@?$AAM?$AAM?$AA?1?$AAd?$AAd?$AA?1?$AAy?$AAy@ 004ebdbc     libucrt:nlsdata.obj
 0002:00003dd0       ??_C@_1CI@KNAKOEBC@?$AAd?$AAd?$AAd?$AAd?$AA?0?$AA?5?$AAM?$AAM?$AAM?$AAM?$AA?5?$AAd?$AAd?$AA?0?$AA?5@ 004ebdd0     libucrt:nlsdata.obj
 0002:00003df8       ??_C@_1BC@GDGBMEMK@?$AAH?$AAH?$AA?3?$AAm?$AAm?$AA?3?$AAs?$AAs@ 004ebdf8     libucrt:nlsdata.obj
 0002:00003e0c       ??_C@_1M@BMHNFIME@?$AAe?$AAn?$AA?9?$AAU?$AAS@ 004ebe0c     libucrt:nlsdata.obj
 0002:00003e68       ??_C@_1EA@JGEFHKEI@?$AAa?$AAp?$AAi?$AA?9?$AAm?$AAs?$AA?9?$AAw?$AAi?$AAn?$AA?9?$AAc?$AAo?$AAr?$AAe@ 004ebe68     libucrt:winapi_thunks.obj
 0002:00003ea8       ??_C@_1DI@IJCEHOCB@?$AAa?$AAp?$AAi?$AA?9?$AAm?$AAs?$AA?9?$AAw?$AAi?$AAn?$AA?9?$AAc?$AAo?$AAr?$AAe@ 004ebea8     libucrt:winapi_thunks.obj
 0002:00003ee0       ??_C@_1EI@MPIAOHOC@?$AAa?$AAp?$AAi?$AA?9?$AAm?$AAs?$AA?9?$AAw?$AAi?$AAn?$AA?9?$AAc?$AAo?$AAr?$AAe@ 004ebee0     libucrt:winapi_thunks.obj
 0002:00003f28       ??_C@_1FK@FPHCKFIE@?$AAa?$AAp?$AAi?$AA?9?$AAm?$AAs?$AA?9?$AAw?$AAi?$AAn?$AA?9?$AAc?$AAo?$AAr?$AAe@ 004ebf28     libucrt:winapi_thunks.obj
 0002:00003f88       ??_C@_1EM@DILCGIIO@?$AAa?$AAp?$AAi?$AA?9?$AAm?$AAs?$AA?9?$AAw?$AAi?$AAn?$AA?9?$AAc?$AAo?$AAr?$AAe@ 004ebf88     libucrt:winapi_thunks.obj
 0002:00003fd4       ??_C@_1DM@LNCGDDPN@?$AAa?$AAp?$AAi?$AA?9?$AAm?$AAs?$AA?9?$AAw?$AAi?$AAn?$AA?9?$AAc?$AAo?$AAr?$AAe@ 004ebfd4     libucrt:winapi_thunks.obj
 0002:00004010       ??_C@_1DO@FPAPJEMD@?$AAa?$AAp?$AAi?$AA?9?$AAm?$AAs?$AA?9?$AAw?$AAi?$AAn?$AA?9?$AAc?$AAo?$AAr?$AAe@ 004ec010     libucrt:winapi_thunks.obj
 0002:00004050       ??_C@_1DK@NDHNAHIO@?$AAa?$AAp?$AAi?$AA?9?$AAm?$AAs?$AA?9?$AAw?$AAi?$AAn?$AA?9?$AAc?$AAo?$AAr?$AAe@ 004ec050     libucrt:winapi_thunks.obj
 0002:0000408c       ??_C@_1DM@KGHDGBCM@?$AAa?$AAp?$AAi?$AA?9?$AAm?$AAs?$AA?9?$AAw?$AAi?$AAn?$AA?9?$AAc?$AAo?$AAr?$AAe@ 004ec08c     libucrt:winapi_thunks.obj
 0002:000040c8       ??_C@_1EO@IJIOEFOH@?$AAa?$AAp?$AAi?$AA?9?$AAm?$AAs?$AA?9?$AAw?$AAi?$AAn?$AA?9?$AAr?$AAt?$AAc?$AAo@ 004ec0c8     libucrt:winapi_thunks.obj
 0002:00004118       ??_C@_1FG@HHGEKANL@?$AAa?$AAp?$AAi?$AA?9?$AAm?$AAs?$AA?9?$AAw?$AAi?$AAn?$AA?9?$AAs?$AAe?$AAc?$AAu@ 004ec118     libucrt:winapi_thunks.obj
 0002:00004170       ??_C@_1EG@DBIOJECG@?$AAe?$AAx?$AAt?$AA?9?$AAm?$AAs?$AA?9?$AAw?$AAi?$AAn?$AA?9?$AAn?$AAt?$AAu?$AAs@ 004ec170     libucrt:winapi_thunks.obj
 0002:000041b8       ??_C@_1EO@FIHMJCLF@?$AAe?$AAx?$AAt?$AA?9?$AAm?$AAs?$AA?9?$AAw?$AAi?$AAn?$AA?9?$AAn?$AAt?$AAu?$AAs@ 004ec1b8     libucrt:winapi_thunks.obj
 0002:00004208       ??_C@_1BC@DNHGCMLG@?$AAa?$AAd?$AAv?$AAa?$AAp?$AAi?$AA3?$AA2@ 004ec208     libucrt:winapi_thunks.obj
 0002:0000421c       ??_C@_1M@OAIMIKLP@?$AAn?$AAt?$AAd?$AAl?$AAl@ 004ec21c     libucrt:winapi_thunks.obj
 0002:00004228       ??_C@_1EG@DPGNFKGC@?$AAa?$AAp?$AAi?$AA?9?$AAm?$AAs?$AA?9?$AAw?$AAi?$AAn?$AA?9?$AAa?$AAp?$AAp?$AAm@ 004ec228     libucrt:winapi_thunks.obj
 0002:00004270       ??_C@_1O@BCCLBEOE@?$AAu?$AAs?$AAe?$AAr?$AA3?$AA2@ 004ec270     libucrt:winapi_thunks.obj
 0002:00004280       ??_C@_1BA@IAIFMGEF@?$AAe?$AAx?$AAt?$AA?9?$AAm?$AAs?$AA?9@ 004ec280     libucrt:winapi_thunks.obj
 0002:00004294       ??_C@_0BA@FHFNEAED@AreFileApisANSI@ 004ec294     libucrt:winapi_thunks.obj
 0002:000042d4       ??_C@_0O@KKBNKAPF@LCMapStringEx@ 004ec2d4     libucrt:winapi_thunks.obj
 0002:000042ec       ??_C@_0BB@HBDEELFH@LocaleNameToLCID@ 004ec2ec     libucrt:winapi_thunks.obj
 0002:00004304       ??_C@_0CF@OJOFEIGO@AppPolicyGetProcessTerminationM@ 004ec304     libucrt:winapi_thunks.obj
 0002:00004330       ___newctype                004ec330     libucrt:ctype.obj
 0002:00004630       ___newclmap                004ec630     libucrt:ctype.obj
 0002:000047b0       ___newcumap                004ec7b0     libucrt:ctype.obj
 0002:00004930       __wctype                   004ec930     libucrt:ctype.obj
 0002:00004c20       ??_C@_03KHJOGHMM@exp@      004ecc20     libucrt:fpexcept.obj
 0002:00004c24       ??_C@_03JGHBODFD@pow@      004ecc24     libucrt:fpexcept.obj
 0002:00004c28       ??_C@_03MGHMBJCF@log@      004ecc28     libucrt:fpexcept.obj
 0002:00004c2c       ??_C@_05HGHHAHAP@log10@    004ecc2c     libucrt:fpexcept.obj
 0002:00004c34       ??_C@_04COOMCNPB@sinh@     004ecc34     libucrt:fpexcept.obj
 0002:00004c3c       ??_C@_04HPJJNFIM@cosh@     004ecc3c     libucrt:fpexcept.obj
 0002:00004c44       ??_C@_04FJHINJAO@tanh@     004ecc44     libucrt:fpexcept.obj
 0002:00004c4c       ??_C@_04FIHNOPOL@asin@     004ecc4c     libucrt:fpexcept.obj
 0002:00004c54       ??_C@_04PDIFKINK@acos@     004ecc54     libucrt:fpexcept.obj
 0002:00004c5c       ??_C@_04MLLJIGOK@atan@     004ecc5c     libucrt:fpexcept.obj
 0002:00004c64       ??_C@_05KNGEOGJB@atan2@    004ecc64     libucrt:fpexcept.obj
 0002:00004c6c       ??_C@_04EIAKFFMI@sqrt@     004ecc6c     libucrt:fpexcept.obj
 0002:00004c74       ??_C@_03BLEJJJBH@sin@      004ecc74     libucrt:fpexcept.obj
 0002:00004c78       ??_C@_03LALBNOCG@cos@      004ecc78     libucrt:fpexcept.obj
 0002:00004c7c       ??_C@_03IIINPABG@tan@      004ecc7c     libucrt:fpexcept.obj
 0002:00004c80       ??_C@_04GFPJNGEK@ceil@     004ecc80     libucrt:fpexcept.obj
 0002:00004c88       ??_C@_05PBJFFIGL@floor@    004ecc88     libucrt:fpexcept.obj
 0002:00004c90       ??_C@_04ODHECPBC@fabs@     004ecc90     libucrt:fpexcept.obj
 0002:00004c98       ??_C@_04EHEDPDJG@modf@     004ecc98     libucrt:fpexcept.obj
 0002:00004ca0       ??_C@_05CEJMAHNP@ldexp@    004ecca0     libucrt:fpexcept.obj
 0002:00004ca8       ??_C@_05KBKMEMPO@_cabs@    004ecca8     libucrt:fpexcept.obj
 0002:00004cb0       ??_C@_06MEIMCGCF@_hypot@   004eccb0     libucrt:fpexcept.obj
 0002:00004cb8       ??_C@_04KEPJIHGP@fmod@     004eccb8     libucrt:fpexcept.obj
 0002:00004cc0       ??_C@_05GKKHEGJL@frexp@    004eccc0     libucrt:fpexcept.obj
 0002:00004cc8       ??_C@_03MJLDFKDL@_y0@      004eccc8     libucrt:fpexcept.obj
 0002:00004ccc       ??_C@_03NAKIGLHK@_y1@      004ecccc     libucrt:fpexcept.obj
 0002:00004cd0       ??_C@_03ONILCKOB@_yn@      004eccd0     libucrt:fpexcept.obj
 0002:00004cd4       ??_C@_05JGDBENOH@_logb@    004eccd4     libucrt:fpexcept.obj
 0002:00004cdc       ??_C@_0L@KDOEJCKC@_nextafter@ 004eccdc     libucrt:fpexcept.obj
 0002:00004ce8       __d_inf                    004ecce8     libucrt:util.obj
 0002:00004cf0       __d_max                    004eccf0     libucrt:util.obj
 0002:00004cf8       __d_mzero                  004eccf8     libucrt:util.obj
 0002:00004d28       ??_C@_1M@HPNHIDJI@?$AAj?$AAa?$AA?9?$AAJ?$AAP@ 004ecd28     libucrt:mbctype.obj
 0002:00004d34       ??_C@_1M@BIBDDEMK@?$AAz?$AAh?$AA?9?$AAC?$AAN@ 004ecd34     libucrt:mbctype.obj
 0002:00004d40       ??_C@_1M@JLOOOEGK@?$AAk?$AAo?$AA?9?$AAK?$AAR@ 004ecd40     libucrt:mbctype.obj
 0002:00004d4c       ??_C@_1M@CLNBBOPM@?$AAz?$AAh?$AA?9?$AAT?$AAW@ 004ecd4c     libucrt:mbctype.obj
 0002:00004d58       ??_C@_15PJPFLCCM@?$AAu?$AAk@ 004ecd58     libucrt:get_qualified_locale.obj
 0002:00004d60       ??_C@_01GBGANLPD@0@        004ecd60     libucrt:cfout.obj
 0002:00004d64       ??_C@_05DNEBIAHO@1?$CDINF@ 004ecd64     libucrt:cfout.obj
 0002:00004d6c       ??_C@_06IMKFLFPG@1?$CDQNAN@ 004ecd6c     libucrt:cfout.obj
 0002:00004d74       ??_C@_06PGGFOGJG@1?$CDSNAN@ 004ecd74     libucrt:cfout.obj
 0002:00004d7c       ??_C@_05PHHOCPM@1?$CDIND@  004ecd7c     libucrt:cfout.obj
 0002:000054a8       ??_C@_15EMKDOKLE@?$AAa?$AAr@ 004ed4a8     libucrt:lcidtoname_downlevel.obj
 0002:000054b0       ??_C@_15KNPADPLH@?$AAb?$AAg@ 004ed4b0     libucrt:lcidtoname_downlevel.obj
 0002:000054b8       ??_C@_15EDMHLDMO@?$AAc?$AAa@ 004ed4b8     libucrt:lcidtoname_downlevel.obj
 0002:000054c0       ??_C@_1O@BPEAJADD@?$AAz?$AAh?$AA?9?$AAC?$AAH?$AAS@ 004ed4c0     libucrt:lcidtoname_downlevel.obj
 0002:000054d0       ??_C@_15LJNHCMNK@?$AAc?$AAs@ 004ed4d0     libucrt:lcidtoname_downlevel.obj
 0002:000054d8       ??_C@_15FOMCIDHG@?$AAd?$AAa@ 004ed4d8     libucrt:lcidtoname_downlevel.obj
 0002:000054e0       ??_C@_15NBKABECB@?$AAd?$AAe@ 004ed4e0     libucrt:lcidtoname_downlevel.obj
 0002:000054e8       ??_C@_15GHPEIIAO@?$AAe?$AAl@ 004ed4e8     libucrt:lcidtoname_downlevel.obj
 0002:000054f0       ??_C@_15GPIOMPMH@?$AAe?$AAs@ 004ed4f0     libucrt:lcidtoname_downlevel.obj
 0002:000054f8       ??_C@_15NGLOAKJC@?$AAf?$AAi@ 004ed4f8     libucrt:lcidtoname_downlevel.obj
 0002:00005500       ??_C@_15FBKGNKAM@?$AAf?$AAr@ 004ed500     libucrt:lcidtoname_downlevel.obj
 0002:00005508       ??_C@_15KGGCNEFK@?$AAh?$AAe@ 004ed508     libucrt:lcidtoname_downlevel.obj
 0002:00005510       ??_C@_15PGHLIDMF@?$AAh?$AAu@ 004ed510     libucrt:lcidtoname_downlevel.obj
 0002:00005518       ??_C@_15BIEMAPLM@?$AAi?$AAs@ 004ed518     libucrt:lcidtoname_downlevel.obj
 0002:00005520       ??_C@_15IFJLDHAF@?$AAi?$AAt@ 004ed520     libucrt:lcidtoname_downlevel.obj
 0002:00005528       ??_C@_15GEMIOCAG@?$AAj?$AAa@ 004ed528     libucrt:lcidtoname_downlevel.obj
 0002:00005530       ??_C@_15EPELEGJA@?$AAk?$AAo@ 004ed530     libucrt:lcidtoname_downlevel.obj
 0002:00005538       ??_C@_15NDDHIMN@?$AAn?$AAl@ 004ed538     libucrt:lcidtoname_downlevel.obj
 0002:00005540       ??_C@_15BPIGNHCD@?$AAn?$AAo@ 004ed540     libucrt:lcidtoname_downlevel.obj
 0002:00005548       ??_C@_15DEOPBLCG@?$AAp?$AAl@ 004ed548     libucrt:lcidtoname_downlevel.obj
 0002:00005550       ??_C@_15KBECGEFG@?$AAp?$AAt@ 004ed550     libucrt:lcidtoname_downlevel.obj
 0002:00005558       ??_C@_15GLJCBFMD@?$AAr?$AAo@ 004ed558     libucrt:lcidtoname_downlevel.obj
 0002:00005560       ??_C@_15FEDGKCDI@?$AAr?$AAu@ 004ed560     libucrt:lcidtoname_downlevel.obj
 0002:00005568       ??_C@_15GLKMLLHM@?$AAh?$AAr@ 004ed568     libucrt:lcidtoname_downlevel.obj
 0002:00005570       ??_C@_15CPKMFBDB@?$AAs?$AAk@ 004ed570     libucrt:lcidtoname_downlevel.obj
 0002:00005578       ??_C@_15BAAIOGMK@?$AAs?$AAq@ 004ed578     libucrt:lcidtoname_downlevel.obj
 0002:00005580       ??_C@_15INNPNOHD@?$AAs?$AAv@ 004ed580     libucrt:lcidtoname_downlevel.obj
 0002:00005588       ??_C@_15CABMMOGH@?$AAt?$AAh@ 004ed588     libucrt:lcidtoname_downlevel.obj
 0002:00005590       ??_C@_15BPLIHJJM@?$AAt?$AAr@ 004ed590     libucrt:lcidtoname_downlevel.obj
 0002:00005598       ??_C@_15NEOEKKDJ@?$AAu?$AAr@ 004ed598     libucrt:lcidtoname_downlevel.obj
 0002:000055a0       ??_C@_15NFICGAJK@?$AAi?$AAd@ 004ed5a0     libucrt:lcidtoname_downlevel.obj
 0002:000055a8       ??_C@_15HPJPHDM@?$AAb?$AAe@ 004ed5a8     libucrt:lcidtoname_downlevel.obj
 0002:000055b0       ??_C@_15LCHLGJII@?$AAs?$AAl@ 004ed5b0     libucrt:lcidtoname_downlevel.obj
 0002:000055b8       ??_C@_15PCFJPHHO@?$AAe?$AAt@ 004ed5b8     libucrt:lcidtoname_downlevel.obj
 0002:000055c0       ??_C@_15HPFPGODN@?$AAl?$AAv@ 004ed5c0     libucrt:lcidtoname_downlevel.obj
 0002:000055c8       ??_C@_15NFFGKGLG@?$AAl?$AAt@ 004ed5c8     libucrt:lcidtoname_downlevel.obj
 0002:000055d0       ??_C@_15BDAKCCHN@?$AAf?$AAa@ 004ed5d0     libucrt:lcidtoname_downlevel.obj
 0002:000055d8       ??_C@_15NFGIAIAJ@?$AAv?$AAi@ 004ed5d8     libucrt:lcidtoname_downlevel.obj
 0002:000055e0       ??_C@_15LMKNDMHN@?$AAh?$AAy@ 004ed5e0     libucrt:lcidtoname_downlevel.obj
 0002:000055e8       ??_C@_15IJBHMCFL@?$AAa?$AAz@ 004ed5e8     libucrt:lcidtoname_downlevel.obj
 0002:000055f0       ??_C@_15EKOFJABL@?$AAe?$AAu@ 004ed5f0     libucrt:lcidtoname_downlevel.obj
 0002:000055f8       ??_C@_15BGHADCNK@?$AAm?$AAk@ 004ed5f8     libucrt:lcidtoname_downlevel.obj
 0002:00005600       ??_C@_15JDNICKHM@?$AAa?$AAf@ 004ed600     libucrt:lcidtoname_downlevel.obj
 0002:00005608       ??_C@_15KPJEDBKD@?$AAk?$AAa@ 004ed608     libucrt:lcidtoname_downlevel.obj
 0002:00005610       ??_C@_15PDNFFFEO@?$AAf?$AAo@ 004ed610     libucrt:lcidtoname_downlevel.obj
 0002:00005618       ??_C@_15OMLEGLOC@?$AAh?$AAi@ 004ed618     libucrt:lcidtoname_downlevel.obj
 0002:00005620       ??_C@_15IDNNENKK@?$AAm?$AAs@ 004ed620     libucrt:lcidtoname_downlevel.obj
 0002:00005628       ??_C@_15MACJNBMH@?$AAk?$AAk@ 004ed628     libucrt:lcidtoname_downlevel.obj
 0002:00005630       ??_C@_15DKDJEOND@?$AAk?$AAy@ 004ed630     libucrt:lcidtoname_downlevel.obj
 0002:00005638       ??_C@_15DFGDLJBG@?$AAs?$AAw@ 004ed638     libucrt:lcidtoname_downlevel.obj
 0002:00005640       ??_C@_15BBFAICNG@?$AAu?$AAz@ 004ed640     libucrt:lcidtoname_downlevel.obj
 0002:00005648       ??_C@_15DKNDCGEA@?$AAt?$AAt@ 004ed648     libucrt:lcidtoname_downlevel.obj
 0002:00005650       ??_C@_15MGIFMDPL@?$AAp?$AAa@ 004ed650     libucrt:lcidtoname_downlevel.obj
 0002:00005658       ??_C@_15HCNDBBA@?$AAg?$AAu@ 004ed658     libucrt:lcidtoname_downlevel.obj
 0002:00005660       ??_C@_15FNBEIBON@?$AAt?$AAa@ 004ed660     libucrt:lcidtoname_downlevel.obj
 0002:00005668       ??_C@_15NCHGBGLK@?$AAt?$AAe@ 004ed668     libucrt:lcidtoname_downlevel.obj
 0002:00005670       ??_C@_15PHPHCBPF@?$AAk?$AAn@ 004ed670     libucrt:lcidtoname_downlevel.obj
 0002:00005678       ??_C@_15DLGBCKMP@?$AAm?$AAr@ 004ed678     libucrt:lcidtoname_downlevel.obj
 0002:00005680       ??_C@_15EABBLBFF@?$AAs?$AAa@ 004ed680     libucrt:lcidtoname_downlevel.obj
 0002:00005688       ??_C@_15CBKOMCOI@?$AAm?$AAn@ 004ed688     libucrt:lcidtoname_downlevel.obj
 0002:00005690       ??_C@_15CKDMCJAF@?$AAg?$AAl@ 004ed690     libucrt:lcidtoname_downlevel.obj
 0002:00005698       ??_C@_17CNJFBPG@?$AAk?$AAo?$AAk@ 004ed698     libucrt:lcidtoname_downlevel.obj
 0002:000056a0       ??_C@_17FFBJICPL@?$AAs?$AAy?$AAr@ 004ed6a0     libucrt:lcidtoname_downlevel.obj
 0002:000056a8       ??_C@_17KPNDCPAF@?$AAd?$AAi?$AAv@ 004ed6a8     libucrt:lcidtoname_downlevel.obj
 0002:000056b0       ??_C@_1M@OKAHONE@?$AAa?$AAr?$AA?9?$AAS?$AAA@ 004ed6b0     libucrt:lcidtoname_downlevel.obj
 0002:000056bc       ??_C@_1M@FFFIGIGK@?$AAb?$AAg?$AA?9?$AAB?$AAG@ 004ed6bc     libucrt:lcidtoname_downlevel.obj
 0002:000056c8       ??_C@_1M@BJNKEDC@?$AAc?$AAa?$AA?9?$AAE?$AAS@ 004ed6c8     libucrt:lcidtoname_downlevel.obj
 0002:000056d4       ??_C@_1M@IJJHFJHA@?$AAc?$AAs?$AA?9?$AAC?$AAZ@ 004ed6d4     libucrt:lcidtoname_downlevel.obj
 0002:000056e0       ??_C@_1M@CLPEOBGI@?$AAd?$AAa?$AA?9?$AAD?$AAK@ 004ed6e0     libucrt:lcidtoname_downlevel.obj
 0002:000056ec       ??_C@_1M@MCMADGCB@?$AAd?$AAe?$AA?9?$AAD?$AAE@ 004ed6ec     libucrt:lcidtoname_downlevel.obj
 0002:000056f8       ??_C@_1M@OOCKEMAM@?$AAe?$AAl?$AA?9?$AAG?$AAR@ 004ed6f8     libucrt:lcidtoname_downlevel.obj
 0002:00005704       ??_C@_1M@DDNJFGID@?$AAf?$AAi?$AA?9?$AAF?$AAI@ 004ed704     libucrt:lcidtoname_downlevel.obj
 0002:00005710       ??_C@_1M@GLIPPMAC@?$AAf?$AAr?$AA?9?$AAF?$AAR@ 004ed710     libucrt:lcidtoname_downlevel.obj
 0002:0000571c       ??_C@_1M@GFMCHPE@?$AAh?$AAe?$AA?9?$AAI?$AAL@ 004ed71c     libucrt:lcidtoname_downlevel.obj
 0002:00005728       ??_C@_1M@MHLPGNKM@?$AAh?$AAu?$AA?9?$AAH?$AAU@ 004ed728     libucrt:lcidtoname_downlevel.obj
 0002:00005734       ??_C@_1M@LPDDNNPN@?$AAi?$AAs?$AA?9?$AAI?$AAS@ 004ed734     libucrt:lcidtoname_downlevel.obj
 0002:00005740       ??_C@_1M@MADIPODN@?$AAi?$AAt?$AA?9?$AAI?$AAT@ 004ed740     libucrt:lcidtoname_downlevel.obj
 0002:0000574c       ??_C@_1M@IHBJJGG@?$AAn?$AAl?$AA?9?$AAN?$AAL@ 004ed74c     libucrt:lcidtoname_downlevel.obj
 0002:00005758       ??_C@_1M@EANAGDL@?$AAn?$AAb?$AA?9?$AAN?$AAO@ 004ed758     libucrt:lcidtoname_downlevel.obj
 0002:00005764       ??_C@_1M@NEIEMEGP@?$AAp?$AAl?$AA?9?$AAP?$AAL@ 004ed764     libucrt:lcidtoname_downlevel.obj
 0002:00005770       ??_C@_1M@BOCFIGEP@?$AAp?$AAt?$AA?9?$AAB?$AAR@ 004ed770     libucrt:lcidtoname_downlevel.obj
 0002:0000577c       ??_C@_1M@IMPFOPBG@?$AAr?$AAo?$AA?9?$AAR?$AAO@ 004ed77c     libucrt:lcidtoname_downlevel.obj
 0002:00005788       ??_C@_1M@IDNNEJMM@?$AAr?$AAu?$AA?9?$AAR?$AAU@ 004ed788     libucrt:lcidtoname_downlevel.obj
 0002:00005794       ??_C@_1M@LILEEOGM@?$AAh?$AAr?$AA?9?$AAH?$AAR@ 004ed794     libucrt:lcidtoname_downlevel.obj
 0002:000057a0       ??_C@_1M@FKIFEHPB@?$AAs?$AAk?$AA?9?$AAS?$AAK@ 004ed7a0     libucrt:lcidtoname_downlevel.obj
 0002:000057ac       ??_C@_1M@LJMAMNPJ@?$AAs?$AAq?$AA?9?$AAA?$AAL@ 004ed7ac     libucrt:lcidtoname_downlevel.obj
 0002:000057b8       ??_C@_1M@GIAKDKJK@?$AAs?$AAv?$AA?9?$AAS?$AAE@ 004ed7b8     libucrt:lcidtoname_downlevel.obj
 0002:000057c4       ??_C@_1M@MKJKIKCL@?$AAt?$AAh?$AA?9?$AAT?$AAH@ 004ed7c4     libucrt:lcidtoname_downlevel.obj
 0002:000057d0       ??_C@_1M@MFLCCMPB@?$AAt?$AAr?$AA?9?$AAT?$AAR@ 004ed7d0     libucrt:lcidtoname_downlevel.obj
 0002:000057dc       ??_C@_1M@OIJHDKJN@?$AAu?$AAr?$AA?9?$AAP?$AAK@ 004ed7dc     libucrt:lcidtoname_downlevel.obj
 0002:000057e8       ??_C@_1M@LHIPCIEK@?$AAi?$AAd?$AA?9?$AAI?$AAD@ 004ed7e8     libucrt:lcidtoname_downlevel.obj
 0002:000057f4       ??_C@_1M@MFMOBGI@?$AAu?$AAk?$AA?9?$AAU?$AAA@ 004ed7f4     libucrt:lcidtoname_downlevel.obj
 0002:00005800       ??_C@_1M@OBGLJIPL@?$AAb?$AAe?$AA?9?$AAB?$AAY@ 004ed800     libucrt:lcidtoname_downlevel.obj
 0002:0000580c       ??_C@_1M@BCFAJEAD@?$AAs?$AAl?$AA?9?$AAS?$AAI@ 004ed80c     libucrt:lcidtoname_downlevel.obj
 0002:00005818       ??_C@_1M@FKFFEDDN@?$AAe?$AAt?$AA?9?$AAE?$AAE@ 004ed818     libucrt:lcidtoname_downlevel.obj
 0002:00005824       ??_C@_1M@KGKKAACI@?$AAl?$AAv?$AA?9?$AAL?$AAV@ 004ed824     libucrt:lcidtoname_downlevel.obj
 0002:00005830       ??_C@_1M@IFGBIJO@?$AAl?$AAt?$AA?9?$AAL?$AAT@ 004ed830     libucrt:lcidtoname_downlevel.obj
 0002:0000583c       ??_C@_1M@FGEAHEDM@?$AAf?$AAa?$AA?9?$AAI?$AAR@ 004ed83c     libucrt:lcidtoname_downlevel.obj
 0002:00005848       ??_C@_1M@KBMAIBFN@?$AAv?$AAi?$AA?9?$AAV?$AAN@ 004ed848     libucrt:lcidtoname_downlevel.obj
 0002:00005854       ??_C@_1M@GPCBKDJK@?$AAh?$AAy?$AA?9?$AAA?$AAM@ 004ed854     libucrt:lcidtoname_downlevel.obj
 0002:00005860       ??_C@_1BG@BECMDDJB@?$AAa?$AAz?$AA?9?$AAA?$AAZ?$AA?9?$AAL?$AAa?$AAt?$AAn@ 004ed860     libucrt:lcidtoname_downlevel.obj
 0002:00005878       ??_C@_1M@MAOFCAEA@?$AAe?$AAu?$AA?9?$AAE?$AAS@ 004ed878     libucrt:lcidtoname_downlevel.obj
 0002:00005884       ??_C@_1M@IGHABKPI@?$AAm?$AAk?$AA?9?$AAM?$AAK@ 004ed884     libucrt:lcidtoname_downlevel.obj
 0002:00005890       ??_C@_1M@IAIGNEJG@?$AAt?$AAn?$AA?9?$AAZ?$AAA@ 004ed890     libucrt:lcidtoname_downlevel.obj
 0002:0000589c       ??_C@_1M@IIJCOJFA@?$AAx?$AAh?$AA?9?$AAZ?$AAA@ 004ed89c     libucrt:lcidtoname_downlevel.obj
 0002:000058a8       ??_C@_1M@LGPJHNJH@?$AAz?$AAu?$AA?9?$AAZ?$AAA@ 004ed8a8     libucrt:lcidtoname_downlevel.obj
 0002:000058b4       ??_C@_1M@HOKAOIO@?$AAa?$AAf?$AA?9?$AAZ?$AAA@ 004ed8b4     libucrt:lcidtoname_downlevel.obj
 0002:000058c0       ??_C@_1M@DPCLHLIE@?$AAk?$AAa?$AA?9?$AAG?$AAE@ 004ed8c0     libucrt:lcidtoname_downlevel.obj
 0002:000058cc       ??_C@_1M@BLKMHJBI@?$AAf?$AAo?$AA?9?$AAF?$AAO@ 004ed8cc     libucrt:lcidtoname_downlevel.obj
 0002:000058d8       ??_C@_1M@LGGJAPPB@?$AAh?$AAi?$AA?9?$AAI?$AAN@ 004ed8d8     libucrt:lcidtoname_downlevel.obj
 0002:000058e4       ??_C@_1M@FIKPIHFE@?$AAm?$AAt?$AA?9?$AAM?$AAT@ 004ed8e4     libucrt:lcidtoname_downlevel.obj
 0002:000058f0       ??_C@_1M@HEGGPBFA@?$AAs?$AAe?$AA?9?$AAN?$AAO@ 004ed8f0     libucrt:lcidtoname_downlevel.obj
 0002:000058fc       ??_C@_1M@EIBJEEPA@?$AAm?$AAs?$AA?9?$AAM?$AAY@ 004ed8fc     libucrt:lcidtoname_downlevel.obj
 0002:00005908       ??_C@_1M@FHLBGMPP@?$AAk?$AAk?$AA?9?$AAK?$AAZ@ 004ed908     libucrt:lcidtoname_downlevel.obj
 0002:00005914       ??_C@_1M@NGJJLCGI@?$AAk?$AAy?$AA?9?$AAK?$AAG@ 004ed914     libucrt:lcidtoname_downlevel.obj
 0002:00005920       ??_C@_1M@GIENNBFC@?$AAs?$AAw?$AA?9?$AAK?$AAE@ 004ed920     libucrt:lcidtoname_downlevel.obj
 0002:0000592c       ??_C@_1BG@NDGMJIMJ@?$AAu?$AAz?$AA?9?$AAU?$AAZ?$AA?9?$AAL?$AAa?$AAt?$AAn@ 004ed92c     libucrt:lcidtoname_downlevel.obj
 0002:00005944       ??_C@_1M@IDCCIHBC@?$AAt?$AAt?$AA?9?$AAR?$AAU@ 004ed944     libucrt:lcidtoname_downlevel.obj
 0002:00005950       ??_C@_1M@LOICPMOJ@?$AAb?$AAn?$AA?9?$AAI?$AAN@ 004ed950     libucrt:lcidtoname_downlevel.obj
 0002:0000595c       ??_C@_1M@KPKKNEAH@?$AAp?$AAa?$AA?9?$AAI?$AAN@ 004ed95c     libucrt:lcidtoname_downlevel.obj
 0002:00005968       ??_C@_1M@PJGPPBOG@?$AAg?$AAu?$AA?9?$AAI?$AAN@ 004ed968     libucrt:lcidtoname_downlevel.obj
 0002:00005974       ??_C@_1M@KMKMOPHI@?$AAt?$AAa?$AA?9?$AAI?$AAN@ 004ed974     libucrt:lcidtoname_downlevel.obj
 0002:00005980       ??_C@_1M@KFEHEPAC@?$AAt?$AAe?$AA?9?$AAI?$AAN@ 004ed980     libucrt:lcidtoname_downlevel.obj
 0002:0000598c       ??_C@_1M@CDCLMGHI@?$AAk?$AAn?$AA?9?$AAI?$AAN@ 004ed98c     libucrt:lcidtoname_downlevel.obj
 0002:00005998       ??_C@_1M@MIODLDKF@?$AAm?$AAl?$AA?9?$AAI?$AAN@ 004ed998     libucrt:lcidtoname_downlevel.obj
 0002:000059a4       ??_C@_1M@PBIEACPO@?$AAm?$AAr?$AA?9?$AAI?$AAN@ 004ed9a4     libucrt:lcidtoname_downlevel.obj
 0002:000059b0       ??_C@_1M@NIDEAGPH@?$AAs?$AAa?$AA?9?$AAI?$AAN@ 004ed9b0     libucrt:lcidtoname_downlevel.obj
 0002:000059bc       ??_C@_1M@FHIHCBIO@?$AAm?$AAn?$AA?9?$AAM?$AAN@ 004ed9bc     libucrt:lcidtoname_downlevel.obj
 0002:000059c8       ??_C@_1M@JAIJPENP@?$AAc?$AAy?$AA?9?$AAG?$AAB@ 004ed9c8     libucrt:lcidtoname_downlevel.obj
 0002:000059d4       ??_C@_1M@PHGFBEPN@?$AAg?$AAl?$AA?9?$AAE?$AAS@ 004ed9d4     libucrt:lcidtoname_downlevel.obj
 0002:000059e0       ??_C@_1O@KPIPDNCP@?$AAk?$AAo?$AAk?$AA?9?$AAI?$AAN@ 004ed9e0     libucrt:lcidtoname_downlevel.obj
 0002:000059f0       ??_C@_1O@KNHJLDJA@?$AAs?$AAy?$AAr?$AA?9?$AAS?$AAY@ 004ed9f0     libucrt:lcidtoname_downlevel.obj
 0002:00005a00       ??_C@_1O@MKEKBLAH@?$AAd?$AAi?$AAv?$AA?9?$AAM?$AAV@ 004eda00     libucrt:lcidtoname_downlevel.obj
 0002:00005a10       ??_C@_1O@OHDCKDDF@?$AAq?$AAu?$AAz?$AA?9?$AAB?$AAO@ 004eda10     libucrt:lcidtoname_downlevel.obj
 0002:00005a20       ??_C@_1M@LEPJNLFD@?$AAn?$AAs?$AA?9?$AAZ?$AAA@ 004eda20     libucrt:lcidtoname_downlevel.obj
 0002:00005a2c       ??_C@_1M@OMLEIIJB@?$AAm?$AAi?$AA?9?$AAN?$AAZ@ 004eda2c     libucrt:lcidtoname_downlevel.obj
 0002:00005a38       ??_C@_1M@PMPEAILG@?$AAa?$AAr?$AA?9?$AAI?$AAQ@ 004eda38     libucrt:lcidtoname_downlevel.obj
 0002:00005a44       ??_C@_1M@CNKPNOEE@?$AAd?$AAe?$AA?9?$AAC?$AAH@ 004eda44     libucrt:lcidtoname_downlevel.obj
 0002:00005a50       ??_C@_1M@LKMGMLKO@?$AAe?$AAn?$AA?9?$AAG?$AAB@ 004eda50     libucrt:lcidtoname_downlevel.obj
 0002:00005a5c       ??_C@_1M@PGKJFFGL@?$AAe?$AAs?$AA?9?$AAM?$AAX@ 004eda5c     libucrt:lcidtoname_downlevel.obj
 0002:00005a68       ??_C@_1M@DNNANBDC@?$AAf?$AAr?$AA?9?$AAB?$AAE@ 004eda68     libucrt:lcidtoname_downlevel.obj
 0002:00005a74       ??_C@_1M@HLGMDFHM@?$AAi?$AAt?$AA?9?$AAC?$AAH@ 004eda74     libucrt:lcidtoname_downlevel.obj
 0002:00005a80       ??_C@_1M@CLLBGJH@?$AAn?$AAl?$AA?9?$AAB?$AAE@ 004eda80     libucrt:lcidtoname_downlevel.obj
 0002:00005a8c       ??_C@_1M@BODBOGLF@?$AAn?$AAn?$AA?9?$AAN?$AAO@ 004eda8c     libucrt:lcidtoname_downlevel.obj
 0002:00005a98       ??_C@_1M@HFFAHKAD@?$AAp?$AAt?$AA?9?$AAP?$AAT@ 004eda98     libucrt:lcidtoname_downlevel.obj
 0002:00005aa4       ??_C@_1BG@LNOAKHIE@?$AAs?$AAr?$AA?9?$AAS?$AAP?$AA?9?$AAL?$AAa?$AAt?$AAn@ 004edaa4     libucrt:lcidtoname_downlevel.obj
 0002:00005abc       ??_C@_1M@HBMHBGAK@?$AAs?$AAv?$AA?9?$AAF?$AAI@ 004edabc     libucrt:lcidtoname_downlevel.obj
 0002:00005ac8       ??_C@_1BG@DGCJGJBE@?$AAa?$AAz?$AA?9?$AAA?$AAZ?$AA?9?$AAC?$AAy?$AAr?$AAl@ 004edac8     libucrt:lcidtoname_downlevel.obj
 0002:00005ae0       ??_C@_1M@KEJDAAHB@?$AAs?$AAe?$AA?9?$AAS?$AAE@ 004edae0     libucrt:lcidtoname_downlevel.obj
 0002:00005aec       ??_C@_1M@HEIBJJAD@?$AAm?$AAs?$AA?9?$AAB?$AAN@ 004edaec     libucrt:lcidtoname_downlevel.obj
 0002:00005af8       ??_C@_1BG@PBGJMCEM@?$AAu?$AAz?$AA?9?$AAU?$AAZ?$AA?9?$AAC?$AAy?$AAr?$AAl@ 004edaf8     libucrt:lcidtoname_downlevel.obj
 0002:00005b10       ??_C@_1O@LAOBCMDF@?$AAq?$AAu?$AAz?$AA?9?$AAE?$AAC@ 004edb10     libucrt:lcidtoname_downlevel.obj
 0002:00005b20       ??_C@_1M@POEEMAIO@?$AAa?$AAr?$AA?9?$AAE?$AAG@ 004edb20     libucrt:lcidtoname_downlevel.obj
 0002:00005b2c       ??_C@_1M@EFAKDEDL@?$AAz?$AAh?$AA?9?$AAH?$AAK@ 004edb2c     libucrt:lcidtoname_downlevel.obj
 0002:00005b38       ??_C@_1M@HKKIJHGI@?$AAd?$AAe?$AA?9?$AAA?$AAT@ 004edb38     libucrt:lcidtoname_downlevel.obj
 0002:00005b44       ??_C@_1M@KBFBEHJF@?$AAe?$AAn?$AA?9?$AAA?$AAU@ 004edb44     libucrt:lcidtoname_downlevel.obj
 0002:00005b50       ??_C@_1M@MNPLFAAH@?$AAe?$AAs?$AA?9?$AAE?$AAS@ 004edb50     libucrt:lcidtoname_downlevel.obj
 0002:00005b5c       ??_C@_1M@HJOOJFMA@?$AAf?$AAr?$AA?9?$AAC?$AAA@ 004edb5c     libucrt:lcidtoname_downlevel.obj
 0002:00005b68       ??_C@_1BG@JPOFPNAB@?$AAs?$AAr?$AA?9?$AAS?$AAP?$AA?9?$AAC?$AAy?$AAr?$AAl@ 004edb68     libucrt:lcidtoname_downlevel.obj
 0002:00005b80       ??_C@_1M@LNFOCMOB@?$AAs?$AAe?$AA?9?$AAF?$AAI@ 004edb80     libucrt:lcidtoname_downlevel.obj
 0002:00005b8c       ??_C@_1O@MGJBOAMB@?$AAq?$AAu?$AAz?$AA?9?$AAP?$AAE@ 004edb8c     libucrt:lcidtoname_downlevel.obj
 0002:00005b9c       ??_C@_1M@GJINLBOK@?$AAa?$AAr?$AA?9?$AAL?$AAY@ 004edb9c     libucrt:lcidtoname_downlevel.obj
 0002:00005ba8       ??_C@_1M@GGMNHJNL@?$AAz?$AAh?$AA?9?$AAS?$AAG@ 004edba8     libucrt:lcidtoname_downlevel.obj
 0002:00005bb4       ??_C@_1M@HOIKODND@?$AAd?$AAe?$AA?9?$AAL?$AAU@ 004edbb4     libucrt:lcidtoname_downlevel.obj
 0002:00005bc0       ??_C@_1M@DDOCCGFG@?$AAe?$AAn?$AA?9?$AAC?$AAA@ 004edbc0     libucrt:lcidtoname_downlevel.obj
 0002:00005bcc       ??_C@_1M@BNOEMJLF@?$AAe?$AAs?$AA?9?$AAG?$AAT@ 004edbcc     libucrt:lcidtoname_downlevel.obj
 0002:00005bd8       ??_C@_1M@EOGNKEK@?$AAf?$AAr?$AA?9?$AAC?$AAH@ 004edbd8     libucrt:lcidtoname_downlevel.obj
 0002:00005be4       ??_C@_1M@FLIDJFHL@?$AAh?$AAr?$AA?9?$AAB?$AAA@ 004edbe4     libucrt:lcidtoname_downlevel.obj
 0002:00005bf0       ??_C@_1O@FMCELNAJ@?$AAs?$AAm?$AAj?$AA?9?$AAN?$AAO@ 004edbf0     libucrt:lcidtoname_downlevel.obj
 0002:00005c00       ??_C@_1M@JHGLJMGJ@?$AAa?$AAr?$AA?9?$AAD?$AAZ@ 004edc00     libucrt:lcidtoname_downlevel.obj
 0002:00005c0c       ??_C@_1M@JKKFDCNP@?$AAz?$AAh?$AA?9?$AAM?$AAO@ 004edc0c     libucrt:lcidtoname_downlevel.obj
 0002:00005c18       ??_C@_1M@GEEFALPE@?$AAd?$AAe?$AA?9?$AAL?$AAI@ 004edc18     libucrt:lcidtoname_downlevel.obj
 0002:00005c24       ??_C@_1M@IGEOFBG@?$AAe?$AAn?$AA?9?$AAN?$AAZ@ 004edc24     libucrt:lcidtoname_downlevel.obj
 0002:00005c30       ??_C@_1M@KDBONEHP@?$AAe?$AAs?$AA?9?$AAC?$AAR@ 004edc30     libucrt:lcidtoname_downlevel.obj
 0002:00005c3c       ??_C@_1M@FHMDOHNN@?$AAf?$AAr?$AA?9?$AAL?$AAU@ 004edc3c     libucrt:lcidtoname_downlevel.obj
 0002:00005c48       ??_C@_1BG@NFKKMAFG@?$AAb?$AAs?$AA?9?$AAB?$AAA?$AA?9?$AAL?$AAa?$AAt?$AAn@ 004edc48     libucrt:lcidtoname_downlevel.obj
 0002:00005c60       ??_C@_1O@IMNBEMCI@?$AAs?$AAm?$AAj?$AA?9?$AAS?$AAE@ 004edc60     libucrt:lcidtoname_downlevel.obj
 0002:00005c70       ??_C@_1M@DHHMBNDP@?$AAa?$AAr?$AA?9?$AAM?$AAA@ 004edc70     libucrt:lcidtoname_downlevel.obj
 0002:00005c7c       ??_C@_1M@BNBLJCGH@?$AAe?$AAn?$AA?9?$AAI?$AAE@ 004edc7c     libucrt:lcidtoname_downlevel.obj
 0002:00005c88       ??_C@_1M@GEPAFMDL@?$AAe?$AAs?$AA?9?$AAP?$AAA@ 004edc88     libucrt:lcidtoname_downlevel.obj
 0002:00005c94       ??_C@_1M@OJONDMDL@?$AAf?$AAr?$AA?9?$AAM?$AAC@ 004edc94     libucrt:lcidtoname_downlevel.obj
 0002:00005ca0       ??_C@_1BG@OBCNFJB@?$AAs?$AAr?$AA?9?$AAB?$AAA?$AA?9?$AAL?$AAa?$AAt?$AAn@ 004edca0     libucrt:lcidtoname_downlevel.obj
 0002:00005cb8       ??_C@_1O@KEMEEGPO@?$AAs?$AAm?$AAa?$AA?9?$AAN?$AAO@ 004edcb8     libucrt:lcidtoname_downlevel.obj
 0002:00005cc8       ??_C@_1M@ELMGFODK@?$AAa?$AAr?$AA?9?$AAT?$AAN@ 004edcc8     libucrt:lcidtoname_downlevel.obj
 0002:00005cd4       ??_C@_1M@BHDLHFAF@?$AAe?$AAn?$AA?9?$AAZ?$AAA@ 004edcd4     libucrt:lcidtoname_downlevel.obj
 0002:00005ce0       ??_C@_1M@BMGIGLIF@?$AAe?$AAs?$AA?9?$AAD?$AAO@ 004edce0     libucrt:lcidtoname_downlevel.obj
 0002:00005cec       ??_C@_1BG@CMBHIPBE@?$AAs?$AAr?$AA?9?$AAB?$AAA?$AA?9?$AAC?$AAy?$AAr?$AAl@ 004edcec     libucrt:lcidtoname_downlevel.obj
 0002:00005d04       ??_C@_1O@HEDBLHNP@?$AAs?$AAm?$AAa?$AA?9?$AAS?$AAE@ 004edd04     libucrt:lcidtoname_downlevel.obj
 0002:00005d14       ??_C@_1M@DAGCADIM@?$AAa?$AAr?$AA?9?$AAO?$AAM@ 004edd14     libucrt:lcidtoname_downlevel.obj
 0002:00005d20       ??_C@_1M@FODLMICG@?$AAe?$AAn?$AA?9?$AAJ?$AAM@ 004edd20     libucrt:lcidtoname_downlevel.obj
 0002:00005d2c       ??_C@_1M@DNMLCIHB@?$AAe?$AAs?$AA?9?$AAV?$AAE@ 004edd2c     libucrt:lcidtoname_downlevel.obj
 0002:00005d38       ??_C@_1O@EOKHMKJK@?$AAs?$AAm?$AAs?$AA?9?$AAF?$AAI@ 004edd38     libucrt:lcidtoname_downlevel.obj
 0002:00005d48       ??_C@_1M@CAFJMKOF@?$AAa?$AAr?$AA?9?$AAY?$AAE@ 004edd48     libucrt:lcidtoname_downlevel.obj
 0002:00005d54       ??_C@_1M@CBFHIJLI@?$AAe?$AAn?$AA?9?$AAC?$AAB@ 004edd54     libucrt:lcidtoname_downlevel.obj
 0002:00005d60       ??_C@_1M@BGNFLDN@?$AAe?$AAs?$AA?9?$AAC?$AAO@ 004edd60     libucrt:lcidtoname_downlevel.obj
 0002:00005d6c       ??_C@_1O@JMPHMAMC@?$AAs?$AAm?$AAn?$AA?9?$AAF?$AAI@ 004edd6c     libucrt:lcidtoname_downlevel.obj
 0002:00005d7c       ??_C@_1M@JLANABKE@?$AAa?$AAr?$AA?9?$AAS?$AAY@ 004edd7c     libucrt:lcidtoname_downlevel.obj
 0002:00005d88       ??_C@_1M@HPKGCFGN@?$AAe?$AAn?$AA?9?$AAB?$AAZ@ 004edd88     libucrt:lcidtoname_downlevel.obj
 0002:00005d94       ??_C@_1M@OLJCMLGM@?$AAe?$AAs?$AA?9?$AAP?$AAE@ 004edd94     libucrt:lcidtoname_downlevel.obj
 0002:00005da0       ??_C@_1M@MKKGFKLE@?$AAa?$AAr?$AA?9?$AAJ?$AAO@ 004edda0     libucrt:lcidtoname_downlevel.obj
 0002:00005dac       ??_C@_1M@EKPGLDNI@?$AAe?$AAn?$AA?9?$AAT?$AAT@ 004eddac     libucrt:lcidtoname_downlevel.obj
 0002:00005db8       ??_C@_1M@OONGHFHE@?$AAe?$AAs?$AA?9?$AAA?$AAR@ 004eddb8     libucrt:lcidtoname_downlevel.obj
 0002:00005dc4       ??_C@_1M@OOJFGBHE@?$AAa?$AAr?$AA?9?$AAL?$AAB@ 004eddc4     libucrt:lcidtoname_downlevel.obj
 0002:00005dd0       ??_C@_1M@GCEJHNEG@?$AAe?$AAn?$AA?9?$AAZ?$AAW@ 004eddd0     libucrt:lcidtoname_downlevel.obj
 0002:00005ddc       ??_C@_1M@JNOCAHJI@?$AAe?$AAs?$AA?9?$AAE?$AAC@ 004edddc     libucrt:lcidtoname_downlevel.obj
 0002:00005de8       ??_C@_1M@JEFHPGGB@?$AAa?$AAr?$AA?9?$AAK?$AAW@ 004edde8     libucrt:lcidtoname_downlevel.obj
 0002:00005df4       ??_C@_1M@MLKIBJOJ@?$AAe?$AAn?$AA?9?$AAP?$AAH@ 004eddf4     libucrt:lcidtoname_downlevel.obj
 0002:00005e00       ??_C@_1M@BDNIPEND@?$AAe?$AAs?$AA?9?$AAC?$AAL@ 004ede00     libucrt:lcidtoname_downlevel.obj
 0002:00005e0c       ??_C@_1M@MPNMEKBD@?$AAa?$AAr?$AA?9?$AAA?$AAE@ 004ede0c     libucrt:lcidtoname_downlevel.obj
 0002:00005e18       ??_C@_1M@KBJALCPI@?$AAe?$AAs?$AA?9?$AAU?$AAY@ 004ede18     libucrt:lcidtoname_downlevel.obj
 0002:00005e24       ??_C@_1M@LLCCOAGA@?$AAa?$AAr?$AA?9?$AAB?$AAH@ 004ede24     libucrt:lcidtoname_downlevel.obj
 0002:00005e30       ??_C@_1M@PBFNCDEL@?$AAe?$AAs?$AA?9?$AAP?$AAY@ 004ede30     libucrt:lcidtoname_downlevel.obj
 0002:00005e3c       ??_C@_1M@EDGINPNP@?$AAa?$AAr?$AA?9?$AAQ?$AAA@ 004ede3c     libucrt:lcidtoname_downlevel.obj
 0002:00005e48       ??_C@_1M@MKDBIIJI@?$AAe?$AAs?$AA?9?$AAB?$AAO@ 004ede48     libucrt:lcidtoname_downlevel.obj
 0002:00005e54       ??_C@_1M@CPKKEBLD@?$AAe?$AAs?$AA?9?$AAS?$AAV@ 004ede54     libucrt:lcidtoname_downlevel.obj
 0002:00005e60       ??_C@_1M@NDBGMMJL@?$AAe?$AAs?$AA?9?$AAH?$AAN@ 004ede60     libucrt:lcidtoname_downlevel.obj
 0002:00005e6c       ??_C@_1M@JIJIBHDP@?$AAe?$AAs?$AA?9?$AAN?$AAI@ 004ede6c     libucrt:lcidtoname_downlevel.obj
 0002:00005e78       ??_C@_1M@CGFMKEEK@?$AAe?$AAs?$AA?9?$AAP?$AAR@ 004ede78     libucrt:lcidtoname_downlevel.obj
 0002:00005e84       ??_C@_1O@ICJHKIIK@?$AAz?$AAh?$AA?9?$AAC?$AAH?$AAT@ 004ede84     libucrt:lcidtoname_downlevel.obj
 0002:00005e94       ??_C@_15CLNEJCE@?$AAs?$AAr@ 004ede94     libucrt:lcidtoname_downlevel.obj
 0002:000065c0       ??_C@_1M@KAHEKEIG@?$AAa?$AAf?$AA?9?$AAz?$AAa@ 004ee5c0     libucrt:lcidtoname_downlevel.obj
 0002:000065cc       ??_C@_1M@GIECOABL@?$AAa?$AAr?$AA?9?$AAa?$AAe@ 004ee5cc     libucrt:lcidtoname_downlevel.obj
 0002:000065d8       ??_C@_1M@BMLMEKGI@?$AAa?$AAr?$AA?9?$AAb?$AAh@ 004ee5d8     libucrt:lcidtoname_downlevel.obj
 0002:000065e4       ??_C@_1M@DAPFDGGB@?$AAa?$AAr?$AA?9?$AAd?$AAz@ 004ee5e4     libucrt:lcidtoname_downlevel.obj
 0002:000065f0       ??_C@_1M@FJNKGKIG@?$AAa?$AAr?$AA?9?$AAe?$AAg@ 004ee5f0     libucrt:lcidtoname_downlevel.obj
 0002:000065fc       ??_C@_1M@FLGKKCLO@?$AAa?$AAr?$AA?9?$AAi?$AAq@ 004ee5fc     libucrt:lcidtoname_downlevel.obj
 0002:00006608       ??_C@_1M@GNDIPALM@?$AAa?$AAr?$AA?9?$AAj?$AAo@ 004ee608     libucrt:lcidtoname_downlevel.obj
 0002:00006614       ??_C@_1M@DDMJFMGJ@?$AAa?$AAr?$AA?9?$AAk?$AAw@ 004ee614     libucrt:lcidtoname_downlevel.obj
 0002:00006620       ??_C@_1M@EJALMLHM@?$AAa?$AAr?$AA?9?$AAl?$AAb@ 004ee620     libucrt:lcidtoname_downlevel.obj
 0002:0000662c       ??_C@_1M@MOBDBLOC@?$AAa?$AAr?$AA?9?$AAl?$AAy@ 004ee62c     libucrt:lcidtoname_downlevel.obj
 0002:00006638       ??_C@_1M@JAOCLHDH@?$AAa?$AAr?$AA?9?$AAm?$AAa@ 004ee638     libucrt:lcidtoname_downlevel.obj
 0002:00006644       ??_C@_1M@JHPMKJIE@?$AAa?$AAr?$AA?9?$AAo?$AAm@ 004ee644     libucrt:lcidtoname_downlevel.obj
 0002:00006650       ??_C@_1M@OEPGHFNH@?$AAa?$AAr?$AA?9?$AAq?$AAa@ 004ee650     libucrt:lcidtoname_downlevel.obj
 0002:0000665c       ??_C@_1M@KJDONENM@?$AAa?$AAr?$AA?9?$AAs?$AAa@ 004ee65c     libucrt:lcidtoname_downlevel.obj
 0002:00006668       ??_C@_1M@DMJDKLKM@?$AAa?$AAr?$AA?9?$AAs?$AAy@ 004ee668     libucrt:lcidtoname_downlevel.obj
 0002:00006674       ??_C@_1M@OMFIPEDC@?$AAa?$AAr?$AA?9?$AAt?$AAn@ 004ee674     libucrt:lcidtoname_downlevel.obj
 0002:00006680       ??_C@_1M@IHMHGAON@?$AAa?$AAr?$AA?9?$AAy?$AAe@ 004ee680     libucrt:lcidtoname_downlevel.obj
 0002:0000668c       ??_C@_1BG@KDCPGJGB@?$AAa?$AAz?$AA?9?$AAa?$AAz?$AA?9?$AAc?$AAy?$AAr?$AAl@ 004ee68c     libucrt:lcidtoname_downlevel.obj
 0002:000066a4       ??_C@_1BG@IBCKDDOE@?$AAa?$AAz?$AA?9?$AAa?$AAz?$AA?9?$AAl?$AAa?$AAt?$AAn@ 004ee6a4     libucrt:lcidtoname_downlevel.obj
 0002:000066bc       ??_C@_1M@EGPFDCPD@?$AAb?$AAe?$AA?9?$AAb?$AAy@ 004ee6bc     libucrt:lcidtoname_downlevel.obj
 0002:000066c8       ??_C@_1M@PCMGMCGC@?$AAb?$AAg?$AA?9?$AAb?$AAg@ 004ee6c8     libucrt:lcidtoname_downlevel.obj
 0002:000066d4       ??_C@_1M@BJBMFGOB@?$AAb?$AAn?$AA?9?$AAi?$AAn@ 004ee6d4     libucrt:lcidtoname_downlevel.obj
 0002:000066e0       ??_C@_1BG@EAKMMACD@?$AAb?$AAs?$AA?9?$AAb?$AAa?$AA?9?$AAl?$AAa?$AAt?$AAn@ 004ee6e0     libucrt:lcidtoname_downlevel.obj
 0002:000066f8       ??_C@_1M@KGADAODK@?$AAc?$AAa?$AA?9?$AAe?$AAs@ 004ee6f8     libucrt:lcidtoname_downlevel.obj
 0002:00006704       ??_C@_1M@COAJPDHI@?$AAc?$AAs?$AA?9?$AAc?$AAz@ 004ee704     libucrt:lcidtoname_downlevel.obj
 0002:00006710       ??_C@_1M@DHBHFONH@?$AAc?$AAy?$AA?9?$AAg?$AAb@ 004ee710     libucrt:lcidtoname_downlevel.obj
 0002:0000671c       ??_C@_1M@IMGKELGA@?$AAd?$AAa?$AA?9?$AAd?$AAk@ 004ee71c     libucrt:lcidtoname_downlevel.obj
 0002:00006728       ??_C@_1M@NNDGDNGA@?$AAd?$AAe?$AA?9?$AAa?$AAt@ 004ee728     libucrt:lcidtoname_downlevel.obj
 0002:00006734       ??_C@_1M@IKDBHEEM@?$AAd?$AAe?$AA?9?$AAc?$AAh@ 004ee734     libucrt:lcidtoname_downlevel.obj
 0002:00006740       ??_C@_1M@GFFOJMCJ@?$AAd?$AAe?$AA?9?$AAd?$AAe@ 004ee740     libucrt:lcidtoname_downlevel.obj
 0002:0000674c       ??_C@_1M@MDNLKBPM@?$AAd?$AAe?$AA?9?$AAl?$AAi@ 004ee74c     libucrt:lcidtoname_downlevel.obj
 0002:00006758       ??_C@_1M@NJBEEJNL@?$AAd?$AAe?$AA?9?$AAl?$AAu@ 004ee758     libucrt:lcidtoname_downlevel.obj
 0002:00006764       ??_C@_1O@GNNELBAP@?$AAd?$AAi?$AAv?$AA?9?$AAm?$AAv@ 004ee764     libucrt:lcidtoname_downlevel.obj
 0002:00006774       ??_C@_1M@EJLEOGAE@?$AAe?$AAl?$AA?9?$AAg?$AAr@ 004ee774     libucrt:lcidtoname_downlevel.obj
 0002:00006780       ??_C@_1M@GMPONJN@?$AAe?$AAn?$AA?9?$AAa?$AAu@ 004ee780     libucrt:lcidtoname_downlevel.obj
 0002:0000678c       ??_C@_1M@NIDIIPGF@?$AAe?$AAn?$AA?9?$AAb?$AAz@ 004ee78c     libucrt:lcidtoname_downlevel.obj
 0002:00006798       ??_C@_1M@JEHMIMFO@?$AAe?$AAn?$AA?9?$AAc?$AAa@ 004ee798     libucrt:lcidtoname_downlevel.obj
 0002:000067a4       ??_C@_1M@IGMJCDLA@?$AAe?$AAn?$AA?9?$AAc?$AAb@ 004ee7a4     libucrt:lcidtoname_downlevel.obj
 0002:000067b0       ??_C@_1M@BNFIGBKG@?$AAe?$AAn?$AA?9?$AAg?$AAb@ 004ee7b0     libucrt:lcidtoname_downlevel.obj
 0002:000067bc       ??_C@_1M@LKIFDIGP@?$AAe?$AAn?$AA?9?$AAi?$AAe@ 004ee7bc     libucrt:lcidtoname_downlevel.obj
 0002:000067c8       ??_C@_1M@PJKFGCCO@?$AAe?$AAn?$AA?9?$AAj?$AAm@ 004ee7c8     libucrt:lcidtoname_downlevel.obj
 0002:000067d4       ??_C@_1M@KPPKEPBO@?$AAe?$AAn?$AA?9?$AAn?$AAz@ 004ee7d4     libucrt:lcidtoname_downlevel.obj
 0002:000067e0       ??_C@_1M@GMDGLDOB@?$AAe?$AAn?$AA?9?$AAp?$AAh@ 004ee7e0     libucrt:lcidtoname_downlevel.obj
 0002:000067ec       ??_C@_1M@ONGIBJNA@?$AAe?$AAn?$AA?9?$AAt?$AAt@ 004ee7ec     libucrt:lcidtoname_downlevel.obj
 0002:000067f8       ??_C@_1M@LLODPCMM@?$AAe?$AAn?$AA?9?$AAu?$AAs@ 004ee7f8     libucrt:lcidtoname_downlevel.obj
 0002:00006804       ??_C@_1M@LAKFNPAN@?$AAe?$AAn?$AA?9?$AAz?$AAa@ 004ee804     libucrt:lcidtoname_downlevel.obj
 0002:00006810       ??_C@_1M@MFNHNHEO@?$AAe?$AAn?$AA?9?$AAz?$AAw@ 004ee810     libucrt:lcidtoname_downlevel.obj
 0002:0000681c       ??_C@_1M@EJEINPHM@?$AAe?$AAs?$AA?9?$AAa?$AAr@ 004ee81c     libucrt:lcidtoname_downlevel.obj
 0002:00006828       ??_C@_1M@GNKPCCJA@?$AAe?$AAs?$AA?9?$AAb?$AAo@ 004ee828     libucrt:lcidtoname_downlevel.obj
 0002:00006834       ??_C@_1M@LEEGFONL@?$AAe?$AAs?$AA?9?$AAc?$AAl@ 004ee834     libucrt:lcidtoname_downlevel.obj
 0002:00006840       ??_C@_1M@KGPDPBDF@?$AAe?$AAs?$AA?9?$AAc?$AAo@ 004ee840     libucrt:lcidtoname_downlevel.obj
 0002:0000684c       ??_C@_1M@EIAHOHH@?$AAe?$AAs?$AA?9?$AAc?$AAr@ 004ee84c     libucrt:lcidtoname_downlevel.obj
 0002:00006858       ??_C@_1M@LLPGMBIN@?$AAe?$AAs?$AA?9?$AAd?$AAo@ 004ee858     libucrt:lcidtoname_downlevel.obj
 0002:00006864       ??_C@_1M@DKHMKNJA@?$AAe?$AAs?$AA?9?$AAe?$AAc@ 004ee864     libucrt:lcidtoname_downlevel.obj
 0002:00006870       ??_C@_1M@GKGFPKAP@?$AAe?$AAs?$AA?9?$AAe?$AAs@ 004ee870     libucrt:lcidtoname_downlevel.obj
 0002:0000687c       ??_C@_1M@LKHKGDLN@?$AAe?$AAs?$AA?9?$AAg?$AAt@ 004ee87c     libucrt:lcidtoname_downlevel.obj
 0002:00006888       ??_C@_1M@HEIIGGJD@?$AAe?$AAs?$AA?9?$AAh?$AAn@ 004ee888     libucrt:lcidtoname_downlevel.obj
 0002:00006894       ??_C@_1M@FBDHPPGD@?$AAe?$AAs?$AA?9?$AAm?$AAx@ 004ee894     libucrt:lcidtoname_downlevel.obj
 0002:000068a0       ??_C@_1M@DPAGLNDH@?$AAe?$AAs?$AA?9?$AAn?$AAi@ 004ee8a0     libucrt:lcidtoname_downlevel.obj
 0002:000068ac       ??_C@_1M@MDGOPGDD@?$AAe?$AAs?$AA?9?$AAp?$AAa@ 004ee8ac     libucrt:lcidtoname_downlevel.obj
 0002:000068b8       ??_C@_1M@EMAMGBGE@?$AAe?$AAs?$AA?9?$AAp?$AAe@ 004ee8b8     libucrt:lcidtoname_downlevel.obj
 0002:000068c4       ??_C@_1M@IBMCAOEC@?$AAe?$AAs?$AA?9?$AAp?$AAr@ 004ee8c4     libucrt:lcidtoname_downlevel.obj
 0002:000068d0       ??_C@_1M@FGMDIJED@?$AAe?$AAs?$AA?9?$AAp?$AAy@ 004ee8d0     libucrt:lcidtoname_downlevel.obj
 0002:000068dc       ??_C@_1M@IIDEOLLL@?$AAe?$AAs?$AA?9?$AAs?$AAv@ 004ee8dc     libucrt:lcidtoname_downlevel.obj
 0002:000068e8       ??_C@_1M@GAOBIPA@?$AAe?$AAs?$AA?9?$AAu?$AAy@ 004ee8e8     libucrt:lcidtoname_downlevel.obj
 0002:000068f4       ??_C@_1M@JKFFICHJ@?$AAe?$AAs?$AA?9?$AAv?$AAe@ 004ee8f4     libucrt:lcidtoname_downlevel.obj
 0002:00006900       ??_C@_1M@PNMLOJDF@?$AAe?$AAt?$AA?9?$AAe?$AAe@ 004ee900     libucrt:lcidtoname_downlevel.obj
 0002:0000690c       ??_C@_1M@GHHLIKEI@?$AAe?$AAu?$AA?9?$AAe?$AAs@ 004ee90c     libucrt:lcidtoname_downlevel.obj
 0002:00006918       ??_C@_1M@PBNONODE@?$AAf?$AAa?$AA?9?$AAi?$AAr@ 004ee918     libucrt:lcidtoname_downlevel.obj
 0002:00006924       ??_C@_1M@JEEHPMIL@?$AAf?$AAi?$AA?9?$AAf?$AAi@ 004ee924     libucrt:lcidtoname_downlevel.obj
 0002:00006930       ??_C@_1M@LMDCNDBA@?$AAf?$AAo?$AA?9?$AAf?$AAo@ 004ee930     libucrt:lcidtoname_downlevel.obj
 0002:0000693c       ??_C@_1M@JKEOHLDK@?$AAf?$AAr?$AA?9?$AAb?$AAe@ 004ee93c     libucrt:lcidtoname_downlevel.obj
 0002:00006948       ??_C@_1M@NOHADPMI@?$AAf?$AAr?$AA?9?$AAc?$AAa@ 004ee948     libucrt:lcidtoname_downlevel.obj
 0002:00006954       ??_C@_1M@KDHIHAEC@?$AAf?$AAr?$AA?9?$AAc?$AAh@ 004ee954     libucrt:lcidtoname_downlevel.obj
 0002:00006960       ??_C@_1M@MMBBFGAK@?$AAf?$AAr?$AA?9?$AAf?$AAr@ 004ee960     libucrt:lcidtoname_downlevel.obj
 0002:0000696c       ??_C@_1M@PAFNENNF@?$AAf?$AAr?$AA?9?$AAl?$AAu@ 004ee96c     libucrt:lcidtoname_downlevel.obj
 0002:00006978       ??_C@_1M@EOHDJGDD@?$AAf?$AAr?$AA?9?$AAm?$AAc@ 004ee978     libucrt:lcidtoname_downlevel.obj
 0002:00006984       ??_C@_1M@FAPLLOPF@?$AAg?$AAl?$AA?9?$AAe?$AAs@ 004ee984     libucrt:lcidtoname_downlevel.obj
 0002:00006990       ??_C@_1M@FOPBFLOO@?$AAg?$AAu?$AA?9?$AAi?$AAn@ 004ee990     libucrt:lcidtoname_downlevel.obj
 0002:0000699c       ??_C@_1M@KBMCINPM@?$AAh?$AAe?$AA?9?$AAi?$AAl@ 004ee99c     libucrt:lcidtoname_downlevel.obj
 0002:000069a8       ??_C@_1M@BBPHKFPJ@?$AAh?$AAi?$AA?9?$AAi?$AAn@ 004ee9a8     libucrt:lcidtoname_downlevel.obj
 0002:000069b4       ??_C@_1M@PMBNDPHD@?$AAh?$AAr?$AA?9?$AAb?$AAa@ 004ee9b4     libucrt:lcidtoname_downlevel.obj
 0002:000069c0       ??_C@_1M@BPCKOEGE@?$AAh?$AAr?$AA?9?$AAh?$AAr@ 004ee9c0     libucrt:lcidtoname_downlevel.obj
 0002:000069cc       ??_C@_1M@GACBMHKE@?$AAh?$AAu?$AA?9?$AAh?$AAu@ 004ee9cc     libucrt:lcidtoname_downlevel.obj
 0002:000069d8       ??_C@_1M@MILPAJJC@?$AAh?$AAy?$AA?9?$AAa?$AAm@ 004ee9d8     libucrt:lcidtoname_downlevel.obj
 0002:000069e4       ??_C@_1M@BABBICEC@?$AAi?$AAd?$AA?9?$AAi?$AAd@ 004ee9e4     libucrt:lcidtoname_downlevel.obj
 0002:000069f0       ??_C@_1M@BIKNHHPF@?$AAi?$AAs?$AA?9?$AAi?$AAs@ 004ee9f0     libucrt:lcidtoname_downlevel.obj
 0002:000069fc       ??_C@_1M@NMPCJPHE@?$AAi?$AAt?$AA?9?$AAc?$AAh@ 004ee9fc     libucrt:lcidtoname_downlevel.obj
 0002:00006a08       ??_C@_1M@GHKGFEDF@?$AAi?$AAt?$AA?9?$AAi?$AAt@ 004eea08     libucrt:lcidtoname_downlevel.obj
 0002:00006a14       ??_C@_1M@NIEJCJJA@?$AAj?$AAa?$AA?9?$AAj?$AAp@ 004eea14     libucrt:lcidtoname_downlevel.obj
 0002:00006a20       ??_C@_1M@JILFNBIM@?$AAk?$AAa?$AA?9?$AAg?$AAe@ 004eea20     libucrt:lcidtoname_downlevel.obj
 0002:00006a2c       ??_C@_1M@PACPMGPH@?$AAk?$AAk?$AA?9?$AAk?$AAz@ 004eea2c     libucrt:lcidtoname_downlevel.obj
 0002:00006a38       ??_C@_1M@IELFGMHA@?$AAk?$AAn?$AA?9?$AAi?$AAn@ 004eea38     libucrt:lcidtoname_downlevel.obj
 0002:00006a44       ??_C@_1O@IBBJHCH@?$AAk?$AAo?$AAk?$AA?9?$AAi?$AAn@ 004eea44     libucrt:lcidtoname_downlevel.obj
 0002:00006a54       ??_C@_1M@DMHAEOGC@?$AAk?$AAo?$AA?9?$AAk?$AAr@ 004eea54     libucrt:lcidtoname_downlevel.obj
 0002:00006a60       ??_C@_1M@HBAHBIGA@?$AAk?$AAy?$AA?9?$AAk?$AAg@ 004eea60     libucrt:lcidtoname_downlevel.obj
 0002:00006a6c       ??_C@_1M@KPMILCJG@?$AAl?$AAt?$AA?9?$AAl?$AAt@ 004eea6c     libucrt:lcidtoname_downlevel.obj
 0002:00006a78       ??_C@_1M@BDEKKCA@?$AAl?$AAv?$AA?9?$AAl?$AAv@ 004eea78     libucrt:lcidtoname_downlevel.obj
 0002:00006a84       ??_C@_1M@ELCKCCJJ@?$AAm?$AAi?$AA?9?$AAn?$AAz@ 004eea84     libucrt:lcidtoname_downlevel.obj
 0002:00006a90       ??_C@_1M@CBOOLAPA@?$AAm?$AAk?$AA?9?$AAm?$AAk@ 004eea90     libucrt:lcidtoname_downlevel.obj
 0002:00006a9c       ??_C@_1M@GPHNBJKN@?$AAm?$AAl?$AA?9?$AAi?$AAn@ 004eea9c     libucrt:lcidtoname_downlevel.obj
 0002:00006aa8       ??_C@_1M@PABJILIG@?$AAm?$AAn?$AA?9?$AAm?$AAn@ 004eeaa8     libucrt:lcidtoname_downlevel.obj
 0002:00006ab4       ??_C@_1M@FGBKKIPG@?$AAm?$AAr?$AA?9?$AAi?$AAn@ 004eeab4     libucrt:lcidtoname_downlevel.obj
 0002:00006ac0       ??_C@_1M@NDBPDDAL@?$AAm?$AAs?$AA?9?$AAb?$AAn@ 004eeac0     libucrt:lcidtoname_downlevel.obj
 0002:00006acc       ??_C@_1M@OPIHOOPI@?$AAm?$AAs?$AA?9?$AAm?$AAy@ 004eeacc     libucrt:lcidtoname_downlevel.obj
 0002:00006ad8       ??_C@_1M@PPDBCNFM@?$AAm?$AAt?$AA?9?$AAm?$AAt@ 004eead8     libucrt:lcidtoname_downlevel.obj
 0002:00006ae4       ??_C@_1M@KDJDKMDD@?$AAn?$AAb?$AA?9?$AAn?$AAo@ 004eeae4     libucrt:lcidtoname_downlevel.obj
 0002:00006af0       ??_C@_1M@KFCFLMJP@?$AAn?$AAl?$AA?9?$AAb?$AAe@ 004eeaf0     libucrt:lcidtoname_downlevel.obj
 0002:00006afc       ??_C@_1M@KPOPDDGO@?$AAn?$AAl?$AA?9?$AAn?$AAl@ 004eeafc     libucrt:lcidtoname_downlevel.obj
 0002:00006b08       ??_C@_1M@LJKPEMLN@?$AAn?$AAn?$AA?9?$AAn?$AAo@ 004eeb08     libucrt:lcidtoname_downlevel.obj
 0002:00006b14       ??_C@_1M@BDGHHBFL@?$AAn?$AAs?$AA?9?$AAz?$AAa@ 004eeb14     libucrt:lcidtoname_downlevel.obj
 0002:00006b20       ??_C@_1M@IDEHOAP@?$AAp?$AAa?$AA?9?$AAi?$AAn@ 004eeb20     libucrt:lcidtoname_downlevel.obj
 0002:00006b2c       ??_C@_1M@HDBKGOGH@?$AAp?$AAl?$AA?9?$AAp?$AAl@ 004eeb2c     libucrt:lcidtoname_downlevel.obj
 0002:00006b38       ??_C@_1M@LJLLCMEH@?$AAp?$AAt?$AA?9?$AAb?$AAr@ 004eeb38     libucrt:lcidtoname_downlevel.obj
 0002:00006b44       ??_C@_1M@NCMONAAL@?$AAp?$AAt?$AA?9?$AAp?$AAt@ 004eeb44     libucrt:lcidtoname_downlevel.obj
 0002:00006b50       ??_C@_1O@EAKMAJDN@?$AAq?$AAu?$AAz?$AA?9?$AAb?$AAo@ 004eeb50     libucrt:lcidtoname_downlevel.obj
 0002:00006b60       ??_C@_1O@BHHPIGDN@?$AAq?$AAu?$AAz?$AA?9?$AAe?$AAc@ 004eeb60     libucrt:lcidtoname_downlevel.obj
 0002:00006b70       ??_C@_1O@GBAPEKMJ@?$AAq?$AAu?$AAz?$AA?9?$AAp?$AAe@ 004eeb70     libucrt:lcidtoname_downlevel.obj
 0002:00006b80       ??_C@_1M@CLGLEFBO@?$AAr?$AAo?$AA?9?$AAr?$AAo@ 004eeb80     libucrt:lcidtoname_downlevel.obj
 0002:00006b8c       ??_C@_1M@CEEDODME@?$AAr?$AAu?$AA?9?$AAr?$AAu@ 004eeb8c     libucrt:lcidtoname_downlevel.obj
 0002:00006b98       ??_C@_1M@HPKKKMPP@?$AAs?$AAa?$AA?9?$AAi?$AAn@ 004eeb98     libucrt:lcidtoname_downlevel.obj
 0002:00006ba4       ??_C@_1M@BKMAIGOJ@?$AAs?$AAe?$AA?9?$AAf?$AAi@ 004eeba4     libucrt:lcidtoname_downlevel.obj
 0002:00006bb0       ??_C@_1M@NDPIFLFI@?$AAs?$AAe?$AA?9?$AAn?$AAo@ 004eebb0     libucrt:lcidtoname_downlevel.obj
 0002:00006bbc       ??_C@_1M@DANKKHJ@?$AAs?$AAe?$AA?9?$AAs?$AAe@ 004eebbc     libucrt:lcidtoname_downlevel.obj
 0002:00006bc8       ??_C@_1M@PNBLONPJ@?$AAs?$AAk?$AA?9?$AAs?$AAk@ 004eebc8     libucrt:lcidtoname_downlevel.obj
 0002:00006bd4       ??_C@_1M@LFMODOAL@?$AAs?$AAl?$AA?9?$AAs?$AAi@ 004eebd4     libucrt:lcidtoname_downlevel.obj
 0002:00006be0       ??_C@_1O@DFKOMPG@?$AAs?$AAm?$AAa?$AA?9?$AAn?$AAo@ 004eebe0     libucrt:lcidtoname_downlevel.obj
 0002:00006bf0       ??_C@_1O@NDKPBNNH@?$AAs?$AAm?$AAa?$AA?9?$AAs?$AAe@ 004eebf0     libucrt:lcidtoname_downlevel.obj
 0002:00006c00       ??_C@_1O@PLLKBHAB@?$AAs?$AAm?$AAj?$AA?9?$AAn?$AAo@ 004eec00     libucrt:lcidtoname_downlevel.obj
 0002:00006c10       ??_C@_1O@CLEPOGCA@?$AAs?$AAm?$AAj?$AA?9?$AAs?$AAe@ 004eec10     libucrt:lcidtoname_downlevel.obj
 0002:00006c20       ??_C@_1O@DLGJGKMK@?$AAs?$AAm?$AAn?$AA?9?$AAf?$AAi@ 004eec20     libucrt:lcidtoname_downlevel.obj
 0002:00006c30       ??_C@_1O@OJDJGAJC@?$AAs?$AAm?$AAs?$AA?9?$AAf?$AAi@ 004eec30     libucrt:lcidtoname_downlevel.obj
 0002:00006c40       ??_C@_1M@BOFOGHPB@?$AAs?$AAq?$AA?9?$AAa?$AAl@ 004eec40     libucrt:lcidtoname_downlevel.obj
 0002:00006c4c       ??_C@_1BG@LJBBIPGB@?$AAs?$AAr?$AA?9?$AAb?$AAa?$AA?9?$AAc?$AAy?$AAr?$AAl@ 004eec4c     libucrt:lcidtoname_downlevel.obj
 0002:00006c64       ??_C@_1BG@JLBENFOE@?$AAs?$AAr?$AA?9?$AAb?$AAa?$AA?9?$AAl?$AAa?$AAt?$AAn@ 004eec64     libucrt:lcidtoname_downlevel.obj
 0002:00006c7c       ??_C@_1BG@KODPNHE@?$AAs?$AAr?$AA?9?$AAs?$AAp?$AA?9?$AAc?$AAy?$AAr?$AAl@ 004eec7c     libucrt:lcidtoname_downlevel.obj
 0002:00006c94       ??_C@_1BG@CIOGKHPB@?$AAs?$AAr?$AA?9?$AAs?$AAp?$AA?9?$AAl?$AAa?$AAt?$AAn@ 004eec94     libucrt:lcidtoname_downlevel.obj
 0002:00006cac       ??_C@_1M@NGFJLMAC@?$AAs?$AAv?$AA?9?$AAf?$AAi@ 004eecac     libucrt:lcidtoname_downlevel.obj
 0002:00006cb8       ??_C@_1M@MPJEJAJC@?$AAs?$AAv?$AA?9?$AAs?$AAe@ 004eecb8     libucrt:lcidtoname_downlevel.obj
 0002:00006cc4       ??_C@_1M@MPNDHLFK@?$AAs?$AAw?$AA?9?$AAk?$AAe@ 004eecc4     libucrt:lcidtoname_downlevel.obj
 0002:00006cd0       ??_C@_1O@KOHBJJI@?$AAs?$AAy?$AAr?$AA?9?$AAs?$AAy@ 004eecd0     libucrt:lcidtoname_downlevel.obj
 0002:00006ce0       ??_C@_1M@LDCEFHA@?$AAt?$AAa?$AA?9?$AAi?$AAn@ 004eece0     libucrt:lcidtoname_downlevel.obj
 0002:00006cec       ??_C@_1M@CNJOFAK@?$AAt?$AAe?$AA?9?$AAi?$AAn@ 004eecec     libucrt:lcidtoname_downlevel.obj
 0002:00006cf8       ??_C@_1M@GNAECACD@?$AAt?$AAh?$AA?9?$AAt?$AAh@ 004eecf8     libucrt:lcidtoname_downlevel.obj
 0002:00006d04       ??_C@_1M@CHBIHOJO@?$AAt?$AAn?$AA?9?$AAz?$AAa@ 004eed04     libucrt:lcidtoname_downlevel.obj
 0002:00006d10       ??_C@_1M@GCCMIGPJ@?$AAt?$AAr?$AA?9?$AAt?$AAr@ 004eed10     libucrt:lcidtoname_downlevel.obj
 0002:00006d1c       ??_C@_1M@CELMCNBK@?$AAt?$AAt?$AA?9?$AAr?$AAu@ 004eed1c     libucrt:lcidtoname_downlevel.obj
 0002:00006d28       ??_C@_1M@KLMCELGA@?$AAu?$AAk?$AA?9?$AAu?$AAa@ 004eed28     libucrt:lcidtoname_downlevel.obj
 0002:00006d34       ??_C@_1M@EPAJJAJF@?$AAu?$AAr?$AA?9?$AAp?$AAk@ 004eed34     libucrt:lcidtoname_downlevel.obj
 0002:00006d40       ??_C@_1BG@GEGPMCDJ@?$AAu?$AAz?$AA?9?$AAu?$AAz?$AA?9?$AAc?$AAy?$AAr?$AAl@ 004eed40     libucrt:lcidtoname_downlevel.obj
 0002:00006d58       ??_C@_1BG@EGGKJILM@?$AAu?$AAz?$AA?9?$AAu?$AAz?$AA?9?$AAl?$AAa?$AAt?$AAn@ 004eed58     libucrt:lcidtoname_downlevel.obj
 0002:00006d70       ??_C@_1M@GFOCLFF@?$AAv?$AAi?$AA?9?$AAv?$AAn@ 004eed70     libucrt:lcidtoname_downlevel.obj
 0002:00006d7c       ??_C@_1M@CPAMEDFI@?$AAx?$AAh?$AA?9?$AAz?$AAa@ 004eed7c     libucrt:lcidtoname_downlevel.obj
 0002:00006d88       ??_C@_1O@EBKIFIGN@?$AAz?$AAh?$AA?9?$AAc?$AAh?$AAs@ 004eed88     libucrt:lcidtoname_downlevel.obj
 0002:00006d98       ??_C@_1O@NMHPGANE@?$AAz?$AAh?$AA?9?$AAc?$AAh?$AAt@ 004eed98     libucrt:lcidtoname_downlevel.obj
 0002:00006da8       ??_C@_1M@LPINJOMC@?$AAz?$AAh?$AA?9?$AAc?$AAn@ 004eeda8     libucrt:lcidtoname_downlevel.obj
 0002:00006db4       ??_C@_1M@OCJEJODD@?$AAz?$AAh?$AA?9?$AAh?$AAk@ 004eedb4     libucrt:lcidtoname_downlevel.obj
 0002:00006dc0       ??_C@_1M@DNDLJINH@?$AAz?$AAh?$AA?9?$AAm?$AAo@ 004eedc0     libucrt:lcidtoname_downlevel.obj
 0002:00006dcc       ??_C@_1M@MBFDNDND@?$AAz?$AAh?$AA?9?$AAs?$AAg@ 004eedcc     libucrt:lcidtoname_downlevel.obj
 0002:00006dd8       ??_C@_1M@IMEPLEPE@?$AAz?$AAh?$AA?9?$AAt?$AAw@ 004eedd8     libucrt:lcidtoname_downlevel.obj
 0002:00006de4       ??_C@_1M@BBGHNHJP@?$AAz?$AAu?$AA?9?$AAz?$AAa@ 004eede4     libucrt:lcidtoname_downlevel.obj
 0002:00006f50       __infinity                 004eef50     libucrt:87tran.obj
 0002:00006f5a       __minfinity                004eef5a     libucrt:87tran.obj
 0002:00006f64       __logemax                  004eef64     libucrt:87tran.obj
 0002:00006f8a       __OP_EXPjmptab             004eef8a     libucrt:87tran.obj
 0002:00006fb0       __indefinite               004eefb0     libucrt:87disp.obj
 0002:00006fba       __piby2                    004eefba     libucrt:87disp.obj
 0002:00006fc4       __piby4                    004eefc4     libucrt:87disp.obj
 0002:00006ff8       __DEFAULT_CW_in_mem        004eeff8     libucrt:common.obj
 0002:00006ffa       __pi_by_2_to_61            004eeffa     libucrt:common.obj
 0002:00007034       ??_C@_1BA@BALFACEM@?$AAC?$AAO?$AAN?$AAO?$AAU?$AAT?$AA$@ 004ef034     libucrt:initcon.obj
 0002:00007050       ___acrt_log10_table_t      004ef050     libucrt:log10_tables.obj
 0002:00007460       ___acrt_log10_table_cb     004ef460     libucrt:log10_tables.obj
 0002:00007870       _CLSID_WbemLocator         004ef870     WbemUuid:wbemcli_i.obj
 0002:00007880       _IID_IWbemLocator          004ef880     WbemUuid:wbemcli_i.obj
 0002:00007890       _CLSID_WbemStatusCodeText  004ef890     WbemUuid:wbemcli_i.obj
 0002:000078a0       _IID_IWbemStatusCodeText   004ef8a0     WbemUuid:wbemcli_i.obj
 0002:000078bc       ??_C@_0CA@FDAKNEMK@AccessDatabase?3?3?$HOAccessDatabase@ 004ef8bc     AccessDatabase.obj
 0002:000078dc       ??_C@_1CK@KFHBEICN@?$AAC?$AAl?$AAo?$AAs?$AAe?$AAC?$AAu?$AAr?$AAr?$AAe?$AAn?$AAt?$AAD?$AAa?$AAt@ 004ef8dc     AccessDatabase.obj
 0002:00007908       ??_C@_19GFLFIMFC@?$AAQ?$AAu?$AAi?$AAt@ 004ef908     AccessDatabase.obj
 0002:00007914       ??_C@_0CE@EBLDPJK@AccessDatabase?3?3CreateIDBInitia@ 004ef914     AccessDatabase.obj
 0002:00007938       ??_C@_1BK@COKNBNBF@?$AAm?$AA_?$AAP?$AAr?$AAo?$AAv?$AAi?$AAd?$AAe?$AAr?$AAI?$AAD@ 004ef938     AccessDatabase.obj
 0002:00007954       ??_C@_0BA@POGMPGLC@CLSIDFromProgID@ 004ef954     AccessDatabase.obj
 0002:00007968       ??_C@_1EA@OJJBMMIE@?$AAC?$AAo?$AAC?$AAr?$AAe?$AAa?$AAt?$AAe?$AAI?$AAn?$AAs?$AAt?$AAa?$AAn?$AAc@ 004ef968     AccessDatabase.obj
 0002:000079a8       ??_C@_1CC@JFFCFLJJ@?$AAm?$AA_?$AAp?$AAI?$AAD?$AAB?$AAI?$AAn?$AAi?$AAt?$AAi?$AAa?$AAl?$AAi?$AAz@ 004ef9a8     AccessDatabase.obj
 0002:000079cc       ??_C@_0BM@MLJEGKFM@AccessDatabase?3?3OleDbCreate@ 004ef9cc     AccessDatabase.obj
 0002:000079e8       ??_C@_1BK@ICCLPGND@?$AAD?$AAa?$AAt?$AAa?$AAb?$AAa?$AAs?$AAe?$AAP?$AAa?$AAt?$AAh@ 004ef9e8     AccessDatabase.obj
 0002:00007a04       ??_C@_1CE@OKBJIPIO@?$AAI?$AAI?$AAD?$AA_?$AAI?$AAD?$AAB?$AAI?$AAn?$AAi?$AAt?$AAi?$AAa?$AAl?$AAi@ 004efa04     AccessDatabase.obj
 0002:00007a28       ??_C@_1BO@HDMGDFFP@?$AAp?$AAI?$AAD?$AAB?$AAI?$AAn?$AAi?$AAt?$AAi?$AAa?$AAl?$AAi?$AAz?$AAe@ 004efa28     AccessDatabase.obj
 0002:00007a48       ??_C@_0BO@MKAPGHN@IDBInitialize?3?3QueryInterface@ 004efa48     AccessDatabase.obj
 0002:00007a68       ??_C@_1CI@KIOEHLBP@?$AAp?$AAI?$AAD?$AAB?$AAD?$AAa?$AAt?$AAa?$AAS?$AAo?$AAu?$AAr?$AAc?$AAe?$AAA@ 004efa68     AccessDatabase.obj
 0002:00007a90       ??_C@_0CF@LNBOGLKH@IDBDataSourceAdmin?3?3CreateDataS@ 004efa90     AccessDatabase.obj
 0002:00007ab8       ??_C@_0BN@CLPDODBD@AccessDatabase?3?3OleDbConnect@ 004efab8     AccessDatabase.obj
 0002:00007ad8       ??_C@_1M@EIAMANMN@?$AAA?$AAd?$AAm?$AAi?$AAn@ 004efad8     AccessDatabase.obj
 0002:00007ae4       ??_C@_0CC@DFHAMEKE@QueryInterface?0?5IID_IDBProperti@ 004efae4     AccessDatabase.obj
 0002:00007b08       ??_C@_1BO@HPBPIMCC@?$AAp?$AAI?$AAD?$AAB?$AAP?$AAr?$AAo?$AAp?$AAe?$AAr?$AAt?$AAi?$AAe?$AAs@ 004efb08     AccessDatabase.obj
 0002:00007b28       ??_C@_0BN@PFKDKPCE@IDBProperties?3?3SetProperties@ 004efb28     AccessDatabase.obj
 0002:00007b48       ??_C@_0BK@PPDEINAL@IDBInitialize?3?3Initialize@ 004efb48     AccessDatabase.obj
 0002:00007b64       ??_C@_0BN@MHBLLNNM@AccessDatabase?3?3OleDbExecute@ 004efb64     AccessDatabase.obj
 0002:00007b84       ??_C@_0CF@KBPECLEM@QueryInterface?0?5IID_IDBCreateSe@ 004efb84     AccessDatabase.obj
 0002:00007bac       ??_C@_1CE@EBAIIDME@?$AAp?$AAI?$AAD?$AAB?$AAC?$AAr?$AAe?$AAa?$AAt?$AAe?$AAS?$AAe?$AAs?$AAs?$AAi@ 004efbac     AccessDatabase.obj
 0002:00007bd0       ??_C@_0CE@GAJFHEDE@CreateSession?0?5IID_IDBCreateCom@ 004efbd0     AccessDatabase.obj
 0002:00007bf4       ??_C@_1CE@NOFCMAAM@?$AAp?$AAI?$AAD?$AAB?$AAC?$AAr?$AAe?$AAa?$AAt?$AAe?$AAC?$AAo?$AAm?$AAm?$AAa@ 004efbf4     AccessDatabase.obj
 0002:00007c18       ??_C@_0CA@PCBKJBAG@CreateCommand?0?5IID_ICommandText@ 004efc18     AccessDatabase.obj
 0002:00007c38       ??_C@_1BM@PEKBPLLO@?$AAp?$AAI?$AAC?$AAo?$AAm?$AAm?$AAa?$AAn?$AAd?$AAT?$AAe?$AAx?$AAt@ 004efc38     AccessDatabase.obj
 0002:00007c54       ??_C@_0BN@FJADKNCN@ICommandText?3?3SetCommandText@ 004efc54     AccessDatabase.obj
 0002:00007c74       ??_C@_1DK@NOMOJIIE@?$AAI?$AAC?$AAo?$AAm?$AAm?$AAa?$AAn?$AAd?$AAT?$AAe?$AAx?$AAt?$AA?3?$AA?3?$AAE@ 004efc74     AccessDatabase.obj
 0002:00007cb0       ??_C@_1O@JBFICFDM@?$AAS?$AAQ?$AAL?$AA?3?$AA?$AN?$AA?6@ 004efcb0     AccessDatabase.obj
 0002:00007cc0       ??_C@_0BG@CIFIMHBD@ICommandText?3?3Execute@ 004efcc0     AccessDatabase.obj
 0002:00007cd8       ??_C@_0BK@MCHNGEOI@AccessDatabase?3?3ComInvoke@ 004efcd8     AccessDatabase.obj
 0002:00007cf4       ??_C@_1BA@LAPBHEDL@?$AAp?$AAs?$AAz?$AAN?$AAa?$AAm?$AAe@ 004efcf4     AccessDatabase.obj
 0002:00007d04       ??_C@_1BM@NKEGCAIN@?$AAS?$AAt?$AAr?$AAi?$AAn?$AAg?$AAC?$AAc?$AAh?$AAC?$AAo?$AAp?$AAy@ 004efd04     AccessDatabase.obj
 0002:00007d20       ??_C@_1DC@EFPKKCMG@?$AAI?$AAD?$AAi?$AAs?$AAp?$AAa?$AAt?$AAc?$AAh?$AA?3?$AA?3?$AAG?$AAe?$AAt?$AAI@ 004efd20     AccessDatabase.obj
 0002:00007d58       ??_C@_1EI@PNADDCLC@?$AAh?$AAR?$AAe?$AAs?$AAu?$AAl?$AAt?$AA?5?$AA?5?$AA?5?$AA?5?$AA?5?$AA?5?$AA?5?$AA?5@ 004efd58     AccessDatabase.obj
 0002:00007da0       ??_C@_1CE@MDFIPICN@?$AAb?$AAs?$AAt?$AAr?$AAS?$AAo?$AAu?$AAr?$AAc?$AAe?$AA?5?$AA?5?$AA?5?$AA?5?$AA?5@ 004efda0     AccessDatabase.obj
 0002:00007dc4       ??_C@_1CE@DEFKELE@?$AAb?$AAs?$AAt?$AAr?$AAD?$AAe?$AAs?$AAc?$AAr?$AAi?$AAp?$AAt?$AAi?$AAo?$AAn@ 004efdc4     AccessDatabase.obj
 0002:00007de8       ??_C@_1CE@FBEBMFN@?$AAs?$AAc?$AAo?$AAd?$AAe?$AA?5?$AA?5?$AA?5?$AA?5?$AA?5?$AA?5?$AA?5?$AA?5?$AA?5?$AA?5@ 004efde8     AccessDatabase.obj
 0002:00007e0c       ??_C@_1CE@HGCIHHIM@?$AAw?$AAC?$AAo?$AAd?$AAe?$AA?5?$AA?5?$AA?5?$AA?5?$AA?5?$AA?5?$AA?5?$AA?5?$AA?5?$AA?5@ 004efe0c     AccessDatabase.obj
 0002:00007e30       ??_C@_1CE@DJPBIHLN@?$AAu?$AAA?$AAr?$AAg?$AAE?$AAr?$AAr?$AA?5?$AA?5?$AA?5?$AA?5?$AA?5?$AA?5?$AA?5?$AA?5@ 004efe30     AccessDatabase.obj
 0002:00007e54       ??_C@_0BC@BHNPIFEA@IDispatch?3?3Invoke@ 004efe54     AccessDatabase.obj
 0002:00007e68       ??_C@_0CE@NCFMBMPA@AccessDatabase?3?3GetOleDbErrorSt@ 004efe68     AccessDatabase.obj
 0002:00007e8c       ??_C@_1CE@IGLAEPLA@?$AAp?$AAO?$AAl?$AAe?$AAD?$AAb?$AAE?$AAr?$AAr?$AAo?$AAr?$AAS?$AAt?$AAr?$AAi@ 004efe8c     AccessDatabase.obj
 0002:00007eb0       ??_C@_0CF@OOAGMPML@AccessDatabase?3?3MakeOleDbErrorS@ 004efeb0     AccessDatabase.obj
 0002:0001341c       ??_C@_19DINFBLAK@?$AAN?$AAa?$AAm?$AAe@ 004fb41c     AuditData.obj
 0002:00013428       ??_C@_1O@HPEJKPPK@?$AAM?$AAe?$AAt?$AAr?$AAi?$AAc@ 004fb428     AuditData.obj
 0002:00013438       ??_C@_1DI@BFBCKCGH@?$AAH?$AAa?$AAr?$AAd?$AAw?$AAa?$AAr?$AAe?$AA?2?$AAD?$AAe?$AAs?$AAc?$AAr?$AAi@ 004fb438     AuditData.obj
 0002:00013470       ??_C@_0CH@IJEHBHHP@AuditData?3?3GetBIOSIdentificatio@ 004fb470     AuditData.obj
 0002:00013498       ??_C@_1BA@HLADNCGB@?$AAp?$AAR?$AAe?$AAc?$AAo?$AAr?$AAd@ 004fb498     AuditData.obj
 0002:000134a8       ??_C@_1CE@KEGILBAG@?$AAS?$AAy?$AAs?$AAt?$AAe?$AAm?$AAB?$AAi?$AAo?$AAs?$AAV?$AAe?$AAr?$AAs?$AAi@ 004fb4a8     AuditData.obj
 0002:000134cc       ??_C@_1BO@BHDHIFGP@?$AAS?$AAy?$AAs?$AAt?$AAe?$AAm?$AAB?$AAi?$AAo?$AAs?$AAD?$AAa?$AAt?$AAe@ 004fb4cc     AuditData.obj
 0002:000134ec       ??_C@_1CC@NBEHNIFJ@?$AAV?$AAi?$AAd?$AAe?$AAo?$AAB?$AAi?$AAo?$AAs?$AAV?$AAe?$AAr?$AAs?$AAi?$AAo@ 004fb4ec     AuditData.obj
 0002:00013510       ??_C@_1BM@NLECKPGB@?$AAV?$AAi?$AAd?$AAe?$AAo?$AAB?$AAi?$AAo?$AAs?$AAD?$AAa?$AAt?$AAe@ 004fb510     AuditData.obj
 0002:0001352c       ??_C@_0BL@IELHHNBI@AuditData?3?3GetCategoryName@ 004fb52c     AuditData.obj
 0002:00013548       ??_C@_1BM@MELHHGNF@?$AAp?$AAC?$AAa?$AAt?$AAe?$AAg?$AAo?$AAr?$AAy?$AAN?$AAa?$AAm?$AAe@ 004fb548     AuditData.obj
 0002:00013564       ??_C@_0BO@PILKILKA@AuditData?3?3GetCategoryRecords@ 004fb564     AuditData.obj
 0002:00013584       ??_C@_1BC@GNLBJNGP@?$AAp?$AAR?$AAe?$AAc?$AAo?$AAr?$AAd?$AAs@ 004fb584     AuditData.obj
 0002:00013598       ??_C@_1CM@KMIFPPFM@?$AAS?$AAt?$AAa?$AAr?$AAt?$AA?5?$AAc?$AAa?$AAt?$AAe?$AAg?$AAo?$AAr?$AAy?$AA?5@ 004fb598     AuditData.obj
 0002:000135c4       ??_C@_1BG@CJJABHJP@?$AAc?$AAa?$AAt?$AAe?$AAg?$AAo?$AAr?$AAy?$AAI?$AAD@ 004fb5c4     AuditData.obj
 0002:000135e0       ??_C@_1EE@KJHKLCD@?$AAC?$AAa?$AAt?$AAe?$AAg?$AAo?$AAr?$AAy?$AA?5?$AA?8?$AA?$CF?$AA?$CF?$AA1?$AA?8?$AA?5@ 004fb5e0     AuditData.obj
 0002:00013624       ??_C@_1DI@LLKNODPG@?$AAC?$AAa?$AAt?$AAe?$AAg?$AAo?$AAr?$AAy?$AA?5?$AA?8?$AA?$CF?$AA?$CF?$AA1?$AA?8?$AA?5@ 004fb624     AuditData.obj
 0002:00013660       ??_C@_1FC@FLEPMCFI@?$AAE?$AAn?$AAd?$AA?5?$AAc?$AAa?$AAt?$AAe?$AAg?$AAo?$AAr?$AAy?$AA?5?$AA?8?$AA?$CF@ 004fb660     AuditData.obj
 0002:000136b4       ??_C@_0CF@CFPHDLLK@AuditData?3?3GetEnvironmentVarsRe@ 004fb6b4     AuditData.obj
 0002:000136dc       ??_C@_1BC@ODHFLILP@?$AAp?$AAs?$AAz?$AAB?$AAl?$AAo?$AAc?$AAk@ 004fb6dc     AuditData.obj
 0002:000136f0       ??_C@_1FM@BECMELFC@?$AAR?$AAe?$AAa?$AAd?$AA?5?$AA?$CF?$AA?$CF?$AA1?$AA?5?$AAc?$AAh?$AAa?$AAr?$AAa?$AAc@ 004fb6f0     AuditData.obj
 0002:0001374c       ??_C@_0CG@MGGMBALE@AuditData?3?3GetMemoryInformation@ 004fb74c     AuditData.obj
 0002:00013774       ??_C@_1BG@GIKPMPCO@?$AAr?$AAo?$AAo?$AAt?$AA?2?$AAc?$AAi?$AAm?$AAv?$AA2@ 004fb774     AuditData.obj
 0002:0001378c       ??_C@_1DK@OAANFEBI@?$AAS?$AAe?$AAl?$AAe?$AAc?$AAt?$AA?5?$AA?$CK?$AA?5?$AAf?$AAr?$AAo?$AAm?$AA?5?$AAW@ 004fb78c     AuditData.obj
 0002:000137c8       ??_C@_1BI@ILBIFAAC@?$AAM?$AAa?$AAx?$AAi?$AAm?$AAu?$AAm?$AAS?$AAi?$AAz?$AAe@ 004fb7c8     AuditData.obj
 0002:000137e0       ??_C@_1DC@JMNIOFMA@?$AAE?$AAr?$AAr?$AAo?$AAr?$AA?5?$AAg?$AAe?$AAt?$AAt?$AAi?$AAn?$AAg?$AA?5?$AAp@ 004fb7e0     AuditData.obj
 0002:00013814       ??_C@_1CK@FDEJOED@?$AAG?$AAl?$AAo?$AAb?$AAa?$AAl?$AAM?$AAe?$AAm?$AAo?$AAr?$AAy?$AAS?$AAt?$AAa@ 004fb814     AuditData.obj
 0002:00013840       ??_C@_0CD@KMJBBPKD@AuditData?3?3GetOleDbProviderReco@ 004fb840     AuditData.obj
 0002:00013864       ??_C@_0BN@MPHGPAGB@AuditData?3?3GetOleDbProviders@ 004fb864     AuditData.obj
 0002:00013884       ??_C@_1CA@KCJDPJDG@?$AAp?$AAO?$AAl?$AAe?$AAD?$AAb?$AAP?$AAr?$AAo?$AAv?$AAi?$AAd?$AAe?$AAr?$AAs@ 004fb884     AuditData.obj
 0002:000138a4       ??_C@_1CC@LBGBAMCN@?$AAC?$AAo?$AAC?$AAr?$AAe?$AAa?$AAt?$AAe?$AAI?$AAn?$AAs?$AAt?$AAa?$AAn?$AAc@ 004fb8a4     AuditData.obj
 0002:000138c8       ??_C@_1CA@PDDMEFAP@?$AAp?$AAI?$AAS?$AAo?$AAu?$AAr?$AAc?$AAe?$AAs?$AAR?$AAo?$AAw?$AAs?$AAe?$AAt@ 004fb8c8     AuditData.obj
 0002:000138e8       ??_C@_1EC@JKAKDDDB@?$AAI?$AAS?$AAo?$AAu?$AAr?$AAc?$AAe?$AAs?$AAR?$AAo?$AAw?$AAs?$AAe?$AAt?$AA?3@ 004fb8e8     AuditData.obj
 0002:0001392c       ??_C@_1BC@LEAEABCH@?$AAp?$AAI?$AAR?$AAo?$AAw?$AAs?$AAe?$AAt@ 004fb92c     AuditData.obj
 0002:00013940       ??_C@_1DA@IANDLMHJ@?$AAI?$AAR?$AAo?$AAw?$AAs?$AAe?$AAt?$AA?3?$AA?3?$AAQ?$AAu?$AAe?$AAr?$AAy?$AAI@ 004fb940     AuditData.obj
 0002:00013970       ??_C@_1BG@HDJKMLNG@?$AAp?$AAI?$AAA?$AAc?$AAc?$AAe?$AAs?$AAs?$AAo?$AAr@ 004fb970     AuditData.obj
 0002:00013988       ??_C@_1DE@NHFOIBNN@?$AAI?$AAA?$AAc?$AAc?$AAe?$AAs?$AAs?$AAo?$AAr?$AA?3?$AA?3?$AAC?$AAr?$AAe?$AAa@ 004fb988     AuditData.obj
 0002:000139bc       ??_C@_1BE@EANLHBLD@?$AAh?$AAA?$AAc?$AAc?$AAe?$AAs?$AAs?$AAo?$AAr@ 004fb9bc     AuditData.obj
 0002:000139d0       ??_C@_1CK@OIFJBLFK@?$AAI?$AAR?$AAo?$AAw?$AAs?$AAe?$AAt?$AA?3?$AA?3?$AAG?$AAe?$AAt?$AAN?$AAe?$AAx@ 004fb9d0     AuditData.obj
 0002:000139fc       ??_C@_1DC@HMBBJIJP@?$AAI?$AAR?$AAo?$AAw?$AAs?$AAe?$AAt?$AA?3?$AA?3?$AAG?$AAe?$AAt?$AAD?$AAa?$AAt@ 004fb9fc     AuditData.obj
 0002:00013a30       ??_C@_0CE@IKDFDOLK@AuditData?3?3GetOperatingSystemRe@ 004fba30     AuditData.obj
 0002:00013a54       ??_C@_0BO@NOGNFAOI@AuditData?3?3GetOtherIdentifier@ 004fba54     AuditData.obj
 0002:00013a74       ??_C@_1BI@CIALLFGL@?$AAp?$AAI?$AAd?$AAe?$AAn?$AAt?$AAi?$AAf?$AAi?$AAe?$AAr@ 004fba74     AuditData.obj
 0002:00013a8c       ??_C@_1O@EKJBMENL@?$AAL?$AAo?$AAc?$AAa?$AAl?$AAe@ 004fba8c     AuditData.obj
 0002:00013a9c       ??_C@_1BA@MFLLNDOM@?$AAC?$AAo?$AAu?$AAn?$AAt?$AAr?$AAy@ 004fba9c     AuditData.obj
 0002:00013aac       ??_C@_1BC@KHBNKMMK@?$AAL?$AAa?$AAn?$AAg?$AAu?$AAa?$AAg?$AAe@ 004fbaac     AuditData.obj
 0002:00013ac0       ??_C@_1O@DHFHAMFF@?$AAN?$AAu?$AAm?$AAb?$AAe?$AAr@ 004fbac0     AuditData.obj
 0002:00013ad0       ??_C@_1O@NGAMEMHH@?$AAD?$AAi?$AAg?$AAi?$AAt?$AAs@ 004fbad0     AuditData.obj
 0002:00013ae0       ??_C@_1CA@KONHEMCD@?$AAD?$AAi?$AAg?$AAi?$AAt?$AA?5?$AAS?$AAe?$AAp?$AAa?$AAr?$AAa?$AAt?$AAo?$AAr@ 004fbae0     AuditData.obj
 0002:00013b00       ??_C@_1CE@MJEPIFLA@?$AAD?$AAe?$AAc?$AAi?$AAm?$AAa?$AAl?$AA?5?$AAS?$AAe?$AAp?$AAa?$AAr?$AAa?$AAt@ 004fbb00     AuditData.obj
 0002:00013b24       ??_C@_1BO@CFLFODLH@?$AAD?$AAe?$AAc?$AAi?$AAm?$AAa?$AAl?$AA?5?$AAP?$AAl?$AAa?$AAc?$AAe?$AAs@ 004fbb24     AuditData.obj
 0002:00013b44       ??_C@_1CG@JHBHCAAG@?$AAM?$AAe?$AAa?$AAs?$AAu?$AAr?$AAe?$AAm?$AAe?$AAn?$AAt?$AA?5?$AAS?$AAy?$AAs@ 004fbb44     AuditData.obj
 0002:00013b6c       ??_C@_1BC@MEFIHEGD@?$AAC?$AAu?$AAr?$AAr?$AAe?$AAn?$AAc?$AAy@ 004fbb6c     AuditData.obj
 0002:00013b80       ??_C@_1O@PCEIAOCJ@?$AAS?$AAy?$AAm?$AAb?$AAo?$AAl@ 004fbb80     AuditData.obj
 0002:00013b90       ??_C@_1BC@NHDMPIJP@?$AAI?$AAS?$AAO?$AA?5?$AAC?$AAo?$AAd?$AAe@ 004fbb90     AuditData.obj
 0002:00013ba4       ??_C@_1CA@HMNCFOLM@?$AAM?$AAo?$AAn?$AAe?$AAy?$AA?5?$AAS?$AAe?$AAp?$AAa?$AAr?$AAa?$AAt?$AAo?$AAr@ 004fbba4     AuditData.obj
 0002:00013bc4       ??_C@_19LCONIJA@?$AAD?$AAa?$AAt?$AAe@ 004fbbc4     AuditData.obj
 0002:00013bd0       ??_C@_1BG@KBDPOIL@?$AAS?$AAh?$AAo?$AAr?$AAt?$AA?5?$AAD?$AAa?$AAt?$AAe@ 004fbbd0     AuditData.obj
 0002:00013be8       ??_C@_1BE@PIOJFPJD@?$AAL?$AAo?$AAn?$AAg?$AA?5?$AAD?$AAa?$AAt?$AAe@ 004fbbe8     AuditData.obj
 0002:00013bfc       ??_C@_1BC@NAAOKKNA@?$AAC?$AAa?$AAl?$AAe?$AAn?$AAd?$AAa?$AAr@ 004fbbfc     AuditData.obj
 0002:00013c10       ??_C@_19NLLMBBJO@?$AAT?$AAi?$AAm?$AAe@ 004fbc10     AuditData.obj
 0002:00013c1c       ??_C@_1BI@HAHELNHD@?$AAT?$AAi?$AAm?$AAe?$AA?5?$AAF?$AAo?$AAr?$AAm?$AAa?$AAt@ 004fbc1c     AuditData.obj
 0002:00013c34       ??_C@_1BM@NNGHIGHA@?$AAA?$AAn?$AAt?$AAe?$AA?5?$AAM?$AAe?$AAr?$AAi?$AAd?$AAi?$AAe?$AAm@ 004fbc34     AuditData.obj
 0002:00013c50       ??_C@_1BM@KPFHBFNM@?$AAP?$AAo?$AAs?$AAt?$AA?5?$AAM?$AAe?$AAr?$AAi?$AAd?$AAi?$AAe?$AAm@ 004fbc50     AuditData.obj
 0002:00013c6c       ??_C@_0CG@IANOHLNA@AuditData?3?3GetRegionalSettingsR@ 004fbc6c     AuditData.obj
 0002:00013c98       ??_C@_1EA@JNOHOOMC@?$AAG?$AAe?$AAt?$AAL?$AAo?$AAc?$AAa?$AAl?$AAe?$AAI?$AAn?$AAf?$AAo?$AA?5?$AAf@ 004fbc98     AuditData.obj
 0002:00013cd8       ??_C@_19GFEDAILF@?$AAU?$AA?4?$AAS?$AA?4@ 004fbcd8     AuditData.obj
 0002:00013ce4       ??_C@_1DO@BEIKHMAA@?$AAG?$AAe?$AAt?$AAT?$AAi?$AAm?$AAe?$AAZ?$AAo?$AAn?$AAe?$AAI?$AAn?$AAf?$AAo@ 004fbce4     AuditData.obj
 0002:00013d24       ??_C@_1BE@MNIOGMEK@?$AAT?$AAi?$AAm?$AAe?$AA?5?$AAZ?$AAo?$AAn?$AAe@ 004fbd24     AuditData.obj
 0002:00013d38       ??_C@_1CO@NHBGNINJ@?$AAG?$AAM?$AAT?$AA?5?$AAD?$AAi?$AAf?$AAf?$AAe?$AAr?$AAe?$AAn?$AAc?$AAe?$AA?5@ 004fbd38     AuditData.obj
 0002:00013d68       ??_C@_0CD@OGCENILH@AuditData?3?3GetSystemOverviewRec@ 004fbd68     AuditData.obj
 0002:00013d8c       ??_C@_1CG@OHOIPFDA@?$AAS?$AAM?$AAB?$AAI?$AAO?$AAS?$AA?5?$AAr?$AAe?$AAa?$AAd?$AA?5?$AAe?$AAr?$AAr@ 004fbd8c     AuditData.obj
 0002:00013db4       ??_C@_1CI@PLDIKDFH@?$AAN?$AAe?$AAt?$AAB?$AAI?$AAO?$AAS?$AA?5?$AAn?$AAa?$AAm?$AAe?$AA?5?$AAe?$AAr@ 004fbdb4     AuditData.obj
 0002:00013ddc       ??_C@_1CG@NFFFBAED@?$AAD?$AAo?$AAm?$AAa?$AAi?$AAn?$AA?5?$AAn?$AAa?$AAm?$AAe?$AA?5?$AAe?$AAr?$AAr@ 004fbddc     AuditData.obj
 0002:00013e04       ??_C@_1CC@MJJJNNLK@?$AAS?$AAi?$AAt?$AAe?$AA?5?$AAn?$AAa?$AAm?$AAe?$AA?5?$AAe?$AAr?$AAr?$AAo?$AAr@ 004fbe04     AuditData.obj
 0002:00013e28       ??_C@_1CM@LHIDAFNE@?$AAC?$AAo?$AAm?$AAp?$AAu?$AAt?$AAe?$AAr?$AA?5?$AAr?$AAo?$AAl?$AAe?$AAs?$AA?5@ 004fbe28     AuditData.obj
 0002:00013e54       ??_C@_1DI@EABFJBLA@?$AAC?$AAo?$AAm?$AAp?$AAu?$AAt?$AAe?$AAr?$AA?5?$AAd?$AAe?$AAs?$AAc?$AAr?$AAi@ 004fbe54     AuditData.obj
 0002:00013e8c       ??_C@_17MDLFOOAJ@?$AAb?$AAi?$AAt@ 004fbe8c     AuditData.obj
 0002:00013e94       ??_C@_19GMILDCA@?$AA?9?$AAB?$AAi?$AAt@ 004fbe94     AuditData.obj
 0002:00013ea0       ??_C@_1DI@KJPANAM@?$AAO?$AAp?$AAe?$AAr?$AAt?$AAi?$AAn?$AAg?$AA?5?$AAs?$AAy?$AAs?$AAt?$AAe?$AAm@ 004fbea0     AuditData.obj
 0002:00013ed8       ??_C@_1EA@GKPCHFBA@?$AAS?$AAy?$AAs?$AAt?$AAe?$AAm?$AA?5?$AAm?$AAa?$AAn?$AAu?$AAf?$AAa?$AAc?$AAt@ 004fbed8     AuditData.obj
 0002:00013f18       ??_C@_1CI@EJLBBEOK@?$AAP?$AAr?$AAo?$AAd?$AAu?$AAc?$AAt?$AA?5?$AAn?$AAa?$AAm?$AAe?$AA?5?$AAe?$AAr@ 004fbf18     AuditData.obj
 0002:00013f40       ??_C@_1DI@GEFHGOMI@?$AAS?$AAy?$AAs?$AAt?$AAe?$AAm?$AA?5?$AAs?$AAe?$AAr?$AAi?$AAa?$AAl?$AA?5?$AAn@ 004fbf40     AuditData.obj
 0002:00013f78       ??_C@_1DC@GALHELJG@?$AAC?$AAh?$AAa?$AAs?$AAs?$AAi?$AAs?$AA?5?$AAa?$AAs?$AAs?$AAe?$AAt?$AA?5?$AAt@ 004fbf78     AuditData.obj
 0002:00013fac       ??_C@_1DI@JFMJFNKC@?$AAN?$AAu?$AAm?$AAb?$AAe?$AAr?$AA?5?$AAo?$AAf?$AA?5?$AAp?$AAr?$AAo?$AAc?$AAe@ 004fbfac     AuditData.obj
 0002:00013fe4       ??_C@_17MIGADKGF@?$AAM?$AAh?$AAz@ 004fbfe4     AuditData.obj
 0002:00013fec       ??_C@_17FJKACGKN@?$AAG?$AAh?$AAz@ 004fbfec     AuditData.obj
 0002:00013ff4       ??_C@_15JOGBDECP@?$AA?0?$AA?5@ 004fbff4     AuditData.obj
 0002:00013ffc       ??_C@_17MPMMDPFD@?$AAM?$AAH?$AAz@ 004fbffc     AuditData.obj
 0002:00014008       ??_C@_1FC@PIPJMIDE@?$AAN?$AAo?$AA?5?$AAp?$AAr?$AAo?$AAc?$AAe?$AAs?$AAs?$AAo?$AAr?$AA?5?$AAp?$AAa@ 004fc008     AuditData.obj
 0002:0001405c       ??_C@_1DI@MGKHMMGL@?$AAP?$AAr?$AAo?$AAc?$AAe?$AAs?$AAs?$AAo?$AAr?$AA?5?$AAn?$AAa?$AAm?$AAe?$AA?1@ 004fc05c     AuditData.obj
 0002:00014094       ??_C@_1DE@LDBNCMLB@?$AAM?$AAe?$AAm?$AAo?$AAr?$AAy?$AA?5?$AAi?$AAn?$AAf?$AAo?$AAr?$AAm?$AAa?$AAt@ 004fc094     AuditData.obj
 0002:000140c8       ??_C@_1CK@ODHCCDLK@?$AAD?$AAi?$AAs?$AAk?$AA?5?$AAc?$AAa?$AAp?$AAa?$AAc?$AAi?$AAt?$AAy?$AA?5?$AAe@ 004fc0c8     AuditData.obj
 0002:000140f4       ??_C@_1DG@IFKJEMF@?$AAD?$AAi?$AAs?$AAp?$AAa?$AAl?$AAy?$AA?5?$AAd?$AAe?$AAs?$AAc?$AAr?$AAi?$AAp@ 004fc0f4     AuditData.obj
 0002:0001412c       ??_C@_1CI@LAHDNKEF@?$AAB?$AAI?$AAO?$AAS?$AA?5?$AAv?$AAe?$AAr?$AAs?$AAi?$AAo?$AAn?$AA?5?$AAe?$AAr@ 004fc12c     AuditData.obj
 0002:00014154       ??_C@_1CC@IHMGJBCP@?$AAU?$AAs?$AAe?$AAr?$AA?5?$AAn?$AAa?$AAm?$AAe?$AA?5?$AAe?$AAr?$AAr?$AAo?$AAr@ 004fc154     AuditData.obj
 0002:00014178       ??_C@_1CO@HHDDHJMP@?$AAS?$AAy?$AAs?$AAt?$AAe?$AAm?$AA?5?$AAo?$AAv?$AAe?$AAr?$AAv?$AAi?$AAe?$AAw@ 004fc178     AuditData.obj
 0002:000141a8       ??_C@_0CB@FIEGDKHO@AuditData?3?3MakeAuditMasterRecor@ 004fc1a8     AuditData.obj
 0002:000141cc       ??_C@_1BK@CKLBJKJF@?$AAp?$AAA?$AAu?$AAd?$AAi?$AAt?$AAM?$AAa?$AAs?$AAt?$AAe?$AAr@ 004fc1cc     AuditData.obj
 0002:000141e8       ??_C@_0CE@ODOLDGMI@AuditData?3?3MakeComputerMasterRe@ 004fc1e8     AuditData.obj
 0002:0001420c       ??_C@_1CA@FNBLEMLJ@?$AAp?$AAC?$AAo?$AAm?$AAp?$AAu?$AAt?$AAe?$AAr?$AAM?$AAa?$AAs?$AAt?$AAe?$AAr@ 004fc20c     AuditData.obj
 0002:0001422c       ??_C@_1DG@BMAOFCAD@?$AAE?$AAr?$AAr?$AAo?$AAr?$AA?5?$AAg?$AAe?$AAt?$AAt?$AAi?$AAn?$AAg?$AA?5?$AAM@ 004fc22c     AuditData.obj
 0002:00014264       ??_C@_1DG@LOIHIFJE@?$AAE?$AAr?$AAr?$AAo?$AAr?$AA?5?$AAg?$AAe?$AAt?$AAt?$AAi?$AAn?$AAg?$AA?5?$AAS@ 004fc264     AuditData.obj
 0002:0001429c       ??_C@_1DC@OGAPNHKC@?$AAE?$AAr?$AAr?$AAo?$AAr?$AA?5?$AAg?$AAe?$AAt?$AAt?$AAi?$AAn?$AAg?$AA?5?$AAa@ 004fc29c     AuditData.obj
 0002:000142d0       ??_C@_1FG@OPKDCAKB@?$AAE?$AAr?$AAr?$AAo?$AAr?$AA?5?$AAg?$AAe?$AAt?$AAt?$AAi?$AAn?$AAg?$AA?5?$AAf@ 004fc2d0     AuditData.obj
 0002:00014328       ??_C@_1DC@LEAILJM@?$AAE?$AAr?$AAr?$AAo?$AAr?$AA?5?$AAg?$AAe?$AAt?$AAt?$AAi?$AAn?$AAg?$AA?5?$AAs@ 004fc328     AuditData.obj
 0002:0001435c       ??_C@_1DG@KJALCCEM@?$AAE?$AAr?$AAr?$AAo?$AAr?$AA?5?$AAg?$AAe?$AAt?$AAt?$AAi?$AAn?$AAg?$AA?5?$AAd@ 004fc35c     AuditData.obj
 0002:00014394       ??_C@_1DK@BECIOLMC@?$AAE?$AAr?$AAr?$AAo?$AAr?$AA?5?$AAg?$AAe?$AAt?$AAt?$AAi?$AAn?$AAg?$AA?5?$AAc@ 004fc394     AuditData.obj
 0002:000143d0       ??_C@_1EE@KKKPNNME@?$AAE?$AAr?$AAr?$AAo?$AAr?$AA?5?$AAg?$AAe?$AAt?$AAt?$AAi?$AAn?$AAg?$AA?5?$AAW@ 004fc3d0     AuditData.obj
 0002:00014418       ??_C@_1EA@JBDNOGEK@?$AAE?$AAr?$AAr?$AAo?$AAr?$AA?5?$AAg?$AAe?$AAt?$AAt?$AAi?$AAn?$AAg?$AA?5?$AAo@ 004fc418     AuditData.obj
 0002:00014458       ??_C@_1EG@KOEOOBNO@?$AAI?$AAn?$AAv?$AAa?$AAl?$AAi?$AAd?$AA?5?$AAW?$AAi?$AAn?$AAA?$AAu?$AAd?$AAi@ 004fc458     AuditData.obj
 0002:000144a0       ??_C@_1EC@PNIIHKFL@?$AAF?$AAo?$AAu?$AAn?$AAd?$AA?5?$AAW?$AAi?$AAn?$AAA?$AAu?$AAd?$AAi?$AAt?$AAG@ 004fc4a0     AuditData.obj
 0002:000144e4       ??_C@_13JGCMLPCH@?$AA1@    004fc4e4     AuditData.obj
 0002:000144e8       ??_C@_1BE@DNKNKJMH@?$AAG?$AAr?$AAe?$AAg?$AAo?$AAr?$AAi?$AAa?$AAn@ 004fc4e8     AuditData.obj
 0002:000144fc       ??_C@_13IEJJBAMJ@?$AA2@    004fc4fc     AuditData.obj
 0002:00014500       ??_C@_13DMCFHHKM@?$AA3@    004fc500     AuditData.obj
 0002:00014504       ??_C@_1CK@FAIMDKC@?$AAJ?$AAa?$AAp?$AAa?$AAn?$AAe?$AAs?$AAe?$AA?5?$AAE?$AAm?$AAp?$AAe?$AAr?$AAo@ 004fc504     AuditData.obj
 0002:00014530       ??_C@_13KBPCEPBF@?$AA4@    004fc530     AuditData.obj
 0002:00014534       ??_C@_1CA@NGCEGIKM@?$AAT?$AAa?$AAi?$AAw?$AAa?$AAn?$AA?5?$AAC?$AAa?$AAl?$AAe?$AAn?$AAd?$AAa?$AAr@ 004fc534     AuditData.obj
 0002:00014554       ??_C@_13BJEOCIHA@?$AA5@    004fc554     AuditData.obj
 0002:00014558       ??_C@_1CG@EDFCEFHK@?$AAT?$AAa?$AAn?$AAg?$AAu?$AAn?$AA?5?$AAE?$AAr?$AAa?$AA?5?$AA?$CI?$AAK?$AAo?$AAr@ 004fc558     AuditData.obj
 0002:00014580       ??_C@_13LPLIHJO@?$AA6@     004fc580     AuditData.obj
 0002:00014584       ??_C@_1CK@ENCCOKAH@?$AAH?$AAi?$AAj?$AAr?$AAi?$AA?5?$AA?$CI?$AAA?$AAr?$AAa?$AAb?$AAi?$AAc?$AA?5?$AAl@ 004fc584     AuditData.obj
 0002:000145b0       ??_C@_13LDEHOAPL@?$AA7@    004fc5b0     AuditData.obj
 0002:000145b4       ??_C@_19CKACGOMD@?$AAT?$AAh?$AAa?$AAi@ 004fc5b4     AuditData.obj
 0002:000145c0       ??_C@_13OLCEPAKN@?$AA8@    004fc5c0     AuditData.obj
 0002:000145c4       ??_C@_1BO@CCFPEAEG@?$AAH?$AAe?$AAb?$AAr?$AAe?$AAw?$AA?5?$AA?$CI?$AAL?$AAu?$AAn?$AAa?$AAr?$AA?$CJ@ 004fc5c4     AuditData.obj
 0002:000145e4       ??_C@_13FDJIJHMI@?$AA9@    004fc5e4     AuditData.obj
 0002:000145e8       ??_C@_1DK@KJNJDBBI@?$AAG?$AAr?$AAe?$AAg?$AAo?$AAr?$AAi?$AAa?$AAn?$AA?5?$AAM?$AAi?$AAd?$AAd?$AAl@ 004fc5e8     AuditData.obj
 0002:00014624       ??_C@_15HBDAHCPF@?$AA1?$AA0@ 004fc624     AuditData.obj
 0002:0001462c       ??_C@_1CC@JPFKNJFC@?$AAG?$AAr?$AAe?$AAg?$AAo?$AAr?$AAi?$AAa?$AAn?$AA?5?$AAA?$AAr?$AAa?$AAb?$AAi@ 004fc62c     AuditData.obj
 0002:00014650       ??_C@_15MJIMBFJA@?$AA1?$AA1@ 004fc650     AuditData.obj
 0002:00014658       ??_C@_1EC@HKECCGOK@?$AAG?$AAr?$AAe?$AAg?$AAo?$AAr?$AAi?$AAa?$AAn?$AA?5?$AAT?$AAr?$AAa?$AAn?$AAs@ 004fc658     AuditData.obj
 0002:0001469c       ??_C@_15NLDJLKHO@?$AA1?$AA2@ 004fc69c     AuditData.obj
 0002:000146a8       ??_C@_1EA@MGPOFFIJ@?$AAG?$AAr?$AAe?$AAg?$AAo?$AAr?$AAi?$AAa?$AAn?$AA?5?$AAT?$AAr?$AAa?$AAn?$AAs@ 004fc6a8     AuditData.obj
 0002:000146e8       ??_C@_0CB@JDGCLGLJ@AuditData?3?3TranslateCalenderTyp@ 004fc6e8     AuditData.obj
 0002:0001470c       ??_C@_1BI@PJDMHJEM@?$AAp?$AAs?$AAz?$AAC?$AAa?$AAl?$AAe?$AAn?$AAd?$AAa?$AAr@ 004fc70c     AuditData.obj
 0002:00014724       ??_C@_1BC@FJLEPPLJ@?$AAp?$AAM?$AAe?$AAa?$AAn?$AAi?$AAn?$AAg@ 004fc724     AuditData.obj
 0002:00014738       ??_C@_1EE@FIJLHJCA@?$AAU?$AAn?$AAr?$AAe?$AAc?$AAo?$AAg?$AAn?$AAi?$AAs?$AAe?$AAd?$AA?5?$AAc?$AAa@ 004fc738     AuditData.obj
 0002:0001477c       ??_C@_0BN@HPFDOKGL@TArray?$DMclass?5NameValue?$DO?3?3Get@ 004fc77c     AuditData.obj
 0002:0001479c       ??_C@_1M@FMOMODBB@?$AAi?$AAn?$AAd?$AAe?$AAx@ 004fc79c     AuditData.obj
 0002:000147a8       ??_C@_0BL@FAPFBPJL@TArray?$DMunsigned?5char?$DO?3?3Get@ 004fc7a8     AuditData.obj
 0002:000147c4       ??_C@_0CA@IKHHGPOF@TArray?$DMclass?5NameValue?$DO?3?3Insert@ 004fc7c4     AuditData.obj
 0002:000147e4       ??_C@_0CC@IPKNDCHB@TArray?$DMclass?5AuditRecord?$DO?3?3Inse@ 004fc7e4     AuditData.obj
 0002:00014808       ??_C@_1DG@KOLGHAFB@?$AAI?$AAn?$AAv?$AAa?$AAl?$AAi?$AAd?$AA?5?$AAW?$AAi?$AAn?$AAA?$AAu?$AAd?$AAi@ 004fc808     AuditDatabase.obj
 0002:00014840       ??_C@_0CC@CIKMLILF@AuditDatabase?3?3IdentifyComputer@ 004fc840     AuditDatabase.obj
 0002:00014868       ??_C@_1FO@PBNFGLMM@?$AAS?$AAE?$AAL?$AAE?$AAC?$AAT?$AA?5?$AAC?$AAo?$AAm?$AAp?$AAu?$AAt?$AAe?$AAr@ 004fc868     AuditDatabase.obj
 0002:000148c8       ??_C@_1DM@HMJPPOBB@?$AA?$CF?$AA?$CF?$AA1?$AA?$CI?$AAW?$AAi?$AAn?$AAA?$AAu?$AAd?$AAi?$AAt?$AA_?$AAG?$AAU@ 004fc8c8     AuditDatabase.obj
 0002:00014908       ??_C@_1EK@NHENJCMH@?$AAM?$AAa?$AAt?$AAc?$AAh?$AAe?$AAd?$AA?5?$AAc?$AAo?$AAm?$AAp?$AAu?$AAt?$AAe@ 004fc908     AuditDatabase.obj
 0002:00014958       ??_C@_1FI@PGIEDOPL@?$AAU?$AAP?$AAD?$AAA?$AAT?$AAE?$AA?5?$AAC?$AAo?$AAm?$AAp?$AAu?$AAt?$AAe?$AAr@ 004fc958     AuditDatabase.obj
 0002:000149b0       ??_C@_1CM@FGILOJOJ@?$AA?5?$AAW?$AAH?$AAE?$AAR?$AAE?$AA?5?$AAC?$AAo?$AAm?$AAp?$AAu?$AAt?$AAe?$AAr@ 004fc9b0     AuditDatabase.obj
 0002:000149e0       ??_C@_1FI@LHMGAEAL@?$AA?$CF?$AA?$CF?$AA1?$AA?$CI?$AAF?$AAu?$AAl?$AAl?$AAy?$AA_?$AAQ?$AAu?$AAa?$AAl?$AAi@ 004fc9e0     AuditDatabase.obj
 0002:00014a38       ??_C@_1EC@NBBJFLGN@?$AA?5?$AAA?$AAN?$AAD?$AA?5?$AA?$CF?$AA?$CF?$AA1?$AA?$CI?$AAS?$AAm?$AAb?$AAi?$AAo?$AAs@ 004fca38     AuditDatabase.obj
 0002:00014a7c       ??_C@_1DO@CLIBLDCN@?$AA?5?$AAA?$AAN?$AAD?$AA?5?$AA?$CF?$AA?$CF?$AA1?$AA?$CI?$AAA?$AAs?$AAs?$AAe?$AAt?$AA_@ 004fca7c     AuditDatabase.obj
 0002:00014ac0       ??_C@_1LI@EHFLLMLB@?$AAM?$AAa?$AAt?$AAc?$AAh?$AAe?$AAd?$AA?5?$AAc?$AAo?$AAm?$AAp?$AAu?$AAt?$AAe@ 004fcac0     AuditDatabase.obj
 0002:00014b78       ??_C@_1KA@DOJGCJDC@?$AAM?$AAa?$AAt?$AAc?$AAh?$AAe?$AAd?$AA?5?$AAc?$AAo?$AAm?$AAp?$AAu?$AAt?$AAe@ 004fcb78     AuditDatabase.obj
 0002:00014c18       ??_C@_1DI@HHGLDECC@?$AA?$CF?$AA?$CF?$AA1?$AA?$CI?$AAM?$AAA?$AAC?$AA_?$AAA?$AAd?$AAd?$AAr?$AAe?$AAs?$AAs@ 004fcc18     AuditDatabase.obj
 0002:00014c50       ??_C@_1GC@GNBKCBPF@?$AAM?$AAa?$AAt?$AAc?$AAh?$AAe?$AAd?$AA?5?$AAc?$AAo?$AAm?$AAp?$AAu?$AAt?$AAe@ 004fcc50     AuditDatabase.obj
 0002:00014cb8       ??_C@_1EG@LIJMAKAK@?$AA?5?$AAA?$AAN?$AAD?$AA?5?$AA?$CF?$AA?$CF?$AA1?$AA?$CI?$AAO?$AAS?$AA_?$AAP?$AAr?$AAo@ 004fccb8     AuditDatabase.obj
 0002:00014d00       ??_C@_1GG@GNPGJNHB@?$AAM?$AAa?$AAt?$AAc?$AAh?$AAe?$AAd?$AA?5?$AAc?$AAo?$AAm?$AAp?$AAu?$AAt?$AAe@ 004fcd00     AuditDatabase.obj
 0002:00014d68       ??_C@_1DI@CHGECECL@?$AA?$CF?$AA?$CF?$AA1?$AA?$CI?$AAS?$AAm?$AAb?$AAi?$AAo?$AAs?$AA_?$AAU?$AAU?$AAI?$AAD@ 004fcd68     AuditDatabase.obj
 0002:00014da0       ??_C@_1GG@MDKGOGNK@?$AAM?$AAa?$AAt?$AAc?$AAh?$AAe?$AAd?$AA?5?$AAc?$AAo?$AAm?$AAp?$AAu?$AAt?$AAe@ 004fcda0     AuditDatabase.obj
 0002:00014e08       ??_C@_1IG@JEGFOCOI@?$AAM?$AAa?$AAt?$AAc?$AAh?$AAe?$AAd?$AA?5?$AAc?$AAo?$AAm?$AAp?$AAu?$AAt?$AAe@ 004fce08     AuditDatabase.obj
 0002:00014e90       ??_C@_1DM@FNKKLBHA@?$AA?$CF?$AA?$CF?$AA1?$AA?$CI?$AAC?$AAo?$AAm?$AAp?$AAu?$AAt?$AAe?$AAr?$AA_?$AAN?$AAa@ 004fce90     AuditDatabase.obj
 0002:00014ed0       ??_C@_1GK@LHLKNDKG@?$AAM?$AAa?$AAt?$AAc?$AAh?$AAe?$AAd?$AA?5?$AAc?$AAo?$AAm?$AAp?$AAu?$AAt?$AAe@ 004fced0     AuditDatabase.obj
 0002:00014f40       ??_C@_1HC@KFEIDCNF@?$AAD?$AAi?$AAd?$AA?5?$AAn?$AAo?$AAt?$AA?5?$AAf?$AAi?$AAn?$AAd?$AA?5?$AAm?$AAa@ 004fcf40     AuditDatabase.obj
 0002:00014fb4       ??_C@_0CB@HIEHNENF@AuditDatabase?3?3InsertAuditMaste@ 004fcfb4     AuditDatabase.obj
 0002:00014fd8       ??_C@_1BG@BIPIMMHB@?$AAc?$AAo?$AAm?$AAp?$AAu?$AAt?$AAe?$AAr?$AAI?$AAD@ 004fcfd8     AuditDatabase.obj
 0002:00014ff0       ??_C@_1DK@INLODOGI@?$AAP?$AAX?$AAS?$AA_?$AAA?$AAU?$AAD?$AAI?$AAT?$AA_?$AAM?$AAA?$AAS?$AAT?$AAE@ 004fcff0     AuditDatabase.obj
 0002:0001502c       ??_C@_19CIJIHAKK@?$AAN?$AAU?$AAL?$AAL@ 004fd02c     AuditDatabase.obj
 0002:00015038       ??_C@_1FO@CHOMEOOH@?$AAD?$AAa?$AAt?$AAa?$AAb?$AAa?$AAs?$AAe?$AA?5?$AAk?$AAe?$AAy?$AAw?$AAo?$AAr@ 004fd038     AuditDatabase.obj
 0002:00015098       ??_C@_1EK@EJBGNMIP@?$AAD?$AAa?$AAt?$AAa?$AAb?$AAa?$AAs?$AAe?$AA?5?$AAk?$AAe?$AAy?$AAw?$AAo?$AAr@ 004fd098     AuditDatabase.obj
 0002:000150e8       ??_C@_1EC@HBPJE@?$AAP?$AAX?$AAS?$AA_?$AAA?$AAU?$AAD?$AAI?$AAT?$AA_?$AAM?$AAA?$AAS?$AAT?$AAE@ 004fd0e8     AuditDatabase.obj
 0002:0001512c       ??_C@_1DO@JBHLHLDL@?$AAP?$AAX?$AAS?$AA_?$AAA?$AAU?$AAD?$AAI?$AAT?$AA_?$AAM?$AAA?$AAS?$AAT?$AAE@ 004fd12c     AuditDatabase.obj
 0002:00015170       ??_C@_1EG@JGFDNKAA@?$AA?$HL?$AAc?$AAa?$AAl?$AAl?$AA?5?$AAp?$AAx?$AAs?$AA_?$AAs?$AAp?$AA_?$AAi?$AAn@ 004fd170     AuditDatabase.obj
 0002:000151b8       ??_C@_1M@DEPHGEHM@?$AA?$CF?$AA?$CF?$AA1?$AA?0?$AA?5@ 004fd1b8     AuditDatabase.obj
 0002:000151c4       ??_C@_19CLOIJAFD@?$AA?5?$AA?$CJ?$AA?5?$AA?$HN@ 004fd1c4     AuditDatabase.obj
 0002:000151d0       ??_C@_1DI@KKAGPHBL@?$AAI?$AAN?$AAS?$AAE?$AAR?$AAT?$AA?5?$AAI?$AAN?$AAT?$AAO?$AA?5?$AAA?$AAu?$AAd@ 004fd1d0     AuditDatabase.obj
 0002:00015208       ??_C@_1BK@OOKFCJCN@?$AAA?$AAu?$AAd?$AAi?$AAt?$AA_?$AAG?$AAU?$AAI?$AAD?$AA?0?$AA?5@ 004fd208     AuditDatabase.obj
 0002:00015224       ??_C@_1CA@FILNJKML@?$AAD?$AAB?$AA_?$AAU?$AAs?$AAe?$AAr?$AA_?$AAN?$AAa?$AAm?$AAe?$AA?0?$AA?5?$AA?5@ 004fd224     AuditDatabase.obj
 0002:00015244       ??_C@_1CC@PAFOOGBB@?$AAD?$AAa?$AAt?$AAa?$AAb?$AAa?$AAs?$AAe?$AA_?$AAL?$AAo?$AAc?$AAa?$AAl?$AA?0@ 004fd244     AuditDatabase.obj
 0002:00015268       ??_C@_1BO@IKMIKIFO@?$AAD?$AAa?$AAt?$AAa?$AAb?$AAa?$AAs?$AAe?$AA_?$AAU?$AAT?$AAC?$AA?0?$AA?5@ 004fd268     AuditDatabase.obj
 0002:00015288       ??_C@_1CC@PEMHCGFC@?$AAC?$AAo?$AAm?$AAp?$AAu?$AAt?$AAe?$AAr?$AA_?$AAL?$AAo?$AAc?$AAa?$AAl?$AA?0@ 004fd288     AuditDatabase.obj
 0002:000152ac       ??_C@_1BO@ONLCAEME@?$AAC?$AAo?$AAm?$AAp?$AAu?$AAt?$AAe?$AAr?$AA_?$AAU?$AAT?$AAC?$AA?0?$AA?5@ 004fd2ac     AuditDatabase.obj
 0002:000152cc       ??_C@_1BK@IOKEOILF@?$AAC?$AAo?$AAm?$AAp?$AAu?$AAt?$AAe?$AAr?$AA_?$AAI?$AAD?$AA?5@ 004fd2cc     AuditDatabase.obj
 0002:000152e8       ??_C@_1BK@POJFKIIK@?$AA?$CJ?$AA?5?$AAV?$AAA?$AAL?$AAU?$AAE?$AAS?$AA?5?$AA?$CI?$AA?$AN?$AA?6@ 004fd2e8     AuditDatabase.obj
 0002:00015304       ??_C@_15JEKLLLNO@?$AA?5?$AA?$CJ@ 004fd304     AuditDatabase.obj
 0002:0001530c       ??_C@_1BC@PEBCEEEH@?$AAS?$AAQ?$AAL?$AA?3?$AA?5?$AA?$CF?$AA?$CF?$AA1@ 004fd30c     AuditDatabase.obj
 0002:00015320       ??_C@_1GM@FNLDINGP@?$AAS?$AAE?$AAL?$AAE?$AAC?$AAT?$AA?5?$AAA?$AAu?$AAd?$AAi?$AAt?$AA_?$AAI?$AAD@ 004fd320     AuditDatabase.obj
 0002:0001538c       ??_C@_1CC@BBGJKBM@?$AAa?$AAu?$AAd?$AAi?$AAt?$AAI?$AAD?$AA?5?$AA?$DM?$AA?$DN?$AA?5?$AA0?$AA?$AN?$AA?6?$AA?$AN@ 004fd38c     AuditDatabase.obj
 0002:000153b0       ??_C@_13ODFOLHGE@?$AA?8@   004fd3b0     AuditDatabase.obj
 0002:000153b8       ??_C@_1EM@DOIENPAE@?$AA?$HL?$AAc?$AAa?$AAl?$AAl?$AA?5?$AAp?$AAx?$AAs?$AA_?$AAs?$AAp?$AA_?$AAi?$AAn@ 004fd3b8     AuditDatabase.obj
 0002:00015404       ??_C@_1M@EDDFKEAH@?$AA?$CF?$AA?$CF?$AA1?$AA?5?$AA?5@ 004fd404     AuditDatabase.obj
 0002:00015410       ??_C@_1DO@LLMLIEBM@?$AAI?$AAN?$AAS?$AAE?$AAR?$AAT?$AA?5?$AAI?$AAN?$AAT?$AAO?$AA?5?$AAC?$AAo?$AAm@ 004fd410     AuditDatabase.obj
 0002:00015450       ??_C@_1CA@HHFOMLMN@?$AAC?$AAo?$AAm?$AAp?$AAu?$AAt?$AAe?$AAr?$AA_?$AAG?$AAU?$AAI?$AAD?$AA?0?$AA?5@ 004fd450     AuditDatabase.obj
 0002:00015470       ??_C@_1BO@CDBPPNIA@?$AAD?$AAB?$AA_?$AAU?$AAs?$AAe?$AAr?$AA_?$AAN?$AAa?$AAm?$AAe?$AA?0?$AA?5@ 004fd470     AuditDatabase.obj
 0002:00015490       ??_C@_1CA@GECCNHKN@?$AAL?$AAa?$AAs?$AAt?$AA_?$AAA?$AAu?$AAd?$AAi?$AAt?$AA_?$AAI?$AAD?$AA?0?$AA?5@ 004fd490     AuditDatabase.obj
 0002:000154b0       ??_C@_1BM@PPJKCGFF@?$AAM?$AAA?$AAC?$AA_?$AAA?$AAd?$AAd?$AAr?$AAe?$AAs?$AAs?$AA?0?$AA?5@ 004fd4b0     AuditDatabase.obj
 0002:000154cc       ??_C@_1BM@BLMHIMGI@?$AAS?$AAm?$AAb?$AAi?$AAo?$AAs?$AA_?$AAU?$AAU?$AAI?$AAD?$AA?0?$AA?5@ 004fd4cc     AuditDatabase.obj
 0002:000154e8       ??_C@_1BI@DLCBAOBE@?$AAA?$AAs?$AAs?$AAe?$AAt?$AA_?$AAT?$AAa?$AAg?$AA?0?$AA?5@ 004fd4e8     AuditDatabase.obj
 0002:00015500       ??_C@_1DM@KEKAJLDF@?$AAF?$AAu?$AAl?$AAl?$AAy?$AA_?$AAQ?$AAu?$AAa?$AAl?$AAi?$AAf?$AAi?$AAe?$AAd@ 004fd500     AuditDatabase.obj
 0002:0001553c       ??_C@_1BI@CABLJFEJ@?$AAS?$AAi?$AAt?$AAe?$AA_?$AAN?$AAa?$AAm?$AAe?$AA?0?$AA?5@ 004fd53c     AuditDatabase.obj
 0002:00015554       ??_C@_1BM@FPGJANPD@?$AAD?$AAo?$AAm?$AAa?$AAi?$AAn?$AA_?$AAN?$AAa?$AAm?$AAe?$AA?0?$AA?5@ 004fd554     AuditDatabase.obj
 0002:00015570       ??_C@_1CA@LNENPIJE@?$AAC?$AAo?$AAm?$AAp?$AAu?$AAt?$AAe?$AAr?$AA_?$AAN?$AAa?$AAm?$AAe?$AA?0?$AA?5@ 004fd570     AuditDatabase.obj
 0002:00015590       ??_C@_1CA@OLHINDBO@?$AAO?$AAS?$AA_?$AAP?$AAr?$AAo?$AAd?$AAu?$AAc?$AAt?$AA_?$AAI?$AAD?$AA?0?$AA?5@ 004fd590     AuditDatabase.obj
 0002:000155b0       ??_C@_1CG@PLDPGJGF@?$AAO?$AAt?$AAh?$AAe?$AAr?$AA_?$AAI?$AAd?$AAe?$AAn?$AAt?$AAi?$AAf?$AAi?$AAe@ 004fd5b0     AuditDatabase.obj
 0002:000155d8       ??_C@_1BO@EOIGIBFJ@?$AAW?$AAi?$AAn?$AAA?$AAu?$AAd?$AAi?$AAt?$AA_?$AAG?$AAU?$AAI?$AAD?$AA?5@ 004fd5d8     AuditDatabase.obj
 0002:000155f8       ??_C@_1BK@JMMJKDGB@?$AA?5?$AA?$CJ?$AA?5?$AAV?$AAA?$AAL?$AAU?$AAE?$AAS?$AA?5?$AA?$CI?$AA?5@ 004fd5f8     AuditDatabase.obj
 0002:00015614       ??_C@_17MPEMBJJI@?$AA0?$AA?0?$AA?5@ 004fd614     AuditDatabase.obj
 0002:0001561c       ??_C@_1M@DODNOLIN@?$AA?$CF?$AA?$CF?$AA1?$AA?5?$AA?$CJ@ 004fd61c     AuditDatabase.obj
 0002:00015628       ??_C@_1FC@BKDMEOEK@?$AAS?$AAE?$AAL?$AAE?$AAC?$AAT?$AA?5?$AAC?$AAo?$AAm?$AAp?$AAu?$AAt?$AAe?$AAr@ 004fd628     AuditDatabase.obj
 0002:0001567c       ??_C@_1CO@BHLABBB@?$AAW?$AAH?$AAE?$AAR?$AAE?$AA?5?$AAC?$AAo?$AAm?$AAp?$AAu?$AAt?$AAe?$AAr?$AA_@ 004fd67c     AuditDatabase.obj
 0002:000156ac       ??_C@_1CI@MMGJJGAD@?$AAc?$AAo?$AAm?$AAp?$AAu?$AAt?$AAe?$AAr?$AAI?$AAD?$AA?5?$AA?$DM?$AA?$DN?$AA?5?$AA0@ 004fd6ac     AuditDatabase.obj
 0002:000156d4       ??_C@_0CE@GEOFCAJL@AuditDatabase?3?3InsertComputerMa@ 004fd6d4     AuditDatabase.obj
 0002:000156f8       ??_C@_0CM@MOMKPLDP@AuditDatabase?3?3ComputerMasterRe@ 004fd6f8     AuditDatabase.obj
 0002:00015724       ??_C@_1BA@HPBNGBIJ@?$AAn?$AAu?$AAl?$AAl?$AAp?$AAt?$AAr@ 004fd724     AuditDatabase.obj
 0002:00015734       ??_C@_1CK@FMMGFOAM@?$AAC?$AAo?$AAm?$AAp?$AAu?$AAt?$AAe?$AAr?$AA_?$AAM?$AAa?$AAs?$AAt?$AAe?$AAr@ 004fd734     AuditDatabase.obj
 0002:00015760       ??_C@_1DI@HLDNEFGM@?$AAI?$AAn?$AAv?$AAa?$AAl?$AAi?$AAd?$AA?5?$AAM?$AAA?$AAC?$AA?5?$AAa?$AAd?$AAd@ 004fd760     AuditDatabase.obj
 0002:00015798       ??_C@_1DI@HLNNHOOE@?$AAI?$AAn?$AAv?$AAa?$AAl?$AAi?$AAd?$AA?5?$AAS?$AAM?$AAB?$AAI?$AAO?$AAS?$AA?5@ 004fd798     AuditDatabase.obj
 0002:000157d0       ??_C@_1DK@JOFMJHCP@?$AAI?$AAn?$AAv?$AAa?$AAl?$AAi?$AAd?$AA?5?$AAW?$AAi?$AAn?$AAA?$AAu?$AAd?$AAi@ 004fd7d0     AuditDatabase.obj
 0002:0001580c       ??_C@_0BB@CDJJAPBO@AuditRecord?3?3Add@ 004fd80c     AuditRecord.obj
 0002:00015820       ??_C@_1BM@HEHLKMHP@?$AAm?$AA_?$AAu?$AAC?$AAa?$AAt?$AAe?$AAg?$AAo?$AAr?$AAy?$AAI?$AAD@ 004fd820     AuditRecord.obj
 0002:00015840       ??_C@_1EE@FKFEGNFE@?$AAm?$AA_?$AAu?$AAC?$AAa?$AAt?$AAe?$AAg?$AAo?$AAr?$AAy?$AAI?$AAD?$AA?5?$AA?$DN@ 004fd840     AuditRecord.obj
 0002:00015888       ??_C@_1FE@DMKCKPLH@?$AAI?$AAn?$AAv?$AAa?$AAl?$AAi?$AAd?$AA?5?$AAU?$AAT?$AAF?$AA1?$AA6?$AA?5?$AAi@ 004fd888     AuditRecord.obj
 0002:000158dc       ??_C@_0CE@IADPHAEF@AuditRecord?3?3GetCategoryIdAndVa@ 004fd8dc     AuditRecord.obj
 0002:00015900       ??_C@_1CI@EOOHBEKK@?$AAp?$AAC?$AAa?$AAt?$AAe?$AAg?$AAo?$AAr?$AAy?$AAI?$AAD?$AA?1?$AAp?$AAV?$AAa@ 004fd900     AuditRecord.obj
 0002:00015928       ??_C@_0BK@CLLDGNPN@AuditRecord?3?3GetItemValue@ 004fd928     AuditRecord.obj
 0002:00015944       ??_C@_1DM@JHICMBLN@?$AAi?$AAt?$AAe?$AAm?$AAI?$AAD?$AA?$DN?$AA?$CF?$AA?$CF?$AA1?$AA?0?$AA?5?$AAm?$AA_?$AAu@ 004fd944     AuditRecord.obj
 0002:00015980       ??_C@_1BE@EGFGGGJG@?$AAi?$AAt?$AAe?$AAm?$AAI?$AAD?$AA?5?$AA?$DN?$AA?5@ 004fd980     AuditRecord.obj
 0002:00015994       ??_C@_1BG@HOCJFBL@?$AA?0?$AA?5?$AAi?$AAn?$AAd?$AAe?$AAx?$AA?5?$AA?$DN?$AA?5@ 004fd994     AuditRecord.obj
 0002:000159ac       ??_C@_1BI@GDAKDCDJ@?$AA?3?$AA?5?$AAr?$AAe?$AAc?$AAo?$AAr?$AAd?$AA?5?$AA?$DN?$AA?5@ 004fd9ac     AuditRecord.obj
 0002:000159c4       ??_C@_1O@PJBLILGI@?$AAp?$AAV?$AAa?$AAl?$AAu?$AAe@ 004fd9c4     AuditRecord.obj
 0002:000159d4       ??_C@_0BG@CAFLBCKE@AuditRecord?3?3ToString@ 004fd9d4     AuditRecord.obj
 0002:000159ec       ??_C@_1BM@KIDEIMHO@?$AAp?$AAR?$AAe?$AAc?$AAo?$AAr?$AAd?$AAS?$AAt?$AAr?$AAi?$AAn?$AAg@ 004fd9ec     AuditRecord.obj
 0002:00015a08       ??_C@_1CA@MNHONBFE@?$AAC?$AAa?$AAt?$AAe?$AAg?$AAo?$AAr?$AAy?$AAI?$AAD?$AA?$DN?$AA?$CF?$AA?$CF?$AA1?$AA?$DL@ 004fda08     AuditRecord.obj
 0002:00015a28       ??_C@_13NMPKAAJP@?$AA?$DN@ 004fda28     AuditRecord.obj
 0002:00015a2c       ??_C@_13PJJBFPED@?$AA?$DL@ 004fda2c     AuditRecord.obj
 0002:00015a30       ??_C@_0CF@KBACPEKC@AuditThread?3?3SetAuditThreadPara@ 004fda30     AuditThread.obj
 0002:00015a58       ??_C@_1CC@IMJEIMMK@?$AAm?$AA_?$AAh?$AAD?$AAo?$AAT?$AAa?$AAs?$AAk?$AAE?$AAv?$AAe?$AAn?$AAt?$AAM@ 004fda58     AuditThread.obj
 0002:00015a7c       ??_C@_1BG@BIGFPDLL@?$AAp?$AAP?$AAa?$AAr?$AAa?$AAm?$AAe?$AAt?$AAe?$AAr@ 004fda7c     AuditThread.obj
 0002:00015a94       ??_C@_1CC@EIILHOOM@?$AAS?$AAe?$AAt?$AAE?$AAv?$AAe?$AAn?$AAt?$AA?5?$AAf?$AAa?$AAi?$AAl?$AAe?$AAd@ 004fda94     AuditThread.obj
 0002:00015ab8       ??_C@_0BN@KGNLCGDP@AuditThread?3?3RunWorkerThread@ 004fdab8     AuditThread.obj
 0002:00015ad8       ??_C@_0BL@MKDDAALK@TArray?$DMunsigned?5long?$DO?3?3Get@ 004fdad8     AuditThread.obj
 0002:00015af8       ??_7AuditThread@@6B@       004fdaf8     AuditThread.obj
 0002:00015b00       ??_C@_1CA@HKEMDPFM@?$AAt?$AAh?$AAi?$AAs?$AA?5?$AA?$DN?$AA?5?$AAN?$AAe?$AAw?$AAA?$AAr?$AAr?$AAa?$AAy@ 004fdb00     AuditThreadParameter.obj
 0002:00015b20       ??_C@_0CO@HIGECOL@CommunicationPortInformation?3?3G@ 004fdb20     CommunicationPortInformation.obj
 0002:00015b50       ??_C@_1DC@BLEOMHBH@?$AAE?$AAn?$AAu?$AAm?$AAP?$AAo?$AAr?$AAt?$AAs?$AA?5?$AAs?$AAa?$AAi?$AAd?$AA?5@ 004fdb50     CommunicationPortInformation.obj
 0002:00015b84       ??_C@_1BE@JFHNIMGG@?$AAE?$AAn?$AAu?$AAm?$AAP?$AAo?$AAr?$AAt?$AAs@ 004fdb84     CommunicationPortInformation.obj
 0002:00015b98       ??_C@_0DA@NJNBCBCP@CommunicationPortInformation?3?3T@ 004fdb98     CommunicationPortInformation.obj
 0002:00015bc8       ??_C@_1M@KEFKBOBN@?$AAp?$AAT?$AAy?$AAp?$AAe@ 004fdbc8     CommunicationPortInformation.obj
 0002:00015bd4       ??_C@_1BI@DHCPDLJP@?$AAC?$AAa?$AAn?$AA?5?$AAw?$AAr?$AAi?$AAt?$AAe?$AA?0?$AA?5@ 004fdbd4     CommunicationPortInformation.obj
 0002:00015bec       ??_C@_1BO@LJOGMBO@?$AAC?$AAa?$AAn?$AAn?$AAo?$AAt?$AA?5?$AAw?$AAr?$AAi?$AAt?$AAe?$AA?0?$AA?5@ 004fdbec     CommunicationPortInformation.obj
 0002:00015c0c       ??_C@_1BG@GHCGNOL@?$AAC?$AAa?$AAn?$AA?5?$AAr?$AAe?$AAa?$AAd?$AA?0?$AA?5@ 004fdc0c     CommunicationPortInformation.obj
 0002:00015c24       ??_C@_1BM@ICJGBFC@?$AAC?$AAa?$AAn?$AAn?$AAo?$AAt?$AA?5?$AAr?$AAe?$AAa?$AAd?$AA?0?$AA?5@ 004fdc24     CommunicationPortInformation.obj
 0002:00015c40       ??_C@_1BK@DJFHECIG@?$AAR?$AAe?$AAd?$AAi?$AAr?$AAe?$AAc?$AAt?$AAe?$AAd?$AA?0?$AA?5@ 004fdc40     CommunicationPortInformation.obj
 0002:00015c5c       ??_C@_1CC@JKPCGIK@?$AAN?$AAe?$AAt?$AAw?$AAo?$AAr?$AAk?$AA?5?$AAa?$AAt?$AAt?$AAa?$AAc?$AAh?$AAe@ 004fdc5c     CommunicationPortInformation.obj
 0002:00015c80       ??_C@_13DEFPDAGF@?$AA?0@   004fdc80     CommunicationPortInformation.obj
 0002:00015c84       ??_C@_0CP@CJHBIFCP@ConfigurationSettings?3?3MakeData@ 004fdc84     ConfigurationSettings.obj
 0002:00015cb4       ??_C@_1BI@GMKPLBBA@?$AAp?$AAC?$AAa?$AAt?$AAe?$AAg?$AAo?$AAr?$AAi?$AAe?$AAs@ 004fdcb4     ConfigurationSettings.obj
 0002:00015ccc       ??_C@_0BO@OPBPEKGJ@TArray?$DMunsigned?5long?$DO?3?3Insert@ 004fdccc     ConfigurationSettings.obj
 0002:00015cec       ??_C@_17CDGIHAL@?$AAT?$AAL?$AAB@ 004fdcec     CpuInformation.obj
 0002:00015cf4       ??_C@_0CD@OGJLPCNK@CpuInformation?3?3GetBasicDataRec@ 004fdcf4     CpuInformation.obj
 0002:00015d18       ??_C@_0BP@DGMFFNO@CpuInformation?3?3GetDiagnostics@ 004fdd18     CpuInformation.obj
 0002:00015d38       ??_C@_1BK@JBKKMGF@?$AAp?$AAD?$AAi?$AAa?$AAg?$AAn?$AAo?$AAs?$AAt?$AAi?$AAc?$AAs@ 004fdd38     CpuInformation.obj
 0002:00015d54       ??_C@_1CG@LOCJPGNK@?$AAP?$AAr?$AAo?$AAc?$AAe?$AAs?$AAs?$AAo?$AAr?$AA?5?$AAD?$AAa?$AAt?$AAa?$AA?5@ 004fdd54     CpuInformation.obj
 0002:00015d7c       ??_C@_1CK@MMOBNGMG@?$AAS?$AAY?$AAS?$AAT?$AAE?$AAM?$AA?5?$AAI?$AAN?$AAF?$AAO?$AAR?$AAM?$AAA?$AAT@ 004fdd7c     CpuInformation.obj
 0002:00015da8       ??_C@_1CO@BDLGAIKP@?$AA?$DN?$AA?$DN?$AA?$DN?$AA?$DN?$AA?$DN?$AA?$DN?$AA?$DN?$AA?$DN?$AA?$DN?$AA?$DN?$AA?$DN?$AA?$DN?$AA?$DN?$AA?$DN?$AA?$DN@ 004fdda8     CpuInformation.obj
 0002:00015dd8       ??_C@_1DC@EKKAJHH@?$AAP?$AAr?$AAo?$AAc?$AAe?$AAs?$AAs?$AAo?$AAr?$AA?5?$AAA?$AAr?$AAc?$AAh?$AAi@ 004fddd8     CpuInformation.obj
 0002:00015e0c       ??_C@_1DC@LLHDBKEI@?$AAA?$AAc?$AAt?$AAi?$AAv?$AAe?$AA?5?$AAP?$AAr?$AAo?$AAc?$AAe?$AAs?$AAs?$AAo@ 004fde0c     CpuInformation.obj
 0002:00015e40       ??_C@_1DC@EDPPACIP@?$AAN?$AAu?$AAm?$AAb?$AAe?$AAr?$AA?5?$AAP?$AAr?$AAo?$AAc?$AAe?$AAs?$AAs?$AAo@ 004fde40     CpuInformation.obj
 0002:00015e74       ??_C@_1DC@PMBAEAAB@?$AAP?$AAr?$AAo?$AAc?$AAe?$AAs?$AAs?$AAo?$AAr?$AA?5?$AAR?$AAe?$AAv?$AAi?$AAs@ 004fde74     CpuInformation.obj
 0002:00015ea8       ??_C@_1EK@DJMONIFI@?$AAP?$AAF?$AA_?$AAF?$AAL?$AAO?$AAA?$AAT?$AAI?$AAN?$AAG?$AA_?$AAP?$AAO?$AAI@ 004fdea8     CpuInformation.obj
 0002:00015ef8       ??_C@_1EK@BKCPCMFL@?$AAP?$AAF?$AA_?$AAF?$AAL?$AAO?$AAA?$AAT?$AAI?$AAN?$AAG?$AA_?$AAP?$AAO?$AAI@ 004fdef8     CpuInformation.obj
 0002:00015f48       ??_C@_1EK@EAMKMJLI@?$AAP?$AAF?$AA_?$AAC?$AAO?$AAM?$AAP?$AAA?$AAR?$AAE?$AA_?$AAE?$AAX?$AAC?$AAH@ 004fdf48     CpuInformation.obj
 0002:00015f98       ??_C@_1EK@JOCAFAGB@?$AAP?$AAF?$AA_?$AAM?$AAM?$AAX?$AA_?$AAI?$AAN?$AAS?$AAT?$AAR?$AAU?$AAC?$AAT@ 004fdf98     CpuInformation.obj
 0002:00015fe8       ??_C@_1EK@BLBDBBEN@?$AAP?$AAF?$AA_?$AAX?$AAM?$AAM?$AAI?$AA_?$AAI?$AAN?$AAS?$AAT?$AAR?$AAU?$AAC@ 004fdfe8     CpuInformation.obj
 0002:00016038       ??_C@_1EK@JJEELCGG@?$AAP?$AAF?$AA_?$AA3?$AAD?$AAN?$AAO?$AAW?$AA_?$AAI?$AAN?$AAS?$AAT?$AAR?$AAU@ 004fe038     CpuInformation.obj
 0002:00016088       ??_C@_1EK@CCFBGCEA@?$AAP?$AAF?$AA_?$AAR?$AAD?$AAT?$AAS?$AAC?$AA_?$AAI?$AAN?$AAS?$AAT?$AAR?$AAU@ 004fe088     CpuInformation.obj
 0002:000160d8       ??_C@_1EK@BBAIALLG@?$AAP?$AAF?$AA_?$AAP?$AAA?$AAE?$AA_?$AAE?$AAN?$AAA?$AAB?$AAL?$AAE?$AAD?$AA?5@ 004fe0d8     CpuInformation.obj
 0002:00016128       ??_C@_1EK@MGCHIPP@?$AAP?$AAF?$AA_?$AAX?$AAM?$AAM?$AAI?$AA6?$AA4?$AA_?$AAI?$AAN?$AAS?$AAT?$AAR@ 004fe128     CpuInformation.obj
 0002:00016178       ??_C@_1EK@IOGBDBDH@?$AAP?$AAF?$AA_?$AAN?$AAX?$AA_?$AAE?$AAN?$AAA?$AAB?$AAL?$AAE?$AAD?$AA?5?$AA?5@ 004fe178     CpuInformation.obj
 0002:000161c4       ??_C@_1CC@IKKKKHFL@?$AAA?$AAF?$AAF?$AAI?$AAN?$AAI?$AAT?$AAY?$AA?5?$AAM?$AAA?$AAS?$AAK?$AAS?$AA?$AN@ 004fe1c4     CpuInformation.obj
 0002:000161e8       ??_C@_1CG@MGAMJBAF@?$AA?$DN?$AA?$DN?$AA?$DN?$AA?$DN?$AA?$DN?$AA?$DN?$AA?$DN?$AA?$DN?$AA?$DN?$AA?$DN?$AA?$DN?$AA?$DN?$AA?$DN?$AA?$DN?$AA?$AN@ 004fe1e8     CpuInformation.obj
 0002:00016210       ??_C@_1FK@PDFALDDF@?$AAG?$AAe?$AAt?$AAP?$AAr?$AAo?$AAc?$AAe?$AAs?$AAs?$AAA?$AAf?$AAf?$AAi?$AAn@ 004fe210     CpuInformation.obj
 0002:0001626c       ??_C@_1DG@GGDAEKNM@?$AAP?$AAr?$AAo?$AAc?$AAe?$AAs?$AAs?$AA?5?$AAa?$AAf?$AAf?$AAi?$AAn?$AAi?$AAt@ 004fe26c     CpuInformation.obj
 0002:000162a4       ??_C@_1DG@IFNCAOGC@?$AAS?$AAy?$AAs?$AAt?$AAe?$AAm?$AA?5?$AAa?$AAf?$AAf?$AAi?$AAn?$AAi?$AAt?$AAy@ 004fe2a4     CpuInformation.obj
 0002:000162dc       ??_C@_1DG@PPEFGOKL@?$AAA?$AAl?$AAl?$AA?5?$AAp?$AAr?$AAo?$AAc?$AAe?$AAs?$AAs?$AAo?$AAr?$AAs?$AA?5@ 004fe2dc     CpuInformation.obj
 0002:00016314       ??_C@_1CM@EEEJMJKC@?$AAP?$AAH?$AAY?$AAS?$AAI?$AAC?$AAA?$AAL?$AA?5?$AAP?$AAR?$AAO?$AAC?$AAE?$AAS@ 004fe314     CpuInformation.obj
 0002:00016340       ??_C@_1CM@PLBHLJN@?$AA?$DN?$AA?$DN?$AA?$DN?$AA?$DN?$AA?$DN?$AA?$DN?$AA?$DN?$AA?$DN?$AA?$DN?$AA?$DN?$AA?$DN?$AA?$DN?$AA?$DN?$AA?$DN?$AA?$DN@ 004fe340     CpuInformation.obj
 0002:0001636c       ??_C@_1DG@ELHLLLGO@?$AAN?$AAu?$AAm?$AAb?$AAe?$AAr?$AA?5?$AAo?$AAf?$AA?5?$AAp?$AAa?$AAc?$AAk?$AAa@ 004fe36c     CpuInformation.obj
 0002:000163a4       ??_C@_1DG@NNINILAB@?$AAP?$AAa?$AAc?$AAk?$AAa?$AAg?$AAe?$AA?5?$AAi?$AAd?$AAe?$AAn?$AAt?$AAi?$AAf@ 004fe3a4     CpuInformation.obj
 0002:000163dc       ??_C@_1DG@GCBNLDBP@?$AAP?$AAh?$AAy?$AAs?$AAi?$AAc?$AAa?$AAl?$AA?5?$AAP?$AAr?$AAo?$AAc?$AAe?$AAs@ 004fe3dc     CpuInformation.obj
 0002:00016414       ??_C@_1DG@KDCFHKBL@?$AAP?$AAa?$AAc?$AAk?$AAa?$AAg?$AAe?$AA?5?$AAi?$AAd?$AAe?$AAn?$AAt?$AAi?$AAf@ 004fe414     CpuInformation.obj
 0002:0001644c       ??_C@_1DG@EFHFCFP@?$AAA?$AAP?$AAI?$AAC?$AA?5?$AAI?$AAd?$AAe?$AAn?$AAt?$AAi?$AAf?$AAi?$AAe?$AAr@ 004fe44c     CpuInformation.obj
 0002:00016484       ??_C@_1DG@OJDNIKDP@?$AAB?$AAr?$AAa?$AAn?$AAd?$AA?5?$AAI?$AAD?$AA?5?$AA?5?$AA?5?$AA?5?$AA?5?$AA?5?$AA?5@ 004fe484     CpuInformation.obj
 0002:000164bc       ??_C@_1DG@PEJFGJOG@?$AAM?$AAa?$AAn?$AAu?$AAf?$AAa?$AAc?$AAt?$AAu?$AAr?$AAe?$AAr?$AA?5?$AAN?$AAa@ 004fe4bc     CpuInformation.obj
 0002:000164f4       ??_C@_1DG@OMBFCKPK@?$AAM?$AAa?$AAx?$AAi?$AAm?$AAu?$AAm?$AA?5?$AAS?$AAt?$AAa?$AAn?$AAd?$AAa?$AAr@ 004fe4f4     CpuInformation.obj
 0002:0001652c       ??_C@_1DG@EMJFPOLI@?$AAM?$AAa?$AAx?$AAi?$AAm?$AAu?$AAm?$AA?5?$AAE?$AAx?$AAt?$AAe?$AAn?$AAd?$AA?5@ 004fe52c     CpuInformation.obj
 0002:00016564       ??_C@_1DG@ELKPCIAP@?$AAM?$AAa?$AAx?$AA?4?$AA?5?$AAL?$AAo?$AAg?$AAi?$AAc?$AAa?$AAl?$AAs?$AA?1?$AAP@ 004fe564     CpuInformation.obj
 0002:0001659c       ??_C@_1DG@MMJJDMCC@?$AAN?$AAa?$AAm?$AAe?$AA?5?$AA?5?$AA?5?$AA?5?$AA?5?$AA?5?$AA?5?$AA?5?$AA?5?$AA?5?$AA?5@ 004fe59c     CpuInformation.obj
 0002:000165d4       ??_C@_1DG@NDCCLBGB@?$AAS?$AAi?$AAg?$AAn?$AAa?$AAt?$AAu?$AAr?$AAe?$AA?5?$AA?9?$AA?5?$AAS?$AAt?$AAe@ 004fe5d4     CpuInformation.obj
 0002:0001660c       ??_C@_1DG@IHPHBLFK@?$AAS?$AAi?$AAg?$AAn?$AAa?$AAt?$AAu?$AAr?$AAe?$AA?5?$AA?9?$AA?5?$AAM?$AAo?$AAd@ 004fe60c     CpuInformation.obj
 0002:00016644       ??_C@_1DG@NHIOAJOI@?$AAS?$AAi?$AAg?$AAn?$AAa?$AAt?$AAu?$AAr?$AAe?$AA?5?$AA?9?$AA?5?$AAF?$AAa?$AAm@ 004fe644     CpuInformation.obj
 0002:0001667c       ??_C@_1DG@ECIEFOKO@?$AAS?$AAi?$AAg?$AAn?$AAa?$AAt?$AAu?$AAr?$AAe?$AA?5?$AA?9?$AA?5?$AAT?$AAy?$AAp@ 004fe67c     CpuInformation.obj
 0002:000166b4       ??_C@_1DG@OIBKHCFO@?$AAS?$AAi?$AAg?$AAn?$AAa?$AAt?$AAu?$AAr?$AAe?$AA?5?$AA?9?$AA?5?$AAM?$AAo?$AAd@ 004fe6b4     CpuInformation.obj
 0002:000166ec       ??_C@_1DG@KBHANNBC@?$AAS?$AAi?$AAg?$AAn?$AAa?$AAt?$AAu?$AAr?$AAe?$AA?5?$AA?9?$AA?5?$AAF?$AAa?$AAm@ 004fe6ec     CpuInformation.obj
 0002:00016724       ??_C@_1DG@PJKPLDAO@?$AAE?$AAs?$AAt?$AAi?$AAm?$AAa?$AAt?$AAe?$AAd?$AA?5?$AAs?$AAp?$AAe?$AAe?$AAd@ 004fe724     CpuInformation.obj
 0002:0001675c       ??_C@_1DG@CPKJFPBF@?$AAR?$AAe?$AAg?$AAi?$AAs?$AAt?$AAr?$AAy?$AA?5?$AAs?$AAp?$AAe?$AAe?$AAd?$AA?5@ 004fe75c     CpuInformation.obj
 0002:00016794       ??_C@_1DG@COOLNOIG@?$AAM?$AAu?$AAl?$AAt?$AAi?$AA?9?$AAC?$AAo?$AAr?$AAe?$AA?1?$AAH?$AAT?$AAT?$AA?5@ 004fe794     CpuInformation.obj
 0002:000167cc       ??_C@_1DG@CHLOJGEE@?$AAT?$AAy?$AAp?$AAe?$AA?5?$AA?5?$AA?5?$AA?5?$AA?5?$AA?5?$AA?5?$AA?5?$AA?5?$AA?5?$AA?5@ 004fe7cc     CpuInformation.obj
 0002:00016804       ??_C@_1DG@NIILMOEB@?$AAV?$AAe?$AAn?$AAd?$AAo?$AAr?$AA?5?$AAS?$AAt?$AAr?$AAi?$AAn?$AAg?$AA?5?$AA?5@ 004fe804     CpuInformation.obj
 0002:0001683c       ??_C@_1CK@MAFLEBBL@?$AAL?$AAO?$AAG?$AAI?$AAC?$AAA?$AAL?$AA?5?$AAP?$AAR?$AAO?$AAC?$AAE?$AAS?$AAS@ 004fe83c     CpuInformation.obj
 0002:00016868       ??_C@_1FE@INOJCKH@?$AA?9?$AA?9?$AA?9?$AA?9?$AA?9?$AA?9?$AA?9?$AA?9?$AA?9?$AA?9?$AA?9?$AA?9?$AA?9?$AA?9?$AA?9@ 004fe868     CpuInformation.obj
 0002:000168bc       ??_C@_1BI@PHHIJDCB@?$AAP?$AAr?$AAo?$AAc?$AAe?$AAs?$AAs?$AAo?$AAr?$AA?$CD?$AA?5@ 004fe8bc     CpuInformation.obj
 0002:000168d4       ??_C@_1DO@BILIEFAN@?$AAA?$AAP?$AAI?$AAC?$AA?5?$AAI?$AAd?$AAe?$AAn?$AAt?$AAi?$AAf?$AAi?$AAe?$AAr@ 004fe8d4     CpuInformation.obj
 0002:00016914       ??_C@_1DO@KGNIMIIL@?$AAM?$AAa?$AAx?$AA?4?$AA?5?$AAS?$AAt?$AAa?$AAn?$AAd?$AAa?$AAr?$AAd?$AA?5?$AAC@ 004fe914     CpuInformation.obj
 0002:00016954       ??_C@_1DO@FCAIJEJA@?$AAM?$AAa?$AAx?$AA?4?$AA?5?$AAE?$AAx?$AAt?$AAe?$AAn?$AAd?$AAe?$AAd?$AA?5?$AAC@ 004fe954     CpuInformation.obj
 0002:00016998       ??_C@_1EM@GCOMOBGA@?$AAS?$AAe?$AAt?$AAT?$AAh?$AAr?$AAe?$AAa?$AAd?$AAA?$AAf?$AAf?$AAi?$AAn?$AAi@ 004fe998     CpuInformation.obj
 0002:000169e4       ??_C@_1CA@IIBFMDDJ@?$AA?0?$AA?5?$AAe?$AAr?$AAr?$AAo?$AAr?$AA?5?$AAc?$AAo?$AAd?$AAe?$AA?5?$AA?$DN?$AA?5@ 004fe9e4     CpuInformation.obj
 0002:00016a04       ??_C@_0BM@ENFMACFG@CpuInformation?3?3GetFeatures@ 004fea04     CpuInformation.obj
 0002:00016a20       ??_C@_1BE@CBDJDOEA@?$AAp?$AAF?$AAe?$AAa?$AAt?$AAu?$AAr?$AAe?$AAs@ 004fea20     CpuInformation.obj
 0002:00016a34       ??_C@_0BP@FKOMOEJK@CpuInformation?3?3GetFeaturesAmd@ 004fea34     CpuInformation.obj
 0002:00016a54       ??_C@_1BK@EAPMCJNE@?$AAp?$AAF?$AAe?$AAa?$AAt?$AAu?$AAr?$AAe?$AAs?$AAA?$AAm?$AAd@ 004fea54     CpuInformation.obj
 0002:00016a70       ??_C@_1DC@DFAMGMHP@?$AAP?$AAX?$AAS?$AA_?$AAC?$AAP?$AAU?$AA_?$AAM?$AAA?$AAN?$AAU?$AAF?$AAA?$AAC@ 004fea70     CpuInformation.obj
 0002:00016aa4       ??_C@_19CIPEJCHH@?$AAS?$AAS?$AAE?$AA3@ 004feaa4     CpuInformation.obj
 0002:00016ab0       ??_C@_1BE@FEKKHJAM@?$AAP?$AAC?$AAL?$AAM?$AAU?$AAL?$AAQ?$AAD?$AAQ@ 004feab0     CpuInformation.obj
 0002:00016ac4       ??_C@_1BA@NGMGIJCG@?$AAM?$AAO?$AAN?$AAI?$AAT?$AAO?$AAR@ 004feac4     CpuInformation.obj
 0002:00016ad4       ??_C@_1M@PLEOLEJC@?$AAS?$AAS?$AAS?$AAE?$AA3@ 004fead4     CpuInformation.obj
 0002:00016ae0       ??_C@_17OFEBMNBG@?$AAF?$AAM?$AAA@ 004feae0     CpuInformation.obj
 0002:00016ae8       ??_C@_1BG@NFKFDFGI@?$AAC?$AAM?$AAP?$AAX?$AAC?$AAH?$AAG?$AA1?$AA6?$AAB@ 004feae8     CpuInformation.obj
 0002:00016b00       ??_C@_1M@CLONJKNB@?$AAS?$AAS?$AAE?$AA4?$AA1@ 004feb00     CpuInformation.obj
 0002:00016b0c       ??_C@_1M@DJFIDFDP@?$AAS?$AAS?$AAE?$AA4?$AA2@ 004feb0c     CpuInformation.obj
 0002:00016b18       ??_C@_1M@DIEECKIK@?$AAM?$AAO?$AAV?$AAB?$AAE@ 004feb18     CpuInformation.obj
 0002:00016b24       ??_C@_1O@CEIDNFIL@?$AAP?$AAO?$AAP?$AAC?$AAN?$AAT@ 004feb24     CpuInformation.obj
 0002:00016b34       ??_C@_17PJMHNJHG@?$AAA?$AAE?$AAS@ 004feb34     CpuInformation.obj
 0002:00016b3c       ??_C@_1M@HPFEKJLP@?$AAX?$AAS?$AAA?$AAV?$AAE@ 004feb3c     CpuInformation.obj
 0002:00016b48       ??_C@_1BA@BDMEFLAD@?$AAO?$AAS?$AAX?$AAS?$AAA?$AAV?$AAE@ 004feb48     CpuInformation.obj
 0002:00016b58       ??_C@_17KLIECOEC@?$AAA?$AAV?$AAX@ 004feb58     CpuInformation.obj
 0002:00016b60       ??_C@_19JNDEKAOO@?$AAF?$AA1?$AA6?$AAC@ 004feb60     CpuInformation.obj
 0002:00016b6c       ??_C@_17IFHCBMJL@?$AAF?$AAP?$AAU@ 004feb6c     CpuInformation.obj
 0002:00016b74       ??_C@_17BGJIGLGK@?$AAV?$AAM?$AAE@ 004feb74     CpuInformation.obj
 0002:00016b7c       ??_C@_15HGDOLOCJ@?$AAD?$AAE@ 004feb7c     CpuInformation.obj
 0002:00016b84       ??_C@_17OJCLABAG@?$AAP?$AAS?$AAE@ 004feb84     CpuInformation.obj
 0002:00016b8c       ??_C@_17EIAKFACA@?$AAT?$AAS?$AAC@ 004feb8c     CpuInformation.obj
 0002:00016b94       ??_C@_17MDFLEKNK@?$AAM?$AAS?$AAR@ 004feb94     CpuInformation.obj
 0002:00016b9c       ??_C@_17KHDFKCJG@?$AAP?$AAA?$AAE@ 004feb9c     CpuInformation.obj
 0002:00016ba4       ??_C@_17NEDCHGH@?$AAM?$AAC?$AAE@ 004feba4     CpuInformation.obj
 0002:00016bac       ??_C@_1BE@MPKKNHDM@?$AAC?$AAM?$AAP?$AAX?$AAC?$AAH?$AAG?$AA8?$AAB@ 004febac     CpuInformation.obj
 0002:00016bc0       ??_C@_19JJNNKEKG@?$AAA?$AAP?$AAI?$AAC@ 004febc0     CpuInformation.obj
 0002:00016bcc       ??_C@_1CA@HOFEMMDJ@?$AAS?$AAy?$AAs?$AAE?$AAn?$AAt?$AAe?$AAr?$AAS?$AAy?$AAs?$AAE?$AAx?$AAi?$AAt@ 004febcc     CpuInformation.obj
 0002:00016bec       ??_C@_19IGBPIIHA@?$AAM?$AAT?$AAR?$AAR@ 004febec     CpuInformation.obj
 0002:00016bf8       ??_C@_17HBGMEBIL@?$AAP?$AAG?$AAE@ 004febf8     CpuInformation.obj
 0002:00016c00       ??_C@_17ICCBLADA@?$AAM?$AAC?$AAA@ 004fec00     CpuInformation.obj
 0002:00016c08       ??_C@_19MLAIBENB@?$AAC?$AAM?$AAO?$AAV@ 004fec08     CpuInformation.obj
 0002:00016c14       ??_C@_17EPJAJCGM@?$AAP?$AAA?$AAT@ 004fec14     CpuInformation.obj
 0002:00016c1c       ??_C@_1M@NMKBEACA@?$AAP?$AAS?$AAE?$AA3?$AA6@ 004fec1c     CpuInformation.obj
 0002:00016c28       ??_C@_1M@HMBJHKFP@?$AAC?$AAL?$AAF?$AAS?$AAH@ 004fec28     CpuInformation.obj
 0002:00016c34       ??_C@_17JFDKMJFF@?$AAM?$AAM?$AAX@ 004fec34     CpuInformation.obj
 0002:00016c3c       ??_C@_19LBBHCGEF@?$AAF?$AAX?$AAF?$AAR@ 004fec3c     CpuInformation.obj
 0002:00016c48       ??_C@_17GHKEAGOF@?$AAS?$AAS?$AAE@ 004fec48     CpuInformation.obj
 0002:00016c50       ??_C@_19JAEIPFBC@?$AAS?$AAS?$AAE?$AA2@ 004fec50     CpuInformation.obj
 0002:00016c5c       ??_C@_17LDNFCLNK@?$AAH?$AAT?$AAT@ 004fec5c     CpuInformation.obj
 0002:00016c64       ??_C@_1BC@GFNKMFLP@?$AAL?$AAa?$AAh?$AAf?$AAS?$AAa?$AAh?$AAf@ 004fec64     CpuInformation.obj
 0002:00016c78       ??_C@_1BE@MNONGNAG@?$AAC?$AAm?$AAp?$AAL?$AAe?$AAg?$AAa?$AAc?$AAy@ 004fec78     CpuInformation.obj
 0002:00016c8c       ??_C@_17PCNNLPLJ@?$AAS?$AAV?$AAM@ 004fec8c     CpuInformation.obj
 0002:00016c94       ??_C@_1BK@DFKPMIJJ@?$AAE?$AAx?$AAt?$AAA?$AAp?$AAi?$AAc?$AAS?$AAp?$AAa?$AAc?$AAe@ 004fec94     CpuInformation.obj
 0002:00016cb0       ??_C@_1BE@NDGFIJGA@?$AAA?$AAl?$AAt?$AAM?$AAo?$AAv?$AAC?$AAr?$AA8@ 004fecb0     CpuInformation.obj
 0002:00016cc4       ??_C@_17FEAEMJGC@?$AAA?$AAB?$AAM@ 004fecc4     CpuInformation.obj
 0002:00016ccc       ??_C@_1M@EANCDKEN@?$AAS?$AAS?$AAE?$AA4?$AAA@ 004feccc     CpuInformation.obj
 0002:00016cd8       ??_C@_1BI@OMCJDIAC@?$AAM?$AAi?$AAs?$AAA?$AAl?$AAi?$AAg?$AAn?$AAS?$AAs?$AAe@ 004fecd8     CpuInformation.obj
 0002:00016cf0       ??_C@_1BM@CGABKMOA@?$AA3?$AAD?$AAN?$AAo?$AAw?$AAP?$AAr?$AAe?$AAf?$AAe?$AAt?$AAc?$AAh@ 004fecf0     CpuInformation.obj
 0002:00016d0c       ??_C@_19CEGAODHA@?$AAO?$AAS?$AAV?$AAW@ 004fed0c     CpuInformation.obj
 0002:00016d18       ??_C@_17DHCHPCHL@?$AAI?$AAB?$AAS@ 004fed18     CpuInformation.obj
 0002:00016d20       ??_C@_17CJBNHPPO@?$AAX?$AAO?$AAP@ 004fed20     CpuInformation.obj
 0002:00016d28       ??_C@_1O@GFPEEGE@?$AAS?$AAK?$AAI?$AAN?$AAI?$AAT@ 004fed28     CpuInformation.obj
 0002:00016d38       ??_C@_17BFJIAKMG@?$AAW?$AAD?$AAT@ 004fed38     CpuInformation.obj
 0002:00016d40       ??_C@_17DOGJMANJ@?$AAL?$AAW?$AAP@ 004fed40     CpuInformation.obj
 0002:00016d48       ??_C@_19IGAEIBGN@?$AAF?$AAM?$AAA?$AA4@ 004fed48     CpuInformation.obj
 0002:00016d54       ??_C@_17GAFPPGCN@?$AAT?$AAB?$AAM@ 004fed54     CpuInformation.obj
 0002:00016d5c       ??_C@_1CE@EMKGAODN@?$AAT?$AAo?$AAp?$AAo?$AAl?$AAo?$AAg?$AAy?$AAE?$AAx?$AAt?$AAe?$AAn?$AAs?$AAi@ 004fed5c     CpuInformation.obj
 0002:00016d80       ??_C@_1BO@HFPICPOE@?$AAP?$AAe?$AAr?$AAf?$AAC?$AAt?$AAr?$AAE?$AAx?$AAt?$AAC?$AAo?$AAr?$AAe@ 004fed80     CpuInformation.obj
 0002:00016da0       ??_C@_1BK@FBLFJJBE@?$AAP?$AAe?$AAr?$AAf?$AAC?$AAt?$AAr?$AAE?$AAx?$AAt?$AAN?$AAB@ 004feda0     CpuInformation.obj
 0002:00016dbc       ??_C@_1BM@KNNFJGLD@?$AAS?$AAt?$AAr?$AAe?$AAa?$AAm?$AAP?$AAe?$AAr?$AAf?$AAM?$AAo?$AAn@ 004fedbc     CpuInformation.obj
 0002:00016dd8       ??_C@_1DA@CELMILH@?$AAD?$AAa?$AAt?$AAa?$AAB?$AAr?$AAe?$AAa?$AAk?$AAp?$AAo?$AAi?$AAn?$AAt?$AAE@ 004fedd8     CpuInformation.obj
 0002:00016e08       ??_C@_1BA@LCKCCMGI@?$AAP?$AAe?$AAr?$AAf?$AAT?$AAs?$AAc@ 004fee08     CpuInformation.obj
 0002:00016e18       ??_C@_1BM@CPPDFAFC@?$AAS?$AAy?$AAs?$AAC?$AAa?$AAl?$AAl?$AAS?$AAy?$AAs?$AAR?$AAe?$AAt@ 004fee18     CpuInformation.obj
 0002:00016e34       ??_C@_15HFNGBCAN@?$AAN?$AAX@ 004fee34     CpuInformation.obj
 0002:00016e3c       ??_C@_1O@OJDFNNPG@?$AAM?$AAm?$AAx?$AAE?$AAx?$AAt@ 004fee3c     CpuInformation.obj
 0002:00016e4c       ??_C@_1M@KFANAJGE@?$AAF?$AAF?$AAX?$AAS?$AAR@ 004fee4c     CpuInformation.obj
 0002:00016e58       ??_C@_1BA@MLOMKBKD@?$AAP?$AAa?$AAg?$AAe?$AA1?$AAG?$AAB@ 004fee58     CpuInformation.obj
 0002:00016e68       ??_C@_1O@PCNDKAPA@?$AAR?$AAD?$AAT?$AAS?$AAC?$AAP@ 004fee68     CpuInformation.obj
 0002:00016e78       ??_C@_15FPNJBEKL@?$AAL?$AAM@ 004fee78     CpuInformation.obj
 0002:00016e80       ??_C@_1BC@FNOIAIIC@?$AA3?$AAD?$AAN?$AAo?$AAw?$AAE?$AAx?$AAt@ 004fee80     CpuInformation.obj
 0002:00016e94       ??_C@_1M@EDJBIPML@?$AA3?$AAD?$AAN?$AAo?$AAw@ 004fee94     CpuInformation.obj
 0002:00016ea0       ??_C@_0CB@FAHHJMFP@CpuInformation?3?3GetFeaturesInte@ 004feea0     CpuInformation.obj
 0002:00016ec4       ??_C@_1BO@OIDGJGAE@?$AAp?$AAF?$AAe?$AAa?$AAt?$AAu?$AAr?$AAe?$AAs?$AAI?$AAn?$AAt?$AAe?$AAl@ 004feec4     CpuInformation.obj
 0002:00016ee4       ??_C@_1DG@JHEAIJCN@?$AAP?$AAX?$AAS?$AA_?$AAC?$AAP?$AAU?$AA_?$AAM?$AAA?$AAN?$AAU?$AAF?$AAA?$AAC@ 004feee4     CpuInformation.obj
 0002:00016f1c       ??_C@_1O@EHHMCMCG@?$AAD?$AAT?$AAE?$AAS?$AA6?$AA4@ 004fef1c     CpuInformation.obj
 0002:00016f2c       ??_C@_1O@PNEJNEDC@?$AAD?$AAS?$AA?9?$AAC?$AAP?$AAL@ 004fef2c     CpuInformation.obj
 0002:00016f3c       ??_C@_17LEOLOECI@?$AAV?$AAM?$AAX@ 004fef3c     CpuInformation.obj
 0002:00016f44       ??_C@_17PMALOKEM@?$AAS?$AAM?$AAX@ 004fef44     CpuInformation.obj
 0002:00016f4c       ??_C@_19JMEBGAAH@?$AAE?$AAI?$AAS?$AAT@ 004fef4c     CpuInformation.obj
 0002:00016f58       ??_C@_17KCFFPEDC@?$AAT?$AAM?$AA2@ 004fef58     CpuInformation.obj
 0002:00016f60       ??_C@_1BA@EKAKLNFK@?$AAC?$AAN?$AAX?$AAT?$AA?9?$AAI?$AAD@ 004fef60     CpuInformation.obj
 0002:00016f70       ??_C@_19EFANGAAH@?$AAx?$AAT?$AAP?$AAR@ 004fef70     CpuInformation.obj
 0002:00016f7c       ??_C@_19OIAECFPE@?$AAP?$AAD?$AAC?$AAM@ 004fef7c     CpuInformation.obj
 0002:00016f88       ??_C@_19DOFCEAAB@?$AAP?$AAC?$AAI?$AAD@ 004fef88     CpuInformation.obj
 0002:00016f94       ??_C@_17JNGOKLBL@?$AAD?$AAC?$AAA@ 004fef94     CpuInformation.obj
 0002:00016f9c       ??_C@_1O@DCOOIKGD@?$AAS?$AAS?$AAE?$AA4?$AA?4?$AA1@ 004fef9c     CpuInformation.obj
 0002:00016fac       ??_C@_1O@CAFLCFIN@?$AAS?$AAS?$AAE?$AA4?$AA?4?$AA2@ 004fefac     CpuInformation.obj
 0002:00016fbc       ??_C@_1O@IKMILAPP@?$AAx?$AA2?$AAA?$AAP?$AAI?$AAC@ 004fefbc     CpuInformation.obj
 0002:00016fcc       ??_C@_1BK@LIPPOHGD@?$AAT?$AAS?$AAC?$AA?9?$AAD?$AAe?$AAa?$AAd?$AAl?$AAi?$AAn?$AAe@ 004fefcc     CpuInformation.obj
 0002:00016fe8       ??_C@_1M@FPJIIGGF@?$AAA?$AAE?$AAS?$AAN?$AAI@ 004fefe8     CpuInformation.obj
 0002:00016ff4       ??_C@_1O@KCLGDFPH@?$AAR?$AAD?$AAR?$AAA?$AAN?$AAD@ 004feff4     CpuInformation.obj
 0002:00017004       ??_C@_17OIINLPEM@?$AAC?$AAX?$AA8@ 004ff004     CpuInformation.obj
 0002:0001700c       ??_C@_17NFOMEAMO@?$AAS?$AAE?$AAP@ 004ff00c     CpuInformation.obj
 0002:00017014       ??_C@_1O@POEKMEE@?$AAP?$AAS?$AAE?$AA?9?$AA3?$AA6@ 004ff014     CpuInformation.obj
 0002:00017024       ??_C@_17DOCKIGAH@?$AAP?$AAS?$AAN@ 004ff024     CpuInformation.obj
 0002:0001702c       ??_C@_15DEMLGGK@?$AAD?$AAS@ 004ff02c     CpuInformation.obj
 0002:00017034       ??_C@_19CAINCBFJ@?$AAA?$AAC?$AAP?$AAI@ 004ff034     CpuInformation.obj
 0002:00017040       ??_C@_15BNJPIEEJ@?$AAS?$AAS@ 004ff040     CpuInformation.obj
 0002:00017048       ??_C@_15LAFMJEFN@?$AAT?$AAM@ 004ff048     CpuInformation.obj
 0002:00017050       ??_C@_17CBKBNADI@?$AAP?$AAB?$AAE@ 004ff050     CpuInformation.obj
 0002:00017058       ??_C@_19CALADNDE@?$AAL?$AAA?$AAH?$AAF@ 004ff058     CpuInformation.obj
 0002:00017064       ??_C@_1BO@OLDLKEJE@?$AAS?$AAY?$AAS?$AAC?$AAA?$AAL?$AAL?$AA?1?$AAS?$AAY?$AAS?$AAR?$AAE?$AAT@ 004ff064     CpuInformation.obj
 0002:00017084       ??_C@_17FOHEDEND@?$AAE?$AAD?$AAB@ 004ff084     CpuInformation.obj
 0002:0001708c       ??_C@_1BA@MHEKCDOE@?$AA1?$AA?9?$AAG?$AAB?$AAy?$AAt?$AAe@ 004ff08c     CpuInformation.obj
 0002:0001709c       ??_C@_19DGIHPCNG@?$AAI?$AAA?$AA6?$AA4@ 004ff09c     CpuInformation.obj
 0002:000170a8       ??_C@_0CD@HONJAJEK@CpuInformation?3?3GetNameAndSpeed@ 004ff0a8     CpuInformation.obj
 0002:000170cc       ??_C@_1CA@KLOGPOLD@?$AAp?$AAN?$AAa?$AAm?$AAe?$AA?1?$AAp?$AAS?$AAp?$AAe?$AAe?$AAd?$AAM?$AAH?$AAz@ 004ff0cc     CpuInformation.obj
 0002:000170ec       ??_C@_0BO@OKLHEPEI@CpuInformation?3?3GetPackageIDs@ 004ff0ec     CpuInformation.obj
 0002:0001710c       ??_C@_1BI@BNBFOFNK@?$AAp?$AAP?$AAa?$AAc?$AAk?$AAa?$AAg?$AAe?$AAI?$AAD?$AAs@ 004ff10c     CpuInformation.obj
 0002:00017124       ??_C@_1CA@HPOJJDMH@?$AAF?$AAu?$AAn?$AAc?$AAt?$AAi?$AAo?$AAn?$AA?5?$AA?$DN?$AA?5?$AA?$CF?$AA?$CF?$AA1?$AA?4@ 004ff124     CpuInformation.obj
 0002:00017144       ??_C@_0BG@OKMEDDIC@CpuInformation?3?3Cpuid@ 004ff144     CpuInformation.obj
 0002:0001715c       ??_C@_0CB@MFFHMGPP@CpuInformation?3?3FillLogicalApic@ 004ff15c     CpuInformation.obj
 0002:00017180       ??_C@_1CO@FOEFFNOC@?$AAG?$AAe?$AAt?$AAP?$AAr?$AAo?$AAc?$AAe?$AAs?$AAs?$AAA?$AAf?$AAf?$AAi?$AAn@ 004ff180     CpuInformation.obj
 0002:000171b0       ??_C@_1CM@BFEMIDEM@?$AAS?$AAe?$AAt?$AAT?$AAh?$AAr?$AAe?$AAa?$AAd?$AAA?$AAf?$AAf?$AAi?$AAn?$AAi@ 004ff1b0     CpuInformation.obj
 0002:000171dc       ??_C@_0BM@KBLPIKED@CpuInformation?3?3GetApicsIDs@ 004ff1dc     CpuInformation.obj
 0002:000171f8       ??_C@_1BC@GPEPAHPA@?$AAp?$AAA?$AAp?$AAi?$AAc?$AAI?$AAD?$AAs@ 004ff1f8     CpuInformation.obj
 0002:0001720c       ??_C@_0CD@BLAFJLFP@CpuInformation?3?3GetCacheAndTLBI@ 004ff20c     CpuInformation.obj
 0002:00017230       ??_C@_1CI@HMFKOCBM@?$AAp?$AAC?$AAa?$AAc?$AAh?$AAe?$AAI?$AAn?$AAf?$AAo?$AA?1?$AAp?$AAT?$AAL?$AAB@ 004ff230     CpuInformation.obj
 0002:00017258       ??_C@_0CI@GABAJCHI@CpuInformation?3?3GetCacheDescrip@ 004ff258     CpuInformation.obj
 0002:00017280       ??_C@_1CM@NEOKIJDJ@?$AAp?$AAC?$AAa?$AAc?$AAh?$AAe?$AAD?$AAe?$AAs?$AAc?$AAr?$AAi?$AAp?$AAt?$AAi@ 004ff280     CpuInformation.obj
 0002:000172ac       ??_C@_1DA@LHLEJNLA@?$AAT?$AAL?$AAB?$AA?5?$AAI?$AAn?$AAs?$AAt?$AAr?$AAu?$AAc?$AAt?$AAi?$AAo?$AAn@ 004ff2ac     CpuInformation.obj
 0002:000172dc       ??_C@_1CC@FIMHGHKB@?$AAT?$AAL?$AAB?$AA?5?$AAD?$AAa?$AAt?$AAa?$AA?5?$AA2?$AAM?$AAB?$AA?1?$AA4?$AAM@ 004ff2dc     CpuInformation.obj
 0002:00017300       ??_C@_1CI@FGEHFGFK@?$AAT?$AAL?$AAB?$AA?5?$AAI?$AAn?$AAs?$AAt?$AAr?$AAu?$AAc?$AAt?$AAi?$AAo?$AAn@ 004ff300     CpuInformation.obj
 0002:00017328       ??_C@_1BK@LFKJKFH@?$AAT?$AAL?$AAB?$AA?5?$AAD?$AAa?$AAt?$AAa?$AA?5?$AA4?$AAK?$AAB@ 004ff328     CpuInformation.obj
 0002:00017344       ??_C@_1BM@FFMGGBHE@?$AAL?$AA1?$AA?5?$AAD?$AAa?$AAt?$AAa?$AA?5?$AA?$CF?$AA?$CF?$AA1?$AAK?$AAB@ 004ff344     CpuInformation.obj
 0002:00017360       ??_C@_1CK@NMLOFEMO@?$AAL?$AA1?$AA?5?$AAI?$AAn?$AAs?$AAt?$AAr?$AAu?$AAc?$AAt?$AAi?$AAo?$AAn?$AA?5@ 004ff360     CpuInformation.obj
 0002:0001738c       ??_C@_1BC@LBEPHMAG@?$AAL?$AA2?$AA?5?$AA?$CF?$AA?$CF?$AA1?$AAK?$AAB@ 004ff38c     CpuInformation.obj
 0002:000173a0       ??_C@_1BC@BPCHONJH@?$AAL?$AA3?$AA?5?$AA?$CF?$AA?$CF?$AA1?$AAK?$AAB@ 004ff3a0     CpuInformation.obj
 0002:000173b4       ??_C@_0CK@IFFJODME@CpuInformation?3?3GetCacheDescrip@ 004ff3b4     CpuInformation.obj
 0002:000173e0       ??_C@_1DA@POKBLAAL@?$AAp?$AAC?$AAa?$AAc?$AAh?$AAe?$AAD?$AAe?$AAs?$AAc?$AAr?$AAi?$AAp?$AAt?$AAi@ 004ff3e0     CpuInformation.obj
 0002:00017410       ??_C@_1CI@IABOLFEH@?$AAT?$AAL?$AAB?$AA?5?$AAI?$AAn?$AAs?$AAt?$AAr?$AAu?$AAc?$AAt?$AAi?$AAo?$AAn@ 004ff410     CpuInformation.obj
 0002:00017438       ??_C@_1BK@NNADHJEK@?$AAT?$AAL?$AAB?$AA?5?$AAD?$AAa?$AAt?$AAa?$AA?5?$AA4?$AAM?$AAB@ 004ff438     CpuInformation.obj
 0002:00017454       ??_C@_1CG@JOFAPIOF@?$AAL?$AA1?$AA?5?$AAI?$AAn?$AAs?$AAt?$AAr?$AAu?$AAc?$AAt?$AAi?$AAo?$AAn?$AA?5@ 004ff454     CpuInformation.obj
 0002:0001747c       ??_C@_1CI@ENDNINCC@?$AAL?$AA1?$AA?5?$AAI?$AAn?$AAs?$AAt?$AAr?$AAu?$AAc?$AAt?$AAi?$AAo?$AAn?$AA?5@ 004ff47c     CpuInformation.obj
 0002:000174a4       ??_C@_1CI@MNICFDOF@?$AAL?$AA1?$AA?5?$AAI?$AAn?$AAs?$AAt?$AAr?$AAu?$AAc?$AAt?$AAi?$AAo?$AAn?$AA?5@ 004ff4a4     CpuInformation.obj
 0002:000174cc       ??_C@_1BI@MGJKAHIK@?$AAL?$AA1?$AA?5?$AAD?$AAa?$AAt?$AAa?$AA?5?$AA8?$AAK?$AAB@ 004ff4cc     CpuInformation.obj
 0002:000174e4       ??_C@_1BK@ICFKENAN@?$AAL?$AA1?$AA?5?$AAD?$AAa?$AAt?$AAa?$AA?5?$AA1?$AA6?$AAK?$AAB@ 004ff4e4     CpuInformation.obj
 0002:00017500       ??_C@_1BK@CLEIPBHD@?$AAL?$AA1?$AA?5?$AAD?$AAa?$AAt?$AAa?$AA?5?$AA2?$AA4?$AAK?$AAB@ 004ff500     CpuInformation.obj
 0002:0001751c       ??_C@_1BC@OEKEPAIE@?$AAL?$AA2?$AA?5?$AA2?$AA5?$AA6?$AAK?$AAB@ 004ff51c     CpuInformation.obj
 0002:00017530       ??_C@_1BC@LDPFCGBK@?$AAL?$AA3?$AA?5?$AA5?$AA1?$AA2?$AAK?$AAB@ 004ff530     CpuInformation.obj
 0002:00017544       ??_C@_1O@KCFONNCH@?$AAL?$AA3?$AA?5?$AA1?$AAM?$AAB@ 004ff544     CpuInformation.obj
 0002:00017554       ??_C@_1O@CMNBNKME@?$AAL?$AA3?$AA?5?$AA2?$AAM?$AAB@ 004ff554     CpuInformation.obj
 0002:00017564       ??_C@_1O@OKLONDED@?$AAL?$AA3?$AA?5?$AA4?$AAM?$AAB@ 004ff564     CpuInformation.obj
 0002:00017574       ??_C@_1BK@COFJDMK@?$AAL?$AA1?$AA?5?$AAD?$AAa?$AAt?$AAa?$AA?5?$AA3?$AA2?$AAK?$AAB@ 004ff574     CpuInformation.obj
 0002:00017590       ??_C@_1BC@GEGMCLDP@?$AAL?$AA2?$AA?5?$AA1?$AA2?$AA8?$AAK?$AAB@ 004ff590     CpuInformation.obj
 0002:000175a4       ??_C@_1BC@BNJNLHIL@?$AAL?$AA2?$AA?5?$AA5?$AA1?$AA2?$AAK?$AAB@ 004ff5a4     CpuInformation.obj
 0002:000175b8       ??_C@_1O@DJPLJBEI@?$AAL?$AA2?$AA?5?$AA1?$AAM?$AAB@ 004ff5b8     CpuInformation.obj
 0002:000175c8       ??_C@_1O@LHHEJGKL@?$AAL?$AA2?$AA?5?$AA2?$AAM?$AAB@ 004ff5c8     CpuInformation.obj
 0002:000175d8       ??_C@_1O@LNBBMGAM@?$AAL?$AA3?$AA?5?$AA8?$AAM?$AAB@ 004ff5d8     CpuInformation.obj
 0002:000175e8       ??_C@_1O@HLNOJGDF@?$AAL?$AA2?$AA?5?$AA3?$AAM?$AAB@ 004ff5e8     CpuInformation.obj
 0002:000175f8       ??_C@_1BK@HHIPBDPG@?$AAL?$AA2?$AA?5?$AAo?$AAr?$AA?5?$AAL?$AA3?$AA?5?$AA4?$AAM?$AAB@ 004ff5f8     CpuInformation.obj
 0002:00017614       ??_C@_1O@KIJLNEDO@?$AAL?$AA3?$AA?5?$AA6?$AAM?$AAB@ 004ff614     CpuInformation.obj
 0002:00017624       ??_C@_1BA@JHJMBPAN@?$AAL?$AA3?$AA?5?$AA1?$AA2?$AAM?$AAB@ 004ff624     CpuInformation.obj
 0002:00017634       ??_C@_1BA@BDNGBBPH@?$AAL?$AA3?$AA?5?$AA1?$AA6?$AAM?$AAB@ 004ff634     CpuInformation.obj
 0002:00017644       ??_C@_1O@DDDOJIFB@?$AAL?$AA2?$AA?5?$AA6?$AAM?$AAB@ 004ff644     CpuInformation.obj
 0002:00017658       ??_C@_1EG@KJOBLBKC@?$AAT?$AAL?$AAB?$AA?5?$AAI?$AAn?$AAs?$AAt?$AAr?$AAu?$AAc?$AAt?$AAi?$AAo?$AAn@ 004ff658     CpuInformation.obj
 0002:000176a0       ??_C@_1DG@LHHHPPHN@?$AAT?$AAL?$AAB?$AA?5?$AAI?$AAn?$AAs?$AAt?$AAr?$AAu?$AAc?$AAt?$AAi?$AAo?$AAn@ 004ff6a0     CpuInformation.obj
 0002:000176d8       ??_C@_1CI@KGENPOFA@?$AAT?$AAL?$AAB?$AA?5?$AAD?$AAa?$AAt?$AAa?$AA?5?$AA2?$AAM?$AAB?$AA?5?$AAo?$AAr@ 004ff6d8     CpuInformation.obj
 0002:00017700       ??_C@_1CK@CAMDHCPN@?$AAT?$AAL?$AAB?$AA?5?$AAD?$AAa?$AAt?$AAa?$AA?5?$AA4?$AAK?$AAB?$AA?5?$AAa?$AAn@ 004ff700     CpuInformation.obj
 0002:0001772c       ??_C@_1BK@DEHIFEEI@?$AAT?$AAL?$AAB?$AA?5?$AAD?$AAa?$AAt?$AAa?$AA?5?$AA1?$AAG?$AAB@ 004ff72c     CpuInformation.obj
 0002:00017748       ??_C@_1BM@BIJGIFPL@?$AAT?$AAr?$AAa?$AAc?$AAe?$AA?5?$AA1?$AA2?$AAK?$AA?9?$AAu?$AAo?$AAp@ 004ff748     CpuInformation.obj
 0002:00017764       ??_C@_1BM@BDKAKOA@?$AAT?$AAr?$AAa?$AAc?$AAe?$AA?5?$AA1?$AA6?$AAK?$AA?9?$AAu?$AAo?$AAp@ 004ff764     CpuInformation.obj
 0002:00017780       ??_C@_1BM@JPDGKAJI@?$AAT?$AAr?$AAa?$AAc?$AAe?$AA?5?$AA3?$AA2?$AAK?$AA?9?$AAu?$AAo?$AAp@ 004ff780     CpuInformation.obj
 0002:0001779c       ??_C@_1CI@EGHBLMMA@?$AAT?$AAL?$AAB?$AA?5?$AAI?$AAn?$AAs?$AAt?$AAr?$AAu?$AAc?$AAt?$AAi?$AAo?$AAn@ 004ff79c     CpuInformation.obj
 0002:000177c4       ??_C@_1DE@PMFINDM@?$AAS?$AAT?$AAL?$AAB?$AA?5?$AAS?$AAh?$AAa?$AAr?$AAe?$AAd?$AA?5?$AA2?$AAn?$AAd@ 004ff7c4     CpuInformation.obj
 0002:000177f8       ??_C@_1BC@LKMKCNAE@?$AAL?$AA3?$AA?5?$AA1?$AA?4?$AA5?$AAM?$AAB@ 004ff7f8     CpuInformation.obj
 0002:0001780c       ??_C@_1O@OAHLNKFK@?$AAL?$AA3?$AA?5?$AA3?$AAM?$AAB@ 004ff80c     CpuInformation.obj
 0002:0001781c       ??_C@_1BA@GFMADMF@?$AAL?$AA3?$AA?5?$AA1?$AA8?$AAM?$AAB@ 004ff81c     CpuInformation.obj
 0002:0001782c       ??_C@_1BA@LKMEKNIJ@?$AAL?$AA3?$AA?5?$AA2?$AA4?$AAM?$AAB@ 004ff82c     CpuInformation.obj
 0002:0001783c       ??_C@_1CI@DKGBJLNL@?$AAP?$AAr?$AAe?$AAf?$AAe?$AAt?$AAc?$AAh?$AAi?$AAn?$AAg?$AA?5?$AA6?$AA4?$AA?9@ 004ff83c     CpuInformation.obj
 0002:00017864       ??_C@_1CK@MABNBEJA@?$AAP?$AAr?$AAe?$AAf?$AAe?$AAt?$AAc?$AAh?$AAi?$AAn?$AAg?$AA?5?$AA1?$AA2?$AA8@ 004ff864     CpuInformation.obj
 0002:00017890       ??_C@_1BK@HMEKFOJD@?$AAG?$AAe?$AAn?$AAu?$AAi?$AAn?$AAe?$AAI?$AAn?$AAt?$AAe?$AAl@ 004ff890     CpuInformation.obj
 0002:000178ac       ??_C@_1BK@BNFDFNJN@?$AAA?$AAu?$AAt?$AAh?$AAe?$AAn?$AAt?$AAi?$AAc?$AAA?$AAM?$AAD@ 004ff8ac     CpuInformation.obj
 0002:000178c8       ??_C@_0CE@PIBOIPGI@CpuInformation?3?3GetManufacturer@ 004ff8c8     CpuInformation.obj
 0002:000178ec       ??_C@_1CE@HGHCMHIA@?$AAp?$AAM?$AAa?$AAn?$AAu?$AAf?$AAa?$AAc?$AAt?$AAu?$AAr?$AAe?$AAr?$AAN?$AAa@ 004ff8ec     CpuInformation.obj
 0002:00017910       ??_C@_1CK@BIFDOCAO@?$AAI?$AAn?$AAt?$AAe?$AAl?$AA?$CI?$AAR?$AA?$CJ?$AA?5?$AAC?$AAo?$AAr?$AAp?$AAo?$AAr@ 004ff910     CpuInformation.obj
 0002:0001793c       ??_C@_1CO@FOGLCBMG@?$AAA?$AAd?$AAv?$AAa?$AAn?$AAc?$AAe?$AAd?$AA?5?$AAM?$AAi?$AAc?$AAr?$AAo?$AA?5@ 004ff93c     CpuInformation.obj
 0002:00017970       ??_C@_1FE@KGJKBELJ@?$AAU?$AAn?$AAr?$AAe?$AAc?$AAo?$AAg?$AAn?$AAi?$AAs?$AAe?$AAd?$AA?5?$AAm?$AAa@ 004ff970     CpuInformation.obj
 0002:000179c4       ??_C@_0BI@NACPNLJK@CpuInformation?3?3GetName@ 004ff9c4     CpuInformation.obj
 0002:000179dc       ??_C@_1M@IEMADEOH@?$AAp?$AAN?$AAa?$AAm?$AAe@ 004ff9dc     CpuInformation.obj
 0002:000179e8       ??_C@_0CL@JNCJJOJL@CpuInformation?3?3GetNumberLogica@ 004ff9e8     CpuInformation.obj
 0002:00017a14       ??_C@_1BO@KFLEFCNO@?$AAm?$AA_?$AAL?$AAo?$AAg?$AAi?$AAc?$AAa?$AAl?$AAA?$AAp?$AAi?$AAc?$AAs@ 004ffa14     CpuInformation.obj
 0002:00017a34       ??_C@_0CH@BLPOHDOD@CpuInformation?3?3GetPackageIDFro@ 004ffa34     CpuInformation.obj
 0002:00017a5c       ??_C@_1O@FEGLHFLP@?$AAa?$AAp?$AAi?$AAc?$AAI?$AAD@ 004ffa5c     CpuInformation.obj
 0002:00017a6c       ??_C@_0CF@JKIOPCNP@CpuInformation?3?3GetRegistersAsS@ 004ffa6c     CpuInformation.obj
 0002:00017a94       ??_C@_1BG@ENBPBPEI@?$AAp?$AAR?$AAe?$AAg?$AAi?$AAs?$AAt?$AAe?$AAr?$AAs@ 004ffa94     CpuInformation.obj
 0002:00017aac       ??_C@_1O@JCCMAKKD@?$AAC?$AAP?$AAU?$AAI?$AAD?$AA?4@ 004ffaac     CpuInformation.obj
 0002:00017abc       ??_C@_1BA@BEGEENI@?$AA?4?$AAE?$AAA?$AAX?$AA?5?$AA?$DN?$AA?5@ 004ffabc     CpuInformation.obj
 0002:00017acc       ??_C@_1BA@HGNIJGCI@?$AA?4?$AAE?$AAB?$AAX?$AA?5?$AA?$DN?$AA?5@ 004ffacc     CpuInformation.obj
 0002:00017adc       ??_C@_1BA@ONHNNKEH@?$AA?4?$AAE?$AAC?$AAX?$AA?5?$AA?$DN?$AA?5@ 004ffadc     CpuInformation.obj
 0002:00017aec       ??_C@_1BA@JJOFDDMI@?$AA?4?$AAE?$AAD?$AAX?$AA?5?$AA?$DN?$AA?5@ 004ffaec     CpuInformation.obj
 0002:00017afc       ??_C@_0CE@OJKPJLPD@CpuInformation?3?3GetSpeedEstimat@ 004ffafc     CpuInformation.obj
 0002:00017b20       ??_C@_1DE@LFMNAPIL@?$AAQ?$AAu?$AAe?$AAr?$AAy?$AAP?$AAe?$AAr?$AAf?$AAo?$AAr?$AAm?$AAa?$AAn?$AAc@ 004ffb20     CpuInformation.obj
 0002:00017b54       ??_C@_1DA@BNACBBKM@?$AAF?$AAr?$AAe?$AAq?$AAu?$AAe?$AAn?$AAc?$AAy?$AA?4?$AAQ?$AAu?$AAa?$AAd?$AAP@ 004ffb54     CpuInformation.obj
 0002:00017b84       ??_C@_1DO@GGBLIPHH@?$AAP?$AAF?$AA_?$AAR?$AAD?$AAT?$AAS?$AAC?$AA_?$AAI?$AAN?$AAS?$AAT?$AAR?$AAU@ 004ffb84     CpuInformation.obj
 0002:00017bc4       ??_C@_1CC@MGIHLPBB@?$AAG?$AAe?$AAt?$AAP?$AAr?$AAi?$AAo?$AAr?$AAi?$AAt?$AAy?$AAC?$AAl?$AAa?$AAs@ 004ffbc4     CpuInformation.obj
 0002:00017be8       ??_C@_1CE@ICPDHCBH@?$AAG?$AAe?$AAt?$AAT?$AAh?$AAr?$AAe?$AAa?$AAd?$AAP?$AAr?$AAi?$AAo?$AAr?$AAi@ 004ffbe8     CpuInformation.obj
 0002:00017c10       ??_C@_1EE@PEOIFMKE@?$AAS?$AAe?$AAt?$AAP?$AAr?$AAi?$AAo?$AAr?$AAi?$AAt?$AAy?$AAC?$AAl?$AAa?$AAs@ 004ffc10     CpuInformation.obj
 0002:00017c58       ??_C@_1EG@JCKOOIGM@?$AAS?$AAe?$AAt?$AAT?$AAh?$AAr?$AAe?$AAa?$AAd?$AAP?$AAr?$AAi?$AAo?$AAr?$AAi@ 004ffc58     CpuInformation.obj
 0002:00017ca0       ??_C@_1DA@GHBHDBHG@?$AAQ?$AAu?$AAe?$AAr?$AAy?$AAP?$AAe?$AAr?$AAf?$AAo?$AAr?$AAm?$AAa?$AAn?$AAc@ 004ffca0     CpuInformation.obj
 0002:00017cd0       ??_C@_1CC@IKMOMEFC@?$AAR?$AAD?$AAT?$AAS?$AAC?$AA?5?$AAs?$AAt?$AAa?$AAr?$AAt?$AA?3?$AA?5?$AA?$CF?$AA?$CF@ 004ffcd0     CpuInformation.obj
 0002:00017cf4       ??_C@_1CC@HDLPBHOO@?$AAR?$AAD?$AAT?$AAS?$AAC?$AA?5?$AAe?$AAn?$AAd?$AA?5?$AA?5?$AA?3?$AA?5?$AA?$CF?$AA?$CF@ 004ffcf4     CpuInformation.obj
 0002:00017d18       ??_C@_1FM@FIOGBDCF@?$AAH?$AAA?$AAR?$AAD?$AAW?$AAA?$AAR?$AAE?$AA?2?$AAD?$AAE?$AAS?$AAC?$AAR?$AAI@ 004ffd18     CpuInformation.obj
 0002:00017d74       ??_C@_19KBOEDNGH@?$AA?$HO?$AAM?$AAH?$AAz@ 004ffd74     CpuInformation.obj
 0002:00017d80       ??_C@_0BI@HLCMBLOK@CpuInformation?3?3GetType@ 004ffd80     CpuInformation.obj
 0002:00017d98       ??_C@_1BI@NIPJILAD@?$AAO?$AAE?$AAM?$AA?5?$AAP?$AAr?$AAi?$AAm?$AAa?$AAr?$AAy@ 004ffd98     CpuInformation.obj
 0002:00017db0       ??_C@_1BE@PBIPOLFO@?$AAO?$AAv?$AAe?$AAr?$AAd?$AAr?$AAi?$AAv?$AAe@ 004ffdb0     CpuInformation.obj
 0002:00017dc4       ??_C@_1BE@BGLPHBHD@?$AAS?$AAe?$AAc?$AAo?$AAn?$AAd?$AAa?$AAr?$AAy@ 004ffdc4     CpuInformation.obj
 0002:00017dd8       ??_C@_0CA@LBEBAAMC@CpuInformation?3?3GetVendorString@ 004ffdd8     CpuInformation.obj
 0002:00017df8       ??_C@_1BM@CKKGJEJB@?$AAp?$AAV?$AAe?$AAn?$AAd?$AAo?$AAr?$AAS?$AAt?$AAr?$AAi?$AAn?$AAg@ 004ffdf8     CpuInformation.obj
 0002:00017e14       ??_C@_0CM@EBAMOGLB@CpuInformation?3?3RunCurrentThrea@ 004ffe14     CpuInformation.obj
 0002:00017e40       ??_C@_1BK@JBNKMCEJ@?$AAp?$AAa?$AAc?$AAk?$AAa?$AAg?$AAe?$AAI?$AAD?$AA?5?$AA?$DN?$AA?5@ 004ffe40     CpuInformation.obj
 0002:00017e5c       ??_C@_1BK@BCAGPPC@?$AAp?$AAT?$AAr?$AAa?$AAn?$AAs?$AAl?$AAa?$AAt?$AAi?$AAo?$AAn@ 004ffe5c     CpuInformation.obj
 0002:00017e78       ??_C@_1DO@PPFDGHLC@?$AAP?$AAR?$AAO?$AAC?$AAE?$AAS?$AAS?$AAO?$AAR?$AA_?$AAA?$AAR?$AAC?$AAH?$AAI@ 004ffe78     CpuInformation.obj
 0002:00017eb8       ??_C@_1DK@FAKKBBGI@?$AAP?$AAR?$AAO?$AAC?$AAE?$AAS?$AAS?$AAO?$AAR?$AA_?$AAA?$AAR?$AAC?$AAH?$AAI@ 004ffeb8     CpuInformation.obj
 0002:00017ef4       ??_C@_1DI@HJBMEHKE@?$AAP?$AAR?$AAO?$AAC?$AAE?$AAS?$AAS?$AAO?$AAR?$AA_?$AAA?$AAR?$AAC?$AAH?$AAI@ 004ffef4     CpuInformation.obj
 0002:00017f2c       ??_C@_1DK@OCBHBKKC@?$AAP?$AAR?$AAO?$AAC?$AAE?$AAS?$AAS?$AAO?$AAR?$AA_?$AAA?$AAR?$AAC?$AAH?$AAI@ 004fff2c     CpuInformation.obj
 0002:00017f68       ??_C@_0BO@GJMNAPDP@TArray?$DMunsigned?5char?$DO?3?3Insert@ 004fff68     CpuInformation.obj
 0002:00017f88       ??_C@_0BO@HLKABACG@TArray?$DMunsigned?5char?$DO?3?3Append@ 004fff88     CpuInformation.obj
 0002:00017fa8       ??_C@_1BM@INMJMJFO@?$AAC?$AAo?$AAm?$AAp?$AAu?$AAt?$AAe?$AAr?$AA?5?$AAN?$AAa?$AAm?$AAe@ 004fffa8     DatabaseAdministrationDialog.obj
 0002:00017fc4       ??_C@_1BI@IDIOHOPL@?$AAD?$AAo?$AAm?$AAa?$AAi?$AAn?$AA?5?$AAN?$AAa?$AAm?$AAe@ 004fffc4     DatabaseAdministrationDialog.obj
 0002:00017fdc       ??_C@_1BE@KKMNLLJH@?$AAS?$AAi?$AAt?$AAe?$AA?5?$AAN?$AAa?$AAm?$AAe@ 004fffdc     DatabaseAdministrationDialog.obj
 0002:00017ff0       ??_C@_1M@NCHBIGJB@?$AAR?$AAo?$AAl?$AAe?$AAs@ 004ffff0     DatabaseAdministrationDialog.obj
 0002:00017ffc       ??_C@_1BI@DLMANABL@?$AAD?$AAe?$AAs?$AAc?$AAr?$AAi?$AAp?$AAt?$AAi?$AAo?$AAn@ 004ffffc     DatabaseAdministrationDialog.obj
 0002:00018014       ??_C@_1CC@OCELMLGA@?$AAO?$AAp?$AAe?$AAr?$AAa?$AAt?$AAi?$AAn?$AAg?$AA?5?$AAS?$AAy?$AAs?$AAt?$AAe@ 00500014     DatabaseAdministrationDialog.obj
 0002:00018038       ??_C@_1BK@PGBJEKCF@?$AAM?$AAa?$AAn?$AAu?$AAf?$AAa?$AAc?$AAt?$AAu?$AAr?$AAe?$AAr@ 00500038     DatabaseAdministrationDialog.obj
 0002:00018054       ??_C@_1M@HHGCKIGA@?$AAM?$AAo?$AAd?$AAe?$AAl@ 00500054     DatabaseAdministrationDialog.obj
 0002:00018060       ??_C@_1BM@KAGKDBFC@?$AAS?$AAe?$AAr?$AAi?$AAa?$AAl?$AA?5?$AAN?$AAu?$AAm?$AAb?$AAe?$AAr@ 00500060     DatabaseAdministrationDialog.obj
 0002:0001807c       ??_C@_1BE@KBKPAHIF@?$AAA?$AAs?$AAs?$AAe?$AAt?$AA?5?$AAT?$AAa?$AAg@ 0050007c     DatabaseAdministrationDialog.obj
 0002:00018090       ??_C@_1CK@GMONAPFM@?$AAN?$AAu?$AAm?$AAb?$AAe?$AAr?$AA?5?$AAo?$AAf?$AA?5?$AAP?$AAr?$AAo?$AAc?$AAe@ 00500090     DatabaseAdministrationDialog.obj
 0002:000180bc       ??_C@_1CM@BOHCLLGM@?$AAP?$AAr?$AAo?$AAc?$AAe?$AAs?$AAs?$AAo?$AAr?$AA?5?$AAD?$AAe?$AAs?$AAc?$AAr@ 005000bc     DatabaseAdministrationDialog.obj
 0002:000180e8       ??_C@_1BK@FEEGPMO@?$AAT?$AAo?$AAt?$AAa?$AAl?$AA?5?$AAM?$AAe?$AAm?$AAo?$AAr?$AAy@ 005000e8     DatabaseAdministrationDialog.obj
 0002:00018104       ??_C@_1CC@GJOAFOFF@?$AAT?$AAo?$AAt?$AAa?$AAl?$AA?5?$AAH?$AAa?$AAr?$AAd?$AA?5?$AAD?$AAr?$AAi?$AAv@ 00500104     DatabaseAdministrationDialog.obj
 0002:00018128       ??_C@_1BA@DMMGCODP@?$AAD?$AAi?$AAs?$AAp?$AAl?$AAa?$AAy@ 00500128     DatabaseAdministrationDialog.obj
 0002:00018138       ??_C@_1BK@GODEOMPI@?$AAB?$AAI?$AAO?$AAS?$AA?5?$AAV?$AAe?$AAr?$AAs?$AAi?$AAo?$AAn@ 00500138     DatabaseAdministrationDialog.obj
 0002:00018154       ??_C@_1BK@GAOGKGMM@?$AAU?$AAs?$AAe?$AAr?$AA?5?$AAA?$AAc?$AAc?$AAo?$AAu?$AAn?$AAt@ 00500154     DatabaseAdministrationDialog.obj
 0002:00018170       ??_C@_1BM@BIEHFJPI@?$AAS?$AAy?$AAs?$AAt?$AAe?$AAm?$AA?5?$AAU?$AAp?$AAt?$AAi?$AAm?$AAe@ 00500170     DatabaseAdministrationDialog.obj
 0002:0001818c       ??_C@_1BG@MIFFBCCL@?$AAL?$AAo?$AAc?$AAa?$AAl?$AA?5?$AAT?$AAi?$AAm?$AAe@ 0050018c     DatabaseAdministrationDialog.obj
 0002:000181a4       ??_C@_1BA@LIACFDLB@?$AAV?$AAe?$AAr?$AAs?$AAi?$AAo?$AAn@ 005001a4     DatabaseAdministrationDialog.obj
 0002:000181b4       ??_C@_1BE@NFPAEHCM@?$AAI?$AAn?$AAs?$AAt?$AAa?$AAl?$AAl?$AAe?$AAd@ 005001b4     DatabaseAdministrationDialog.obj
 0002:000181c8       ??_C@_1O@OCGHFCBB@?$AAV?$AAe?$AAn?$AAd?$AAo?$AAr@ 005001c8     DatabaseAdministrationDialog.obj
 0002:000181d8       ??_C@_1CC@HALDHFOC@?$AAP?$AAr?$AAo?$AAd?$AAu?$AAc?$AAt?$AA?5?$AAL?$AAa?$AAn?$AAg?$AAu?$AAa?$AAg@ 005001d8     DatabaseAdministrationDialog.obj
 0002:000181fc       ??_C@_1BK@PAAOILJL@?$AAI?$AAn?$AAs?$AAt?$AAa?$AAl?$AAl?$AA?5?$AAD?$AAa?$AAt?$AAe@ 005001fc     DatabaseAdministrationDialog.obj
 0002:00018218       ??_C@_1CC@KPDCHBDL@?$AAI?$AAn?$AAs?$AAt?$AAa?$AAl?$AAl?$AA?5?$AAL?$AAo?$AAc?$AAa?$AAt?$AAi?$AAo@ 00500218     DatabaseAdministrationDialog.obj
 0002:0001823c       ??_C@_1BO@FFHFCBCN@?$AAI?$AAn?$AAs?$AAt?$AAa?$AAl?$AAl?$AA?5?$AAS?$AAo?$AAu?$AAr?$AAc?$AAe@ 0050023c     DatabaseAdministrationDialog.obj
 0002:0001825c       ??_C@_1BM@KBPBFOOI@?$AAI?$AAn?$AAs?$AAt?$AAa?$AAl?$AAl?$AA?5?$AAS?$AAt?$AAa?$AAt?$AAe@ 0050025c     DatabaseAdministrationDialog.obj
 0002:00018278       ??_C@_1CA@BIHKHGGN@?$AAA?$AAs?$AAs?$AAi?$AAg?$AAn?$AAm?$AAe?$AAn?$AAt?$AA?5?$AAT?$AAy?$AAp?$AAe@ 00500278     DatabaseAdministrationDialog.obj
 0002:00018298       ??_C@_1BK@DONOBOGJ@?$AAP?$AAa?$AAc?$AAk?$AAa?$AAg?$AAe?$AA?5?$AAC?$AAo?$AAd?$AAe@ 00500298     DatabaseAdministrationDialog.obj
 0002:000182b4       ??_C@_1BK@PJKFNGCD@?$AAP?$AAa?$AAc?$AAk?$AAa?$AAg?$AAe?$AA?5?$AAN?$AAa?$AAm?$AAe@ 005002b4     DatabaseAdministrationDialog.obj
 0002:000182d0       ??_C@_1BM@BPMCAJF@?$AAL?$AAo?$AAc?$AAa?$AAl?$AA?5?$AAP?$AAa?$AAc?$AAk?$AAa?$AAg?$AAe@ 005002d0     DatabaseAdministrationDialog.obj
 0002:000182ec       ??_C@_1BG@MGFCBHLP@?$AAP?$AAr?$AAo?$AAd?$AAu?$AAc?$AAt?$AA?5?$AAI?$AAD@ 005002ec     DatabaseAdministrationDialog.obj
 0002:00018304       ??_C@_1CG@LCGOIACP@?$AAR?$AAe?$AAg?$AAi?$AAs?$AAt?$AAe?$AAr?$AAe?$AAd?$AA?5?$AAC?$AAo?$AAm?$AAp@ 00500304     DatabaseAdministrationDialog.obj
 0002:0001832c       ??_C@_1CC@GIJCOMLH@?$AAR?$AAe?$AAg?$AAi?$AAs?$AAt?$AAe?$AAr?$AAe?$AAd?$AA?5?$AAO?$AAw?$AAn?$AAe@ 0050032c     DatabaseAdministrationDialog.obj
 0002:00018350       ??_C@_1BG@PHKOJGPO@?$AAT?$AAi?$AAm?$AAe?$AAs?$AA?5?$AAU?$AAs?$AAe?$AAd@ 00500350     DatabaseAdministrationDialog.obj
 0002:00018368       ??_C@_1BE@JCLOECLB@?$AAL?$AAa?$AAs?$AAt?$AA?5?$AAU?$AAs?$AAe?$AAd@ 00500368     DatabaseAdministrationDialog.obj
 0002:0001837c       ??_C@_1CA@FCFICHDJ@?$AAE?$AAx?$AAe?$AAc?$AAu?$AAt?$AAa?$AAb?$AAl?$AAe?$AA?5?$AAP?$AAa?$AAt?$AAh@ 0050037c     DatabaseAdministrationDialog.obj
 0002:0001839c       ??_C@_1CG@KGKEMHMN@?$AAE?$AAx?$AAe?$AAc?$AAu?$AAt?$AAa?$AAb?$AAl?$AAe?$AA?5?$AAV?$AAe?$AAr?$AAs@ 0050039c     DatabaseAdministrationDialog.obj
 0002:000183c4       ??_C@_1CO@MLCNNNPL@?$AAE?$AAx?$AAe?$AAc?$AAu?$AAt?$AAa?$AAb?$AAl?$AAe?$AA?5?$AAD?$AAe?$AAs?$AAc@ 005003c4     DatabaseAdministrationDialog.obj
 0002:000183f4       ??_C@_1BI@KDJOJNEJ@?$AAS?$AAo?$AAf?$AAt?$AAw?$AAa?$AAr?$AAe?$AA?5?$AAI?$AAD@ 005003f4     DatabaseAdministrationDialog.obj
 0002:0001840c       ??_C@_1BE@OOIBAHGO@?$AAU?$AAp?$AAd?$AAa?$AAt?$AAe?$AA?5?$AAI?$AAD@ 0050040c     DatabaseAdministrationDialog.obj
 0002:00018420       ??_C@_1BK@ELBIPKLH@?$AAI?$AAn?$AAs?$AAt?$AAa?$AAl?$AAl?$AAe?$AAd?$AA?5?$AAO?$AAn@ 00500420     DatabaseAdministrationDialog.obj
 0002:0001843c       ??_C@_1BA@HFLEGKCA@?$AAE?$AAd?$AAi?$AAt?$AAi?$AAo?$AAn@ 0050043c     DatabaseAdministrationDialog.obj
 0002:0001844c       ??_C@_1DA@FEIPDCAE@?$AAR?$AAe?$AAg?$AAi?$AAs?$AAt?$AAe?$AAr?$AAe?$AAd?$AA?5?$AAO?$AAr?$AAg?$AAa@ 0050044c     DatabaseAdministrationDialog.obj
 0002:0001847c       ??_C@_1CK@OGKIKNOG@?$AAM?$AAa?$AAj?$AAo?$AAr?$AA?5?$AAV?$AAe?$AAr?$AAs?$AAi?$AAo?$AAn?$AA?5?$AAN@ 0050047c     DatabaseAdministrationDialog.obj
 0002:000184a8       ??_C@_1CK@MHGLNBFC@?$AAM?$AAi?$AAn?$AAo?$AAr?$AA?5?$AAV?$AAe?$AAr?$AAs?$AAi?$AAo?$AAn?$AA?5?$AAN@ 005004a8     DatabaseAdministrationDialog.obj
 0002:000184d4       ??_C@_1BK@DMAGDNHP@?$AAB?$AAu?$AAi?$AAl?$AAd?$AA?5?$AAN?$AAu?$AAm?$AAb?$AAe?$AAr@ 005004d4     DatabaseAdministrationDialog.obj
 0002:000184f0       ??_C@_1BK@KKGOGDBO@?$AAS?$AAe?$AAr?$AAv?$AAi?$AAc?$AAe?$AA?5?$AAP?$AAa?$AAc?$AAk@ 005004f0     DatabaseAdministrationDialog.obj
 0002:0001850c       ??_C@_1CK@NOLGKOJ@?$AAS?$AAe?$AAr?$AAv?$AAi?$AAc?$AAe?$AA?5?$AAP?$AAa?$AAc?$AAk?$AA?5?$AAV?$AAe@ 0050050c     DatabaseAdministrationDialog.obj
 0002:00018538       ??_C@_1CK@NCCNMOIK@?$AAP?$AAl?$AAu?$AAs?$AA?$CB?$AA?5?$AAV?$AAe?$AAr?$AAs?$AAi?$AAo?$AAn?$AA?5?$AAN@ 00500538     DatabaseAdministrationDialog.obj
 0002:00018564       ??_C@_1CA@FDBBBHEB@?$AAD?$AAi?$AAr?$AAe?$AAc?$AAt?$AAX?$AA?5?$AAV?$AAe?$AAr?$AAs?$AAi?$AAo?$AAn@ 00500564     DatabaseAdministrationDialog.obj
 0002:00018584       ??_C@_1CE@CBBJILAD@?$AAW?$AAi?$AAn?$AAd?$AAo?$AAw?$AAs?$AA?5?$AAD?$AAi?$AAr?$AAe?$AAc?$AAt?$AAo@ 00500584     DatabaseAdministrationDialog.obj
 0002:000185a8       ??_C@_1CC@IKBKEANO@?$AAS?$AAy?$AAs?$AAt?$AAe?$AAm?$AA?5?$AAD?$AAi?$AAr?$AAe?$AAc?$AAt?$AAo?$AAr@ 005005a8     DatabaseAdministrationDialog.obj
 0002:000185cc       ??_C@_1CI@HPCCEMDL@?$AAT?$AAe?$AAm?$AAp?$AAo?$AAr?$AAa?$AAr?$AAy?$AA?5?$AAD?$AAi?$AAr?$AAe?$AAc@ 005005cc     DatabaseAdministrationDialog.obj
 0002:000185f4       ??_C@_1DE@EABEGHKL@?$AAO?$AAp?$AAe?$AAr?$AAa?$AAt?$AAi?$AAn?$AAg?$AA?5?$AAS?$AAy?$AAs?$AAt?$AAe@ 005005f4     DatabaseAdministrationDialog.obj
 0002:00018628       ??_C@_1BO@PFCIFHPO@?$AAN?$AAu?$AAm?$AAb?$AAe?$AAr?$AA?5?$AAo?$AAf?$AA?5?$AAB?$AAi?$AAt?$AAs@ 00500628     DatabaseAdministrationDialog.obj
 0002:00018648       ??_C@_1CG@JAIKLHCB@?$AAW?$AAi?$AAn?$AAd?$AAo?$AAw?$AAs?$AA?5?$AA1?$AA0?$AA?5?$AAV?$AAe?$AAr?$AAs@ 00500648     DatabaseAdministrationDialog.obj
 0002:00018670       ??_C@_1CI@OGCLBHFB@?$AAW?$AAi?$AAn?$AAd?$AAo?$AAw?$AAs?$AA?5?$AA1?$AA0?$AA?5?$AAO?$AAS?$AA?5?$AAB@ 00500670     DatabaseAdministrationDialog.obj
 0002:00018698       ??_C@_19BIEPDBPA@?$AAT?$AAy?$AAp?$AAe@ 00500698     DatabaseAdministrationDialog.obj
 0002:000186a4       ??_C@_1BI@HHAFJJB@?$AAD?$AAa?$AAt?$AAa?$AA?5?$AAU?$AAp?$AAd?$AAa?$AAt?$AAe@ 005006a4     DatabaseAdministrationDialog.obj
 0002:000186bc       ??_C@_1BM@NLFMCGPK@?$AAP?$AAo?$AAr?$AAt?$AA?5?$AAP?$AAr?$AAo?$AAt?$AAo?$AAc?$AAo?$AAl@ 005006bc     DatabaseAdministrationDialog.obj
 0002:000186d8       ??_C@_1BM@LEMOEGO@?$AAL?$AAo?$AAc?$AAa?$AAl?$AA?5?$AAA?$AAd?$AAd?$AAr?$AAe?$AAs?$AAs@ 005006d8     DatabaseAdministrationDialog.obj
 0002:000186f4       ??_C@_1BG@BNPEDLGC@?$AAL?$AAo?$AAc?$AAa?$AAl?$AA?5?$AAP?$AAo?$AAr?$AAt@ 005006f4     DatabaseAdministrationDialog.obj
 0002:0001870c       ??_C@_1BA@DDDHLKME@?$AAC?$AAa?$AAp?$AAt?$AAi?$AAo?$AAn@ 0050070c     DatabaseAdministrationDialog.obj
 0002:0001871c       ??_C@_1BK@EJNMMEAG@?$AAS?$AAe?$AAr?$AAv?$AAi?$AAc?$AAe?$AA?5?$AAN?$AAa?$AAm?$AAe@ 0050071c     DatabaseAdministrationDialog.obj
 0002:00018738       ??_C@_1BO@BFPCKOMH@?$AAR?$AAe?$AAm?$AAo?$AAt?$AAe?$AA?5?$AAA?$AAd?$AAd?$AAr?$AAe?$AAs?$AAs@ 00500738     DatabaseAdministrationDialog.obj
 0002:00018758       ??_C@_1BI@FEHLMKGI@?$AAR?$AAe?$AAm?$AAo?$AAt?$AAe?$AA?5?$AAP?$AAo?$AAr?$AAt@ 00500758     DatabaseAdministrationDialog.obj
 0002:00018770       ??_C@_1CC@NNILILAP@?$AAC?$AAo?$AAn?$AAn?$AAe?$AAc?$AAt?$AAi?$AAo?$AAn?$AA?5?$AAS?$AAt?$AAa?$AAt@ 00500770     DatabaseAdministrationDialog.obj
 0002:00018794       ??_C@_1BK@BCHLBEB@?$AAP?$AAr?$AAo?$AAc?$AAe?$AAs?$AAs?$AA?5?$AAN?$AAa?$AAm?$AAe@ 00500794     DatabaseAdministrationDialog.obj
 0002:000187b0       ??_C@_1BG@LDNNCFCD@?$AAP?$AAr?$AAo?$AAc?$AAe?$AAs?$AAs?$AA?5?$AAI?$AAD@ 005007b0     DatabaseAdministrationDialog.obj
 0002:000187c8       ??_C@_1CI@OHJLBBNB@?$AAP?$AAr?$AAo?$AAc?$AAe?$AAs?$AAs?$AA?5?$AAD?$AAe?$AAs?$AAc?$AAr?$AAi?$AAp@ 005007c8     DatabaseAdministrationDialog.obj
 0002:000187f0       ??_C@_1CK@CLGPFLJM@?$AAP?$AAr?$AAo?$AAc?$AAe?$AAs?$AAs?$AA?5?$AAM?$AAa?$AAn?$AAu?$AAf?$AAa?$AAc@ 005007f0     DatabaseAdministrationDialog.obj
 0002:0001881c       ??_C@_1BO@KOJFPFIP@?$AAT?$AAi?$AAm?$AAe?$AA?5?$AAG?$AAe?$AAn?$AAe?$AAr?$AAa?$AAt?$AAe?$AAd@ 0050081c     DatabaseAdministrationDialog.obj
 0002:0001883c       ??_C@_1BC@FHNECJBD@?$AAL?$AAo?$AAg?$AA?5?$AAF?$AAi?$AAl?$AAe@ 0050083c     DatabaseAdministrationDialog.obj
 0002:00018850       ??_C@_1BI@MPEOELJN@?$AAS?$AAo?$AAu?$AAr?$AAc?$AAe?$AA?5?$AAN?$AAa?$AAm?$AAe@ 00500850     DatabaseAdministrationDialog.obj
 0002:00018868       ??_C@_19MHLFJFLO@?$AAI?$AAt?$AAe?$AAm@ 00500868     DatabaseAdministrationDialog.obj
 0002:00018874       ??_C@_1BA@HJOOKMBB@?$AAS?$AAe?$AAt?$AAt?$AAi?$AAn?$AAg@ 00500874     DatabaseAdministrationDialog.obj
 0002:00018884       ??_C@_1BC@BOOKDCJG@?$AAS?$AAe?$AAq?$AAu?$AAe?$AAn?$AAc?$AAe@ 00500884     DatabaseAdministrationDialog.obj
 0002:00018898       ??_C@_1BM@DABLCIKA@?$AAC?$AAr?$AAe?$AAa?$AAt?$AAi?$AAo?$AAn?$AA?5?$AAT?$AAi?$AAm?$AAe@ 00500898     DatabaseAdministrationDialog.obj
 0002:000188b4       ??_C@_1BE@OABNMPEL@?$AAP?$AAr?$AAi?$AAv?$AAi?$AAl?$AAe?$AAg?$AAe@ 005008b4     DatabaseAdministrationDialog.obj
 0002:000188c8       ??_C@_1BG@LPKCLCNP@?$AAG?$AAr?$AAo?$AAu?$AAp?$AA?5?$AAT?$AAy?$AAp?$AAe@ 005008c8     DatabaseAdministrationDialog.obj
 0002:000188e0       ??_C@_1BG@JPDIJICF@?$AAG?$AAr?$AAo?$AAu?$AAp?$AA?5?$AAN?$AAa?$AAm?$AAe@ 005008e0     DatabaseAdministrationDialog.obj
 0002:000188f8       ??_C@_1BA@BCPHNIGF@?$AAC?$AAo?$AAm?$AAm?$AAe?$AAn?$AAt@ 005008f8     DatabaseAdministrationDialog.obj
 0002:00018908       ??_C@_1BI@EGFGGLAJ@?$AAM?$AAe?$AAm?$AAb?$AAe?$AAr?$AA?5?$AAN?$AAa?$AAm?$AAe@ 00500908     DatabaseAdministrationDialog.obj
 0002:00018920       ??_C@_1BO@NJKLOFFI@?$AAP?$AAr?$AAi?$AAv?$AAi?$AAl?$AAe?$AAg?$AAe?$AA?5?$AAN?$AAa?$AAm?$AAe@ 00500920     DatabaseAdministrationDialog.obj
 0002:00018940       ??_C@_1BE@GILJLLCO@?$AAF?$AAu?$AAl?$AAl?$AA?5?$AAN?$AAa?$AAm?$AAe@ 00500940     DatabaseAdministrationDialog.obj
 0002:00018954       ??_C@_1BO@LNDLKIF@?$AAA?$AAc?$AAc?$AAo?$AAu?$AAn?$AAt?$AA?5?$AAS?$AAt?$AAa?$AAt?$AAu?$AAs@ 00500954     DatabaseAdministrationDialog.obj
 0002:00018974       ??_C@_1BK@FHFNAPFC@?$AAL?$AAo?$AAc?$AAa?$AAl?$AA?5?$AAG?$AAr?$AAo?$AAu?$AAp?$AAs@ 00500974     DatabaseAdministrationDialog.obj
 0002:00018990       ??_C@_1BM@IJEKKGOL@?$AAG?$AAl?$AAo?$AAb?$AAa?$AAl?$AA?5?$AAG?$AAr?$AAo?$AAu?$AAp?$AAs@ 00500990     DatabaseAdministrationDialog.obj
 0002:000189ac       ??_C@_1BG@DKDEOMHO@?$AAL?$AAa?$AAs?$AAt?$AA?5?$AAL?$AAo?$AAg?$AAo?$AAn@ 005009ac     DatabaseAdministrationDialog.obj
 0002:000189c4       ??_C@_1BI@OKBOOKKN@?$AAL?$AAa?$AAs?$AAt?$AA?5?$AAL?$AAo?$AAg?$AAo?$AAf?$AAf@ 005009c4     DatabaseAdministrationDialog.obj
 0002:000189dc       ??_C@_1CC@BHJPHOCP@?$AAN?$AAu?$AAm?$AAb?$AAe?$AAr?$AA?5?$AAo?$AAf?$AA?5?$AAL?$AAo?$AAg?$AAo?$AAn@ 005009dc     DatabaseAdministrationDialog.obj
 0002:00018a00       ??_C@_1CG@GMLGJOFM@?$AAB?$AAa?$AAd?$AA?5?$AAP?$AAa?$AAs?$AAs?$AAw?$AAo?$AAr?$AAd?$AA?5?$AAC?$AAo@ 00500a00     DatabaseAdministrationDialog.obj
 0002:00018a28       ??_C@_1BK@NJFKPBPH@?$AAP?$AAa?$AAs?$AAs?$AAw?$AAo?$AAr?$AAd?$AA?5?$AAA?$AAg?$AAe@ 00500a28     DatabaseAdministrationDialog.obj
 0002:00018a44       ??_C@_1CC@EBABADJM@?$AAP?$AAa?$AAs?$AAs?$AAw?$AAo?$AAr?$AAd?$AA?5?$AAE?$AAx?$AAp?$AAi?$AAr?$AAe@ 00500a44     DatabaseAdministrationDialog.obj
 0002:00018a68       ??_C@_1CA@BBCOLHDO@?$AAA?$AAc?$AAc?$AAo?$AAu?$AAn?$AAt?$AA?5?$AAE?$AAx?$AAp?$AAi?$AAr?$AAe?$AAs@ 00500a68     DatabaseAdministrationDialog.obj
 0002:00018a88       ??_C@_1BE@GKLKBOPN@?$AAT?$AAa?$AAs?$AAk?$AA?5?$AAN?$AAa?$AAm?$AAe@ 00500a88     DatabaseAdministrationDialog.obj
 0002:00018a9c       ??_C@_1O@GGDILBNB@?$AAS?$AAt?$AAa?$AAt?$AAu?$AAs@ 00500a9c     DatabaseAdministrationDialog.obj
 0002:00018aac       ??_C@_1BC@LGMCIBDE@?$AAS?$AAc?$AAh?$AAe?$AAd?$AAu?$AAl?$AAe@ 00500aac     DatabaseAdministrationDialog.obj
 0002:00018ac0       ??_C@_1BM@OIAJBPJL@?$AAN?$AAe?$AAx?$AAt?$AA?5?$AAR?$AAu?$AAn?$AA?5?$AAT?$AAi?$AAm?$AAe@ 00500ac0     DatabaseAdministrationDialog.obj
 0002:00018adc       ??_C@_1BI@MCEHEGDN@?$AAR?$AAu?$AAn?$AA?5?$AAC?$AAo?$AAm?$AAm?$AAa?$AAn?$AAd@ 00500adc     DatabaseAdministrationDialog.obj
 0002:00018af4       ??_C@_1CC@KDJLIFFB@?$AAM?$AAa?$AAx?$AAi?$AAm?$AAu?$AAm?$AA?5?$AAR?$AAu?$AAn?$AA?5?$AAT?$AAi?$AAm@ 00500af4     DatabaseAdministrationDialog.obj
 0002:00018b18       ??_C@_1BM@ELOFOGOJ@?$AAL?$AAa?$AAs?$AAt?$AA?5?$AAR?$AAu?$AAn?$AA?5?$AAT?$AAi?$AAm?$AAe@ 00500b18     DatabaseAdministrationDialog.obj
 0002:00018b34       ??_C@_1BI@DFLFNLCD@?$AAL?$AAa?$AAs?$AAt?$AA?5?$AAR?$AAe?$AAs?$AAu?$AAl?$AAt@ 00500b34     DatabaseAdministrationDialog.obj
 0002:00018b4c       ??_C@_1BG@BJGGIEDJ@?$AAD?$AAa?$AAt?$AAa?$AA?5?$AAS?$AAt?$AAa?$AAr?$AAt@ 00500b4c     DatabaseAdministrationDialog.obj
 0002:00018b64       ??_C@_1CI@JJFJLNFI@?$AAS?$AAy?$AAs?$AAt?$AAe?$AAm?$AA?5?$AAA?$AAv?$AAa?$AAi?$AAl?$AAa?$AAb?$AAi@ 00500b64     DatabaseAdministrationDialog.obj
 0002:00018b8c       ??_C@_1BK@DBIPCMLE@?$AAT?$AAo?$AAt?$AAa?$AAl?$AA?5?$AAU?$AAp?$AAt?$AAi?$AAm?$AAe@ 00500b8c     DatabaseAdministrationDialog.obj
 0002:00018ba8       ??_C@_1BO@NLMBDJCG@?$AAT?$AAo?$AAt?$AAa?$AAl?$AA?5?$AAD?$AAo?$AAw?$AAn?$AAt?$AAi?$AAm?$AAe@ 00500ba8     DatabaseAdministrationDialog.obj
 0002:00018bc8       ??_C@_1BK@BPDDKIA@?$AAT?$AAi?$AAm?$AAe?$AAs?$AA?5?$AAB?$AAo?$AAo?$AAt?$AAe?$AAd@ 00500bc8     DatabaseAdministrationDialog.obj
 0002:00018be4       ??_C@_1CA@JCNOOCOE@?$AAC?$AAl?$AAe?$AAa?$AAn?$AA?5?$AAS?$AAh?$AAu?$AAt?$AAd?$AAo?$AAw?$AAn?$AAs@ 00500be4     DatabaseAdministrationDialog.obj
 0002:00018c04       ??_C@_1CK@FLLBOEPK@?$AAU?$AAn?$AAe?$AAx?$AAp?$AAe?$AAc?$AAt?$AAe?$AAd?$AA?5?$AAS?$AAh?$AAu?$AAt@ 00500c04     DatabaseAdministrationDialog.obj
 0002:00018c30       ??_C@_19NHABCBNP@?$AAP?$AAa?$AAt?$AAh@ 00500c30     DatabaseAdministrationDialog.obj
 0002:00018c3c       ??_C@_1M@NEHCMLKP@?$AAL?$AAo?$AAc?$AAk?$AAs@ 00500c3c     DatabaseAdministrationDialog.obj
 0002:00018c48       ??_C@_1BI@FDBAGGKK@?$AAP?$AAe?$AAr?$AAm?$AAi?$AAs?$AAs?$AAi?$AAo?$AAn?$AAs@ 00500c48     DatabaseAdministrationDialog.obj
 0002:00018c60       ??_C@_1BO@CIJLBFOP@?$AAC?$AAo?$AAn?$AAn?$AAe?$AAc?$AAt?$AAe?$AAd?$AA?5?$AAT?$AAi?$AAm?$AAe@ 00500c60     DatabaseAdministrationDialog.obj
 0002:00018c80       ??_C@_1BE@JIOINECC@?$AAI?$AAd?$AAl?$AAe?$AA?5?$AAT?$AAi?$AAm?$AAe@ 00500c80     DatabaseAdministrationDialog.obj
 0002:00018c94       ??_C@_1BG@NLHIPCIC@?$AAS?$AAh?$AAa?$AAr?$AAe?$AA?5?$AAN?$AAa?$AAm?$AAe@ 00500c94     DatabaseAdministrationDialog.obj
 0002:00018cac       ??_C@_1BG@PLOCNIHI@?$AAS?$AAh?$AAa?$AAr?$AAe?$AA?5?$AAT?$AAy?$AAp?$AAe@ 00500cac     DatabaseAdministrationDialog.obj
 0002:00018cc4       ??_C@_1BI@IPAIBCLI@?$AAC?$AAo?$AAn?$AAn?$AAe?$AAc?$AAt?$AAi?$AAo?$AAn?$AAs@ 00500cc4     DatabaseAdministrationDialog.obj
 0002:00018cdc       ??_C@_1BG@DEKMMIFH@?$AAS?$AAh?$AAa?$AAr?$AAe?$AA?5?$AAP?$AAa?$AAt?$AAh@ 00500cdc     DatabaseAdministrationDialog.obj
 0002:00018cf4       ??_C@_1BO@PMKHIIPE@?$AAA?$AAd?$AAa?$AAp?$AAt?$AAe?$AAr?$AA?5?$AAN?$AAu?$AAm?$AAb?$AAe?$AAr@ 00500cf4     DatabaseAdministrationDialog.obj
 0002:00018d14       ??_C@_1BK@OOKLKHFJ@?$AAA?$AAd?$AAa?$AAp?$AAt?$AAe?$AAr?$AA?5?$AAN?$AAa?$AAm?$AAe@ 00500d14     DatabaseAdministrationDialog.obj
 0002:00018d30       ??_C@_1BM@LDFHGEDN@?$AAD?$AAN?$AAS?$AA?5?$AAH?$AAo?$AAs?$AAt?$AA?5?$AAN?$AAa?$AAm?$AAe@ 00500d30     DatabaseAdministrationDialog.obj
 0002:00018d4c       ??_C@_1BI@EIGLIKLK@?$AAD?$AAN?$AAS?$AA?5?$AAS?$AAe?$AAr?$AAv?$AAe?$AAr?$AAs@ 00500d4c     DatabaseAdministrationDialog.obj
 0002:00018d64       ??_C@_1BG@BLDDCHFC@?$AAI?$AAP?$AA?5?$AAA?$AAd?$AAd?$AAr?$AAe?$AAs?$AAs@ 00500d64     DatabaseAdministrationDialog.obj
 0002:00018d7c       ??_C@_1BE@PFOLKJNB@?$AAI?$AAP?$AA?5?$AAS?$AAu?$AAb?$AAn?$AAe?$AAt@ 00500d7c     DatabaseAdministrationDialog.obj
 0002:00018d90       ??_C@_1CG@NEFPOIIF@?$AAD?$AAe?$AAf?$AAa?$AAu?$AAl?$AAt?$AA?5?$AAI?$AAP?$AA?5?$AAG?$AAa?$AAt?$AAe@ 00500d90     DatabaseAdministrationDialog.obj
 0002:00018db8       ??_C@_1BK@CPHPAFJJ@?$AAD?$AAH?$AAC?$AAP?$AA?5?$AAE?$AAn?$AAa?$AAb?$AAl?$AAe?$AAd@ 00500db8     DatabaseAdministrationDialog.obj
 0002:00018dd4       ??_C@_1BI@JDLOCADJ@?$AAD?$AAH?$AAC?$AAP?$AA?5?$AAS?$AAe?$AAr?$AAv?$AAe?$AAr@ 00500dd4     DatabaseAdministrationDialog.obj
 0002:00018dec       ??_C@_1CA@HBLHAIJP@?$AAD?$AAH?$AAC?$AAP?$AA?5?$AAI?$AAP?$AA?5?$AAA?$AAd?$AAd?$AAr?$AAe?$AAs?$AAs@ 00500dec     DatabaseAdministrationDialog.obj
 0002:00018e0c       ??_C@_1CI@KJINMFB@?$AAD?$AAH?$AAC?$AAP?$AA?5?$AAL?$AAe?$AAa?$AAs?$AAe?$AA?5?$AAO?$AAb?$AAt?$AAa@ 00500e0c     DatabaseAdministrationDialog.obj
 0002:00018e34       ??_C@_1CG@MPEEGOEM@?$AAD?$AAH?$AAC?$AAP?$AA?5?$AAL?$AAe?$AAa?$AAs?$AAe?$AA?5?$AAE?$AAx?$AAp?$AAi@ 00500e34     DatabaseAdministrationDialog.obj
 0002:00018e5c       ??_C@_1BI@KKGIJOIP@?$AAS?$AAt?$AAa?$AAt?$AAu?$AAs?$AA?5?$AAC?$AAo?$AAd?$AAe@ 00500e5c     DatabaseAdministrationDialog.obj
 0002:00018e74       ??_C@_1BO@KNMIDFHA@?$AAA?$AAd?$AAa?$AAp?$AAt?$AAe?$AAr?$AA?5?$AAS?$AAt?$AAa?$AAt?$AAu?$AAs@ 00500e74     DatabaseAdministrationDialog.obj
 0002:00018e94       ??_C@_1BK@MODBINKD@?$AAA?$AAd?$AAa?$AAp?$AAt?$AAe?$AAr?$AA?5?$AAT?$AAy?$AAp?$AAe@ 00500e94     DatabaseAdministrationDialog.obj
 0002:00018eb0       ??_C@_1BI@PKAFKBAO@?$AAM?$AAA?$AAC?$AA?5?$AAA?$AAd?$AAd?$AAr?$AAe?$AAs?$AAs@ 00500eb0     DatabaseAdministrationDialog.obj
 0002:00018ec8       ??_C@_1CE@IHKOJGAF@?$AAC?$AAo?$AAn?$AAn?$AAe?$AAc?$AAt?$AAi?$AAo?$AAn?$AA?5?$AAS?$AAt?$AAa?$AAt@ 00500ec8     DatabaseAdministrationDialog.obj
 0002:00018eec       ??_C@_1CC@CABMJDNE@?$AAC?$AAo?$AAn?$AAn?$AAe?$AAc?$AAt?$AAi?$AAo?$AAn?$AA?5?$AAS?$AAp?$AAe?$AAe@ 00500eec     DatabaseAdministrationDialog.obj
 0002:00018f10       ??_C@_1CC@HODCFMHI@?$AAS?$AAo?$AAf?$AAt?$AAw?$AAa?$AAr?$AAe?$AA?5?$AAR?$AAe?$AAl?$AAe?$AAa?$AAs@ 00500f10     DatabaseAdministrationDialog.obj
 0002:00018f34       ??_C@_1CC@JIMHLDAH@?$AAM?$AAa?$AAx?$AAi?$AAm?$AAu?$AAm?$AA?5?$AAS?$AAe?$AAs?$AAs?$AAi?$AAo?$AAn@ 00500f34     DatabaseAdministrationDialog.obj
 0002:00018f58       ??_C@_1CC@NEHNNLND@?$AAS?$AAe?$AAs?$AAs?$AAi?$AAo?$AAn?$AAs?$AA?5?$AAP?$AAe?$AAn?$AAd?$AAi?$AAn@ 00500f58     DatabaseAdministrationDialog.obj
 0002:00018f7c       ??_C@_1BK@NKOLAPCP@?$AAM?$AAa?$AAx?$AAi?$AAm?$AAu?$AAm?$AA?5?$AAD?$AAa?$AAt?$AAa@ 00500f7c     DatabaseAdministrationDialog.obj
 0002:00018f98       ??_C@_1CC@LOHCPGGP@?$AAM?$AAa?$AAx?$AAi?$AAm?$AAu?$AAm?$AA?5?$AAD?$AAa?$AAt?$AAa?$AAg?$AAr?$AAa@ 00500f98     DatabaseAdministrationDialog.obj
 0002:00018fbc       ??_C@_1BI@EKGJKEBB@?$AAD?$AAe?$AAv?$AAi?$AAc?$AAe?$AA?5?$AAT?$AAy?$AAp?$AAe@ 00500fbc     DatabaseAdministrationDialog.obj
 0002:00018fd4       ??_C@_1BI@GKPDIOOL@?$AAD?$AAe?$AAv?$AAi?$AAc?$AAe?$AA?5?$AAN?$AAa?$AAm?$AAe@ 00500fd4     DatabaseAdministrationDialog.obj
 0002:00018fec       ??_C@_1BC@NICNPKDN@?$AAL?$AAo?$AAc?$AAa?$AAt?$AAi?$AAo?$AAn@ 00500fec     DatabaseAdministrationDialog.obj
 0002:00019000       ??_C@_1CA@EIFOJAHI@?$AAD?$AAr?$AAi?$AAv?$AAe?$AAr?$AA?5?$AAP?$AAr?$AAo?$AAv?$AAi?$AAd?$AAe?$AAr@ 00501000     DatabaseAdministrationDialog.obj
 0002:00019020       ??_C@_1BO@EBHODFGJ@?$AAD?$AAr?$AAi?$AAv?$AAe?$AAr?$AA?5?$AAV?$AAe?$AAr?$AAs?$AAi?$AAo?$AAn@ 00501020     DatabaseAdministrationDialog.obj
 0002:00019040       ??_C@_1BI@IBENOFEM@?$AAD?$AAr?$AAi?$AAv?$AAe?$AAr?$AA?5?$AAD?$AAa?$AAt?$AAe@ 00501040     DatabaseAdministrationDialog.obj
 0002:00019058       ??_C@_1BO@OGAHJDM@?$AAS?$AAt?$AAa?$AAt?$AAu?$AAs?$AA?5?$AAM?$AAe?$AAs?$AAs?$AAa?$AAg?$AAe@ 00501058     DatabaseAdministrationDialog.obj
 0002:00019078       ??_C@_1BG@HFFLEMOH@?$AAC?$AAl?$AAa?$AAs?$AAs?$AA?5?$AAG?$AAU?$AAI?$AAD@ 00501078     DatabaseAdministrationDialog.obj
 0002:00019090       ??_C@_1BE@ILCHKLEK@?$AAD?$AAe?$AAv?$AAi?$AAc?$AAe?$AA?5?$AAI?$AAD@ 00501090     DatabaseAdministrationDialog.obj
 0002:000190a4       ??_C@_1BO@CHBPOCDM@?$AAD?$AAi?$AAs?$AAp?$AAl?$AAa?$AAy?$AA?5?$AAN?$AAu?$AAm?$AAb?$AAe?$AAr@ 005010a4     DatabaseAdministrationDialog.obj
 0002:000190c4       ??_C@_1BA@POEPBJJB@?$AAC?$AAa?$AAp?$AAa?$AAb?$AAl?$AAe@ 005010c4     DatabaseAdministrationDialog.obj
 0002:000190d4       ??_C@_1BO@OGLKLEAP@?$AAP?$AAr?$AAi?$AAn?$AAt?$AAe?$AAr?$AA?5?$AAN?$AAu?$AAm?$AAb?$AAe?$AAr@ 005010d4     DatabaseAdministrationDialog.obj
 0002:000190f4       ??_C@_1BK@CMMPLBJJ@?$AAP?$AAr?$AAi?$AAn?$AAt?$AAe?$AAr?$AA?5?$AAN?$AAa?$AAm?$AAe@ 005010f4     DatabaseAdministrationDialog.obj
 0002:00019110       ??_C@_1BE@KDDEPOCG@?$AAP?$AAo?$AAr?$AAt?$AA?5?$AAN?$AAa?$AAm?$AAe@ 00501110     DatabaseAdministrationDialog.obj
 0002:00019124       ??_C@_1CC@GHBCFGC@?$AAP?$AAa?$AAg?$AAe?$AAs?$AA?5?$AAP?$AAe?$AAr?$AA?5?$AAM?$AAi?$AAn?$AAu?$AAt@ 00501124     DatabaseAdministrationDialog.obj
 0002:00019148       ??_C@_1BG@GOLCKOJO@?$AAA?$AAt?$AAt?$AAr?$AAi?$AAb?$AAu?$AAt?$AAe?$AAs@ 00501148     DatabaseAdministrationDialog.obj
 0002:00019160       ??_C@_1BO@LHNFAJIL@?$AAP?$AAr?$AAi?$AAn?$AAt?$AAe?$AAr?$AA?5?$AAS?$AAt?$AAa?$AAt?$AAu?$AAs@ 00501160     DatabaseAdministrationDialog.obj
 0002:00019180       ??_C@_1BG@NMIKCLEG@?$AAP?$AAa?$AAp?$AAe?$AAr?$AA?5?$AAS?$AAi?$AAz?$AAe@ 00501180     DatabaseAdministrationDialog.obj
 0002:00019198       ??_C@_1BI@MDKCIGOA@?$AAO?$AAr?$AAi?$AAe?$AAn?$AAt?$AAa?$AAt?$AAi?$AAo?$AAn@ 00501198     DatabaseAdministrationDialog.obj
 0002:000191b0       ??_C@_1BM@BKGBBKJF@?$AAP?$AAr?$AAi?$AAn?$AAt?$AA?5?$AAQ?$AAu?$AAa?$AAl?$AAi?$AAt?$AAy@ 005011b0     DatabaseAdministrationDialog.obj
 0002:000191cc       ??_C@_1BI@LCLGCGNG@?$AAD?$AAr?$AAi?$AAv?$AAe?$AAr?$AA?5?$AAN?$AAa?$AAm?$AAe@ 005011cc     DatabaseAdministrationDialog.obj
 0002:000191e4       ??_C@_1BI@LJNIKODC@?$AAD?$AAr?$AAi?$AAv?$AAe?$AAr?$AA?5?$AAF?$AAi?$AAl?$AAe@ 005011e4     DatabaseAdministrationDialog.obj
 0002:000191fc       ??_C@_1CI@JPLPIGGD@?$AAD?$AAr?$AAi?$AAv?$AAe?$AAr?$AA?5?$AAM?$AAa?$AAn?$AAu?$AAf?$AAa?$AAc?$AAt@ 005011fc     DatabaseAdministrationDialog.obj
 0002:00019224       ??_C@_1CG@DPJKDLPL@?$AAD?$AAr?$AAi?$AAv?$AAe?$AAr?$AA?5?$AAD?$AAe?$AAs?$AAc?$AAr?$AAi?$AAp?$AAt@ 00501224     DatabaseAdministrationDialog.obj
 0002:0001924c       ??_C@_1CC@EGINEFHE@?$AAD?$AAr?$AAi?$AAv?$AAe?$AAr?$AA?5?$AAD?$AAa?$AAt?$AAa?$AA?5?$AAF?$AAi?$AAl@ 0050124c     DatabaseAdministrationDialog.obj
 0002:00019270       ??_C@_1DE@LENPOPCC@?$AAD?$AAr?$AAi?$AAv?$AAe?$AAr?$AA?5?$AAC?$AAo?$AAn?$AAf?$AAi?$AAg?$AAu?$AAr@ 00501270     DatabaseAdministrationDialog.obj
 0002:000192a4       ??_C@_1BK@EBGGOBLH@?$AAR?$AAe?$AAl?$AAe?$AAa?$AAs?$AAe?$AA?5?$AAD?$AAa?$AAt?$AAe@ 005012a4     DatabaseAdministrationDialog.obj
 0002:000192c0       ??_C@_1CG@MBBHCNCN@?$AAV?$AAi?$AAd?$AAe?$AAo?$AA?5?$AAB?$AAI?$AAO?$AAS?$AA?5?$AAV?$AAe?$AAr?$AAs@ 005012c0     DatabaseAdministrationDialog.obj
 0002:000192e8       ??_C@_1CA@BLLECEJO@?$AAV?$AAi?$AAd?$AAe?$AAo?$AA?5?$AAB?$AAI?$AAO?$AAS?$AA?5?$AAD?$AAa?$AAt?$AAe@ 005012e8     DatabaseAdministrationDialog.obj
 0002:00019308       ??_C@_1CC@HAFENOCA@?$AAP?$AAr?$AAo?$AAc?$AAe?$AAs?$AAs?$AAo?$AAr?$AA?5?$AAN?$AAu?$AAm?$AAb?$AAe@ 00501308     DatabaseAdministrationDialog.obj
 0002:0001932c       ??_C@_1BG@DJOIDNBB@?$AAS?$AAh?$AAo?$AAr?$AAt?$AA?5?$AAN?$AAa?$AAm?$AAe@ 0050132c     DatabaseAdministrationDialog.obj
 0002:00019344       ??_C@_1CA@HFGLBCEF@?$AAS?$AAp?$AAe?$AAe?$AAd?$AA?5?$AAE?$AAs?$AAt?$AAi?$AAm?$AAa?$AAt?$AAe?$AAd@ 00501344     DatabaseAdministrationDialog.obj
 0002:00019364       ??_C@_1BO@MKHLPHHN@?$AAS?$AAp?$AAe?$AAe?$AAd?$AA?5?$AAR?$AAe?$AAg?$AAi?$AAs?$AAt?$AAr?$AAy@ 00501364     DatabaseAdministrationDialog.obj
 0002:00019384       ??_C@_1BO@HIKPBBCM@?$AAP?$AAr?$AAo?$AAc?$AAe?$AAs?$AAs?$AAo?$AAr?$AA?5?$AAT?$AAy?$AAp?$AAe@ 00501384     DatabaseAdministrationDialog.obj
 0002:000193a4       ??_C@_1CC@IHADHMHE@?$AAA?$AAP?$AAI?$AAC?$AA?5?$AAP?$AAh?$AAy?$AAs?$AAi?$AAc?$AAa?$AAl?$AA?5?$AAI@ 005013a4     DatabaseAdministrationDialog.obj
 0002:000193c8       ??_C@_1BC@IGDFDBLI@?$AAF?$AAe?$AAa?$AAt?$AAu?$AAr?$AAe?$AAs@ 005013c8     DatabaseAdministrationDialog.obj
 0002:000193dc       ??_C@_1M@ELMJBOIA@?$AAC?$AAa?$AAc?$AAh?$AAe@ 005013dc     DatabaseAdministrationDialog.obj
 0002:000193e8       ??_C@_1CG@HDPHGIED@?$AAL?$AAo?$AAg?$AAi?$AAc?$AAa?$AAl?$AA?5?$AAP?$AAr?$AAo?$AAc?$AAe?$AAs?$AAs@ 005013e8     DatabaseAdministrationDialog.obj
 0002:00019410       ??_C@_1BK@NKOJMKKC@?$AAN?$AAu?$AAm?$AAb?$AAe?$AAr?$AA?5?$AAC?$AAo?$AAr?$AAe?$AAs@ 00501410     DatabaseAdministrationDialog.obj
 0002:0001942c       ??_C@_1BM@HDPGKANE@?$AAV?$AAe?$AAn?$AAd?$AAo?$AAr?$AA?5?$AAS?$AAt?$AAr?$AAi?$AAn?$AAg@ 0050142c     DatabaseAdministrationDialog.obj
 0002:00019448       ??_C@_1O@KGHEAOHP@?$AAF?$AAa?$AAm?$AAi?$AAl?$AAy@ 00501448     DatabaseAdministrationDialog.obj
 0002:00019458       ??_C@_1BC@GMMNMBBO@?$AAS?$AAt?$AAe?$AAp?$AAp?$AAi?$AAn?$AAg@ 00501458     DatabaseAdministrationDialog.obj
 0002:0001946c       ??_C@_1CA@LBCFAAOM@?$AAE?$AAx?$AAt?$AAe?$AAn?$AAd?$AAe?$AAd?$AA?5?$AAF?$AAa?$AAm?$AAi?$AAl?$AAy@ 0050146c     DatabaseAdministrationDialog.obj
 0002:0001948c       ??_C@_1BO@KEOODHCP@?$AAE?$AAx?$AAt?$AAe?$AAn?$AAd?$AAe?$AAd?$AA?5?$AAM?$AAo?$AAd?$AAe?$AAl@ 0050148c     DatabaseAdministrationDialog.obj
 0002:000194ac       ??_C@_1BC@LCJBDOPA@?$AAB?$AAr?$AAa?$AAn?$AAd?$AA?5?$AAI?$AAD@ 005014ac     DatabaseAdministrationDialog.obj
 0002:000194c0       ??_C@_1DA@PAPGCGNE@?$AAF?$AAP?$AAU?$AA?5?$AAF?$AAl?$AAo?$AAa?$AAt?$AAi?$AAn?$AAg?$AA?5?$AAP?$AAo@ 005014c0     DatabaseAdministrationDialog.obj
 0002:000194f0       ??_C@_1DI@FLCICGLG@?$AAV?$AAM?$AAE?$AA?5?$AAV?$AAi?$AAr?$AAt?$AAu?$AAa?$AAl?$AA?5?$AAM?$AAo?$AAd@ 005014f0     DatabaseAdministrationDialog.obj
 0002:00019528       ??_C@_1DA@LOIOAMJE@?$AAD?$AAE?$AA?5?$AAD?$AAe?$AAb?$AAu?$AAg?$AAg?$AAi?$AAn?$AAg?$AA?5?$AAE?$AAx@ 00501528     DatabaseAdministrationDialog.obj
 0002:00019558       ??_C@_1DC@DCLJLIIL@?$AAP?$AAS?$AAE?$AA?5?$AAP?$AAa?$AAg?$AAe?$AA?5?$AAS?$AAi?$AAz?$AAe?$AA?5?$AAE@ 00501558     DatabaseAdministrationDialog.obj
 0002:0001958c       ??_C@_1CO@OHMNPPAG@?$AAT?$AAS?$AAC?$AA?5?$AAT?$AAi?$AAm?$AAe?$AA?5?$AAS?$AAt?$AAa?$AAm?$AAp?$AA?5@ 0050158c     DatabaseAdministrationDialog.obj
 0002:000195bc       ??_C@_1DK@PKBJPIIC@?$AAM?$AAS?$AAR?$AA?5?$AAM?$AAo?$AAd?$AAe?$AAl?$AA?5?$AAS?$AAp?$AAe?$AAc?$AAi@ 005015bc     DatabaseAdministrationDialog.obj
 0002:000195f8       ??_C@_1DG@DAMNFJOG@?$AAP?$AAA?$AAE?$AA?5?$AAP?$AAh?$AAy?$AAs?$AAi?$AAc?$AAa?$AAl?$AA?5?$AAA?$AAd@ 005015f8     DatabaseAdministrationDialog.obj
 0002:00019630       ??_C@_1DK@OGPMOHEK@?$AAM?$AAC?$AAE?$AA?5?$AAM?$AAa?$AAc?$AAh?$AAi?$AAn?$AAe?$AA?5?$AAC?$AAh?$AAe@ 00501630     DatabaseAdministrationDialog.obj
 0002:0001966c       ??_C@_1DI@HJDLPBOD@?$AAC?$AAX?$AA8?$AA?5?$AAC?$AAo?$AAm?$AAp?$AAa?$AAr?$AAe?$AA?5?$AAE?$AAx?$AAc@ 0050166c     DatabaseAdministrationDialog.obj
 0002:000196a4       ??_C@_1DE@MKBNLKFF@?$AAA?$AAP?$AAI?$AAC?$AA?5?$AAO?$AAn?$AA?5?$AAC?$AAh?$AAi?$AAp?$AA?5?$AAA?$AAP@ 005016a4     DatabaseAdministrationDialog.obj
 0002:000196d8       ??_C@_1CM@IJNLCFHD@?$AAS?$AAE?$AAP?$AA?5?$AAF?$AAa?$AAs?$AAt?$AA?5?$AAS?$AAy?$AAs?$AAt?$AAe?$AAm@ 005016d8     DatabaseAdministrationDialog.obj
 0002:00019704       ??_C@_1DK@MLDDJBMK@?$AAM?$AAT?$AAR?$AAR?$AA?5?$AAM?$AAe?$AAm?$AAo?$AAr?$AAy?$AA?5?$AAT?$AAy?$AAp@ 00501704     DatabaseAdministrationDialog.obj
 0002:00019740       ??_C@_1CO@OFOILOLC@?$AAP?$AAG?$AAE?$AA?5?$AAP?$AAa?$AAg?$AAe?$AA?5?$AAG?$AAl?$AAo?$AAb?$AAa?$AAl@ 00501740     DatabaseAdministrationDialog.obj
 0002:00019770       ??_C@_1DO@ILFEOEEL@?$AAM?$AAC?$AAA?$AA?5?$AAM?$AAa?$AAc?$AAh?$AAi?$AAn?$AAe?$AA?5?$AAC?$AAh?$AAe@ 00501770     DatabaseAdministrationDialog.obj
 0002:000197b0       ??_C@_1CM@PKGBGEJC@?$AAC?$AAM?$AAO?$AAV?$AA?5?$AAC?$AAo?$AAn?$AAd?$AAi?$AAt?$AAi?$AAo?$AAn?$AAa@ 005017b0     DatabaseAdministrationDialog.obj
 0002:000197dc       ??_C@_1DC@GINFBGJA@?$AAP?$AAA?$AAT?$AA?5?$AAP?$AAa?$AAg?$AAe?$AA?5?$AAA?$AAt?$AAt?$AAr?$AAi?$AAb@ 005017dc     DatabaseAdministrationDialog.obj
 0002:00019810       ??_C@_1DG@KEEBGDFC@?$AAP?$AAS?$AAE?$AA3?$AA6?$AA?5?$AA3?$AA6?$AAb?$AAi?$AAt?$AA?5?$AAP?$AAa?$AAg@ 00501810     DatabaseAdministrationDialog.obj
 0002:00019848       ??_C@_1DI@HHCFKALD@?$AAP?$AAS?$AAN?$AA?5?$AAP?$AAr?$AAo?$AAc?$AAe?$AAs?$AAs?$AAo?$AAr?$AA?5?$AAS@ 00501848     DatabaseAdministrationDialog.obj
 0002:00019880       ??_C@_1DE@PGIFMIOG@?$AAC?$AAL?$AAF?$AAS?$AAH?$AA?5?$AAC?$AAL?$AAF?$AAL?$AAU?$AAS?$AAH?$AA?5?$AAI@ 00501880     DatabaseAdministrationDialog.obj
 0002:000198b4       ??_C@_1BO@JNAKHCON@?$AAD?$AAS?$AA?5?$AAD?$AAe?$AAb?$AAu?$AAg?$AA?5?$AAS?$AAt?$AAo?$AAr?$AAe@ 005018b4     DatabaseAdministrationDialog.obj
 0002:000198d4       ??_C@_1CI@FJEGDKMH@?$AAA?$AAC?$AAP?$AAI?$AA?5?$AAA?$AAC?$AAP?$AAI?$AA?5?$AAS?$AAu?$AAp?$AAp?$AAo@ 005018d4     DatabaseAdministrationDialog.obj
 0002:000198fc       ??_C@_1CG@MKJBHAFJ@?$AAM?$AAM?$AAX?$AA?5?$AAM?$AAM?$AAX?$AA?5?$AAT?$AAe?$AAc?$AAh?$AAn?$AAo?$AAl@ 005018fc     DatabaseAdministrationDialog.obj
 0002:00019924       ??_C@_1CO@CDHECEPG@?$AAF?$AAX?$AAF?$AAR?$AA?5?$AAF?$AAa?$AAs?$AAt?$AA?5?$AAS?$AAa?$AAv?$AAe?$AA?5@ 00501924     DatabaseAdministrationDialog.obj
 0002:00019954       ??_C@_1DA@EGNEIOJJ@?$AAS?$AAS?$AAE?$AA?5?$AAS?$AAt?$AAr?$AAe?$AAa?$AAm?$AAi?$AAn?$AAg?$AA?5?$AAS@ 00501954     DatabaseAdministrationDialog.obj
 0002:00019984       ??_C@_1DG@GOCKALBD@?$AAS?$AAS?$AAE?$AA2?$AA?5?$AAS?$AAt?$AAr?$AAe?$AAa?$AAm?$AAi?$AAn?$AAg?$AA?5@ 00501984     DatabaseAdministrationDialog.obj
 0002:000199bc       ??_C@_1BK@NBIMJDFA@?$AAS?$AAS?$AA?5?$AAS?$AAe?$AAl?$AAf?$AAs?$AAn?$AAo?$AAo?$AAp@ 005019bc     DatabaseAdministrationDialog.obj
 0002:000199d8       ??_C@_1DO@BBLEFPCJ@?$AAH?$AAT?$AAT?$AA?5?$AAH?$AAy?$AAp?$AAe?$AAr?$AA?5?$AAT?$AAh?$AAr?$AAe?$AAa@ 005019d8     DatabaseAdministrationDialog.obj
 0002:00019a18       ??_C@_1DK@CBGANGOD@?$AAT?$AAM?$AA1?$AA?5?$AAT?$AAh?$AAe?$AAr?$AAm?$AAa?$AAl?$AA?5?$AAI?$AAn?$AAt@ 00501a18     DatabaseAdministrationDialog.obj
 0002:00019a54       ??_C@_1CE@OMPDMPAI@?$AAI?$AAA?$AA6?$AA4?$AA?5?$AA6?$AA4?$AA?5?$AAb?$AAi?$AAt?$AA?5?$AAI?$AAn?$AAt@ 00501a54     DatabaseAdministrationDialog.obj
 0002:00019a78       ??_C@_1DA@CFHAFMLP@?$AAP?$AAB?$AAE?$AA?5?$AAP?$AAe?$AAn?$AAd?$AAi?$AAn?$AAg?$AA?5?$AAB?$AAr?$AAe@ 00501a78     DatabaseAdministrationDialog.obj
 0002:00019aa8       ??_C@_1CK@ENKLEDHH@?$AAM?$AAM?$AAE?$AAX?$AAT?$AA?5?$AAM?$AAM?$AAX?$AA?5?$AAT?$AAe?$AAc?$AAh?$AAn@ 00501aa8     DatabaseAdministrationDialog.obj
 0002:00019ad4       ??_C@_1CK@HBCAMJMD@?$AAN?$AAO?$AAW?$AA3?$AAD?$AA?5?$AAS?$AAu?$AAp?$AAp?$AAo?$AAr?$AAt?$AA?5?$AA3@ 00501ad4     DatabaseAdministrationDialog.obj
 0002:00019b00       ??_C@_1DI@IMGCPOPM@?$AAN?$AAO?$AAW?$AA3?$AAD?$AAE?$AAX?$AAT?$AA?5?$AAS?$AAu?$AAp?$AAp?$AAo?$AAr@ 00501b00     DatabaseAdministrationDialog.obj
 0002:00019b38       ??_C@_1DI@MLAGAJCM@?$AAS?$AAS?$AAE?$AA3?$AA?5?$AAS?$AAt?$AAr?$AAe?$AAa?$AAm?$AAi?$AAn?$AAg?$AA?5@ 00501b38     DatabaseAdministrationDialog.obj
 0002:00019b70       ??_C@_1CO@GGAMKAFG@?$AAE?$AAS?$AAT?$AA?5?$AAE?$AAn?$AAh?$AAa?$AAn?$AAc?$AAe?$AAd?$AA?5?$AAS?$AAp@ 00501b70     DatabaseAdministrationDialog.obj
 0002:00019ba0       ??_C@_1DM@LLBADBKB@?$AAC?$AAX?$AA1?$AA6?$AA?5?$AAC?$AAo?$AAm?$AAp?$AAa?$AAr?$AAe?$AA?5?$AAE?$AAx@ 00501ba0     DatabaseAdministrationDialog.obj
 0002:00019bdc       ??_C@_1BI@MIBPDLEE@?$AAC?$AAa?$AAc?$AAh?$AAe?$AA?5?$AAL?$AAe?$AAv?$AAe?$AAl@ 00501bdc     DatabaseAdministrationDialog.obj
 0002:00019bf4       ??_C@_1BM@KPEJKMDE@?$AAU?$AAn?$AAi?$AAf?$AAi?$AAe?$AAd?$AA?5?$AAC?$AAa?$AAc?$AAh?$AAe@ 00501bf4     DatabaseAdministrationDialog.obj
 0002:00019c10       ??_C@_1BE@LNDGLBGH@?$AAC?$AAo?$AAd?$AAe?$AA?5?$AAS?$AAi?$AAz?$AAe@ 00501c10     DatabaseAdministrationDialog.obj
 0002:00019c24       ??_C@_1BG@MKPFNFPI@?$AAC?$AAo?$AAd?$AAe?$AA?5?$AAW?$AAi?$AAd?$AAt?$AAh@ 00501c24     DatabaseAdministrationDialog.obj
 0002:00019c3c       ??_C@_1CG@BEKHDDBE@?$AAC?$AAo?$AAd?$AAe?$AA?5?$AAA?$AAs?$AAs?$AAo?$AAc?$AAi?$AAa?$AAt?$AAi?$AAv@ 00501c3c     DatabaseAdministrationDialog.obj
 0002:00019c64       ??_C@_1BE@LKNELEPI@?$AAD?$AAa?$AAt?$AAa?$AA?5?$AAS?$AAi?$AAz?$AAe@ 00501c64     DatabaseAdministrationDialog.obj
 0002:00019c78       ??_C@_1BG@EMEGLAEA@?$AAD?$AAa?$AAt?$AAa?$AA?5?$AAW?$AAi?$AAd?$AAt?$AAh@ 00501c78     DatabaseAdministrationDialog.obj
 0002:00019c90       ??_C@_1CG@OPKDILGD@?$AAD?$AAa?$AAt?$AAa?$AA?5?$AAA?$AAs?$AAs?$AAo?$AAc?$AAi?$AAa?$AAt?$AAi?$AAv@ 00501c90     DatabaseAdministrationDialog.obj
 0002:00019cb8       ??_C@_1BK@OEODENFJ@?$AAU?$AAn?$AAi?$AAf?$AAi?$AAe?$AAd?$AA?5?$AAS?$AAi?$AAz?$AAe@ 00501cb8     DatabaseAdministrationDialog.obj
 0002:00019cd4       ??_C@_1BM@DPDLCJGH@?$AAU?$AAn?$AAi?$AAf?$AAi?$AAe?$AAd?$AA?5?$AAW?$AAi?$AAd?$AAt?$AAh@ 00501cd4     DatabaseAdministrationDialog.obj
 0002:00019cf0       ??_C@_1CM@CDFJKDKE@?$AAU?$AAn?$AAi?$AAf?$AAi?$AAe?$AAd?$AA?5?$AAA?$AAs?$AAs?$AAo?$AAc?$AAi?$AAa@ 00501cf0     DatabaseAdministrationDialog.obj
 0002:00019d1c       ??_C@_1CA@IDDEDOHK@?$AAC?$AAo?$AAd?$AAe?$AA?5?$AAE?$AAn?$AAt?$AAr?$AAi?$AAe?$AAs?$AA?5?$AA4?$AAK@ 00501d1c     DatabaseAdministrationDialog.obj
 0002:00019d3c       ??_C@_1CM@JPNNFABK@?$AAC?$AAo?$AAd?$AAe?$AA?5?$AAA?$AAs?$AAs?$AAo?$AAc?$AAi?$AAa?$AAt?$AAi?$AAv@ 00501d3c     DatabaseAdministrationDialog.obj
 0002:00019d68       ??_C@_1CA@KGFPGBKG@?$AAC?$AAo?$AAd?$AAe?$AA?5?$AAE?$AAn?$AAt?$AAr?$AAi?$AAe?$AAs?$AA?5?$AA4?$AAM@ 00501d68     DatabaseAdministrationDialog.obj
 0002:00019d88       ??_C@_1CM@LKLGAPMG@?$AAC?$AAo?$AAd?$AAe?$AA?5?$AAA?$AAs?$AAs?$AAo?$AAc?$AAi?$AAa?$AAt?$AAi?$AAv@ 00501d88     DatabaseAdministrationDialog.obj
 0002:00019db4       ??_C@_1CA@LLFODPNA@?$AAD?$AAa?$AAt?$AAa?$AA?5?$AAE?$AAn?$AAt?$AAr?$AAi?$AAe?$AAs?$AA?5?$AA4?$AAK@ 00501db4     DatabaseAdministrationDialog.obj
 0002:00019dd4       ??_C@_1CM@JPLOCFNA@?$AAD?$AAa?$AAt?$AAa?$AA?5?$AAA?$AAs?$AAs?$AAo?$AAc?$AAi?$AAa?$AAt?$AAi?$AAv@ 00501dd4     DatabaseAdministrationDialog.obj
 0002:00019e00       ??_C@_1CA@JODFGAAM@?$AAD?$AAa?$AAt?$AAa?$AA?5?$AAE?$AAn?$AAt?$AAr?$AAi?$AAe?$AAs?$AA?5?$AA4?$AAM@ 00501e00     DatabaseAdministrationDialog.obj
 0002:00019e20       ??_C@_1CM@LKNFHKAM@?$AAD?$AAa?$AAt?$AAa?$AA?5?$AAA?$AAs?$AAs?$AAo?$AAc?$AAi?$AAa?$AAt?$AAi?$AAv@ 00501e20     DatabaseAdministrationDialog.obj
 0002:00019e4c       ??_C@_1CG@JKDMJNOL@?$AAU?$AAn?$AAi?$AAf?$AAi?$AAe?$AAd?$AA?5?$AAE?$AAn?$AAt?$AAr?$AAi?$AAe?$AAs@ 00501e4c     DatabaseAdministrationDialog.obj
 0002:00019e74       ??_C@_1DC@BDIMPGPO@?$AAU?$AAn?$AAi?$AAf?$AAi?$AAe?$AAd?$AA?5?$AAA?$AAs?$AAs?$AAo?$AAc?$AAi?$AAa@ 00501e74     DatabaseAdministrationDialog.obj
 0002:00019ea8       ??_C@_1CG@LPFHMCDH@?$AAU?$AAn?$AAi?$AAf?$AAi?$AAe?$AAd?$AA?5?$AAE?$AAn?$AAt?$AAr?$AAi?$AAe?$AAs@ 00501ea8     DatabaseAdministrationDialog.obj
 0002:00019ed0       ??_C@_1DC@DGOHKJCC@?$AAU?$AAn?$AAi?$AAf?$AAi?$AAe?$AAd?$AA?5?$AAA?$AAs?$AAs?$AAo?$AAc?$AAi?$AAa@ 00501ed0     DatabaseAdministrationDialog.obj
 0002:00019f04       ??_C@_1BI@CEJELPIO@?$AAF?$AAr?$AAe?$AAe?$AA?5?$AAM?$AAe?$AAm?$AAo?$AAr?$AAy@ 00501f04     DatabaseAdministrationDialog.obj
 0002:00019f1c       ??_C@_1CE@MBIHPOJG@?$AAM?$AAa?$AAx?$AAi?$AAm?$AAu?$AAm?$AA?5?$AAS?$AAw?$AAa?$AAp?$AA?5?$AAF?$AAi@ 00501f1c     DatabaseAdministrationDialog.obj
 0002:00019f40       ??_C@_1BO@LNEJAIP@?$AAF?$AAr?$AAe?$AAe?$AA?5?$AAS?$AAw?$AAa?$AAp?$AA?5?$AAF?$AAi?$AAl?$AAe@ 00501f40     DatabaseAdministrationDialog.obj
 0002:00019f60       ??_C@_1BI@ILAFPOCN@?$AAD?$AAi?$AAs?$AAk?$AA?5?$AAN?$AAu?$AAm?$AAb?$AAe?$AAr@ 00501f60     DatabaseAdministrationDialog.obj
 0002:00019f78       ??_C@_1BC@HFKOLGKG@?$AAC?$AAa?$AAp?$AAa?$AAc?$AAi?$AAt?$AAy@ 00501f78     DatabaseAdministrationDialog.obj
 0002:00019f8c       ??_C@_1BE@LNLHDBCO@?$AAD?$AAi?$AAs?$AAk?$AA?5?$AAT?$AAy?$AAp?$AAe@ 00501f8c     DatabaseAdministrationDialog.obj
 0002:00019fa0       ??_C@_1CE@PLDFJCH@?$AAF?$AAi?$AAr?$AAm?$AAw?$AAa?$AAr?$AAe?$AA?5?$AAR?$AAe?$AAv?$AAi?$AAs?$AAi@ 00501fa0     DatabaseAdministrationDialog.obj
 0002:00019fc4       ??_C@_1CA@HOJIEOKD@?$AAC?$AAo?$AAn?$AAt?$AAr?$AAo?$AAl?$AAl?$AAe?$AAr?$AA?5?$AAR?$AAa?$AAn?$AAk@ 00501fc4     DatabaseAdministrationDialog.obj
 0002:00019fe4       ??_C@_1BK@ILMMGKLO@?$AAM?$AAa?$AAs?$AAt?$AAe?$AAr?$AA?1?$AAS?$AAl?$AAa?$AAv?$AAe@ 00501fe4     DatabaseAdministrationDialog.obj
 0002:0001a000       ??_C@_1CA@CDBMIBMJ@?$AAT?$AAo?$AAt?$AAa?$AAl?$AA?5?$AAC?$AAy?$AAl?$AAi?$AAn?$AAd?$AAe?$AAr?$AAs@ 00502000     DatabaseAdministrationDialog.obj
 0002:0001a020       ??_C@_1BI@NPHKIDCK@?$AAT?$AAo?$AAt?$AAa?$AAl?$AA?5?$AAH?$AAe?$AAa?$AAd?$AAs@ 00502020     DatabaseAdministrationDialog.obj
 0002:0001a038       ??_C@_1CE@JHHFGMBM@?$AAS?$AAe?$AAc?$AAt?$AAo?$AAr?$AAs?$AA?5?$AAP?$AAe?$AAr?$AA?5?$AAT?$AAr?$AAa@ 00502038     DatabaseAdministrationDialog.obj
 0002:0001a05c       ??_C@_1BI@CKAIEFDB@?$AAB?$AAu?$AAf?$AAf?$AAe?$AAr?$AA?5?$AAS?$AAi?$AAz?$AAe@ 0050205c     DatabaseAdministrationDialog.obj
 0002:0001a074       ??_C@_1CA@LLFMALM@?$AAS?$AAM?$AAA?$AAR?$AAT?$AA?5?$AAS?$AAu?$AAp?$AAp?$AAo?$AAr?$AAt?$AAe?$AAd@ 00502074     DatabaseAdministrationDialog.obj
 0002:0001a094       ??_C@_1BM@GFDDEKJP@?$AAS?$AAM?$AAA?$AAR?$AAT?$AA?5?$AAE?$AAn?$AAa?$AAb?$AAl?$AAe?$AAd@ 00502094     DatabaseAdministrationDialog.obj
 0002:0001a0b0       ??_C@_1CA@MPFANKJC@?$AAS?$AAM?$AAA?$AAR?$AAT?$AA?5?$AAS?$AAe?$AAl?$AAf?$AA?5?$AAT?$AAe?$AAs?$AAt@ 005020b0     DatabaseAdministrationDialog.obj
 0002:0001a0d0       ??_C@_1O@LLEOLHIK@?$AAL?$AAe?$AAt?$AAt?$AAe?$AAr@ 005020d0     DatabaseAdministrationDialog.obj
 0002:0001a0e0       ??_C@_1BG@EDHPEFOJ@?$AAD?$AAr?$AAi?$AAv?$AAe?$AA?5?$AAT?$AAy?$AAp?$AAe@ 005020e0     DatabaseAdministrationDialog.obj
 0002:0001a0f8       ??_C@_1BK@CLPGBNMM@?$AAP?$AAe?$AAr?$AAc?$AAe?$AAn?$AAt?$AA?5?$AAU?$AAs?$AAe?$AAd@ 005020f8     DatabaseAdministrationDialog.obj
 0002:0001a114       ??_C@_1BG@BPNNABEA@?$AAU?$AAs?$AAe?$AAd?$AA?5?$AAS?$AAp?$AAa?$AAc?$AAe@ 00502114     DatabaseAdministrationDialog.obj
 0002:0001a12c       ??_C@_1BG@EEFNEMJG@?$AAF?$AAr?$AAe?$AAe?$AA?5?$AAS?$AAp?$AAa?$AAc?$AAe@ 0050212c     DatabaseAdministrationDialog.obj
 0002:0001a144       ??_C@_1BI@LAALIIP@?$AAT?$AAo?$AAt?$AAa?$AAl?$AA?5?$AAS?$AAp?$AAa?$AAc?$AAe@ 00502144     DatabaseAdministrationDialog.obj
 0002:0001a15c       ??_C@_1BI@POLLAKPL@?$AAV?$AAo?$AAl?$AAu?$AAm?$AAe?$AA?5?$AAN?$AAa?$AAm?$AAe@ 0050215c     DatabaseAdministrationDialog.obj
 0002:0001a174       ??_C@_1BI@IIMBDECH@?$AAF?$AAi?$AAl?$AAe?$AA?5?$AAS?$AAy?$AAs?$AAt?$AAe?$AAm@ 00502174     DatabaseAdministrationDialog.obj
 0002:0001a18c       ??_C@_1CK@HIJIDFM@?$AAV?$AAo?$AAl?$AAu?$AAm?$AAe?$AA?5?$AAS?$AAe?$AAr?$AAi?$AAa?$AAl?$AA?5?$AAN@ 0050218c     DatabaseAdministrationDialog.obj
 0002:0001a1b8       ??_C@_1CI@MFPCHMCC@?$AAS?$AAe?$AAc?$AAt?$AAo?$AAr?$AAs?$AA?5?$AAP?$AAe?$AAr?$AA?5?$AAC?$AAl?$AAu@ 005021b8     DatabaseAdministrationDialog.obj
 0002:0001a1e0       ??_C@_1CC@JFGLOPDH@?$AAB?$AAy?$AAt?$AAe?$AAs?$AA?5?$AAP?$AAe?$AAr?$AA?5?$AAS?$AAe?$AAc?$AAt?$AAo@ 005021e0     DatabaseAdministrationDialog.obj
 0002:0001a204       ??_C@_1BM@GLGPLKAB@?$AAF?$AAr?$AAe?$AAe?$AA?5?$AAC?$AAl?$AAu?$AAs?$AAt?$AAe?$AAr?$AAs@ 00502204     DatabaseAdministrationDialog.obj
 0002:0001a220       ??_C@_1BO@LAKDACEN@?$AAT?$AAo?$AAt?$AAa?$AAl?$AA?5?$AAC?$AAl?$AAu?$AAs?$AAt?$AAe?$AAr?$AAs@ 00502220     DatabaseAdministrationDialog.obj
 0002:0001a240       ??_C@_1BI@FCCCIGPJ@?$AAP?$AAo?$AAr?$AAt?$AA?5?$AAN?$AAu?$AAm?$AAb?$AAe?$AAr@ 00502240     DatabaseAdministrationDialog.obj
 0002:0001a258       ??_C@_1BK@CLFGGNBA@?$AAM?$AAo?$AAn?$AAi?$AAt?$AAo?$AAr?$AA?5?$AAN?$AAa?$AAm?$AAe@ 00502258     DatabaseAdministrationDialog.obj
 0002:0001a274       ??_C@_1BE@IDKONENM@?$AAP?$AAo?$AAr?$AAt?$AA?5?$AAT?$AAy?$AAp?$AAe@ 00502274     DatabaseAdministrationDialog.obj
 0002:0001a288       ??_C@_1BK@EMOJHOHF@?$AAP?$AAr?$AAo?$AAg?$AAr?$AAa?$AAm?$AA?5?$AAN?$AAa?$AAm?$AAe@ 00502288     DatabaseAdministrationDialog.obj
 0002:0001a2a4       ??_C@_1CA@ODLFEKMB@?$AAS?$AAe?$AAt?$AAt?$AAi?$AAn?$AAg?$AAs?$AA?5?$AAF?$AAo?$AAl?$AAd?$AAe?$AAr@ 005022a4     DatabaseAdministrationDialog.obj
 0002:0001a2c4       ??_C@_1BA@MGKEIBAA@?$AAC?$AAo?$AAm?$AAm?$AAa?$AAn?$AAd@ 005022c4     DatabaseAdministrationDialog.obj
 0002:0001a2d4       ??_C@_1BK@GJEGOOPM@?$AAS?$AAe?$AAr?$AAv?$AAi?$AAc?$AAe?$AA?5?$AAT?$AAy?$AAp?$AAe@ 005022d4     DatabaseAdministrationDialog.obj
 0002:0001a2f0       ??_C@_1M@LAGHHMEN@?$AAS?$AAt?$AAa?$AAt?$AAe@ 005022f0     DatabaseAdministrationDialog.obj
 0002:0001a2fc       ??_C@_1BG@MKIHEBKP@?$AAS?$AAt?$AAa?$AAr?$AAt?$AA?5?$AAM?$AAo?$AAd?$AAe@ 005022fc     DatabaseAdministrationDialog.obj
 0002:0001a314       ??_C@_1BE@KFMPCIAK@?$AAP?$AAa?$AAt?$AAh?$AA?5?$AAN?$AAa?$AAm?$AAe@ 00502314     DatabaseAdministrationDialog.obj
 0002:0001a328       ??_C@_1BG@BDDFLJFG@?$AAS?$AAt?$AAa?$AAr?$AAt?$AA?5?$AAN?$AAa?$AAm?$AAe@ 00502328     DatabaseAdministrationDialog.obj
 0002:0001a340       ??_C@_1O@BFPJGEIB@?$AAM?$AAe?$AAm?$AAo?$AAr?$AAy@ 00502340     DatabaseAdministrationDialog.obj
 0002:0001a350       ??_C@_1BC@LJMDACDF@?$AAM?$AAo?$AAd?$AAi?$AAf?$AAi?$AAe?$AAd@ 00502350     DatabaseAdministrationDialog.obj
 0002:0001a364       ??_C@_1BE@OLNDECLC@?$AAF?$AAi?$AAl?$AAe?$AA?5?$AAS?$AAi?$AAz?$AAe@ 00502364     DatabaseAdministrationDialog.obj
 0002:0001a378       ??_C@_1BE@DNDHOCGP@?$AAD?$AAi?$AAr?$AAe?$AAc?$AAt?$AAo?$AAr?$AAy@ 00502378     DatabaseAdministrationDialog.obj
 0002:0001a38c       ??_C@_1BK@DMFAFGGJ@?$AAD?$AAi?$AAs?$AAp?$AAl?$AAa?$AAy?$AA?5?$AAN?$AAa?$AAm?$AAe@ 0050238c     DatabaseAdministrationDialog.obj
 0002:0001a3a8       ??_C@_1CC@HFFLDLCB@?$AAM?$AAa?$AAn?$AAu?$AAf?$AAa?$AAc?$AAt?$AAu?$AAr?$AAe?$AA?5?$AAD?$AAa?$AAt@ 005023a8     DatabaseAdministrationDialog.obj
 0002:0001a3cc       ??_C@_1BK@CDDGHFKH@?$AAD?$AAi?$AAs?$AAp?$AAl?$AAa?$AAy?$AA?5?$AAS?$AAi?$AAz?$AAe@ 005023cc     DatabaseAdministrationDialog.obj
 0002:0001a3e8       ??_C@_1BK@BMMKHMJD@?$AAD?$AAi?$AAs?$AAp?$AAl?$AAa?$AAy?$AA?5?$AAT?$AAy?$AAp?$AAe@ 005023e8     DatabaseAdministrationDialog.obj
 0002:0001a404       ??_C@_1CG@DOPJNNGK@?$AAS?$AAu?$AAp?$AAp?$AAo?$AAr?$AAt?$AAe?$AAd?$AA?5?$AAF?$AAe?$AAa?$AAt?$AAu@ 00502404     DatabaseAdministrationDialog.obj
 0002:0001a42c       ??_C@_1CG@JNLIFPPI@?$AAD?$AAi?$AAs?$AAp?$AAl?$AAa?$AAy?$AA?5?$AAR?$AAe?$AAs?$AAo?$AAl?$AAu?$AAt@ 0050242c     DatabaseAdministrationDialog.obj
 0002:0001a454       ??_C@_1BI@FIMAHIKJ@?$AAA?$AAd?$AAa?$AAp?$AAt?$AAe?$AAr?$AA?5?$AAR?$AAA?$AAM@ 00502454     DatabaseAdministrationDialog.obj
 0002:0001a46c       ??_C@_1BK@NHMDBJDF@?$AAC?$AAo?$AAl?$AAo?$AAu?$AAr?$AA?5?$AAD?$AAe?$AAp?$AAt?$AAh@ 0050246c     DatabaseAdministrationDialog.obj
 0002:0001a488       ??_C@_1CI@PKEHBJAG@?$AAV?$AAe?$AAr?$AAt?$AAi?$AAc?$AAa?$AAl?$AA?5?$AAR?$AAe?$AAs?$AAo?$AAl?$AAu@ 00502488     DatabaseAdministrationDialog.obj
 0002:0001a4b0       ??_C@_1CK@CGLGAGBO@?$AAC?$AAu?$AAr?$AAr?$AAe?$AAn?$AAt?$AA?5?$AAR?$AAe?$AAf?$AAr?$AAe?$AAs?$AAh@ 005024b0     DatabaseAdministrationDialog.obj
 0002:0001a4dc       ??_C@_1CA@LLMJKDDB@?$AAV?$AAi?$AAd?$AAe?$AAo?$AA?5?$AAP?$AAr?$AAo?$AAc?$AAe?$AAs?$AAs?$AAo?$AAr@ 005024dc     DatabaseAdministrationDialog.obj
 0002:0001a4fc       ??_C@_1CC@IDOFGIKN@?$AAA?$AAd?$AAa?$AAp?$AAt?$AAe?$AAr?$AA?5?$AAD?$AAA?$AAC?$AA?5?$AAT?$AAy?$AAp@ 005024fc     DatabaseAdministrationDialog.obj
 0002:0001a520       ??_C@_1BG@EIHPFLIP@?$AAA?$AAd?$AAa?$AAp?$AAt?$AAe?$AAr?$AA?5?$AAI?$AAD@ 00502520     DatabaseAdministrationDialog.obj
 0002:0001a538       ??_C@_19JHFOIBCH@?$AAB?$AAI?$AAO?$AAS@ 00502538     DatabaseAdministrationDialog.obj
 0002:0001a544       ??_C@_1BO@MDJJLGEM@?$AAV?$AAa?$AAr?$AAi?$AAa?$AAb?$AAl?$AAe?$AA?5?$AAV?$AAa?$AAl?$AAu?$AAe@ 00502544     DatabaseAdministrationDialog.obj
 0002:0001a564       ??_C@_1BI@HBBHDNBJ@?$AAO?$AAb?$AAj?$AAe?$AAc?$AAt?$AA?5?$AAT?$AAy?$AAp?$AAe@ 00502564     DatabaseAdministrationDialog.obj
 0002:0001a57c       ??_C@_1BA@NJGBIJGM@?$AAT?$AAr?$AAu?$AAs?$AAt?$AAe?$AAe@ 0050257c     DatabaseAdministrationDialog.obj
 0002:0001a58c       ??_C@_1BC@BDJMFACG@?$AAA?$AAC?$AAE?$AA?5?$AAT?$AAy?$AAp?$AAe@ 0050258c     DatabaseAdministrationDialog.obj
 0002:0001a5a0       ??_C@_1BE@NECGHEP@?$AAA?$AAC?$AAE?$AA?5?$AAF?$AAl?$AAa?$AAg?$AAs@ 005025a0     DatabaseAdministrationDialog.obj
 0002:0001a5b4       ??_C@_1BI@GNPHMLLM@?$AAA?$AAc?$AAc?$AAe?$AAs?$AAs?$AA?5?$AAM?$AAa?$AAs?$AAk@ 005025b4     DatabaseAdministrationDialog.obj
 0002:0001a5cc       ??_C@_1M@IOCGMLIH@?$AAO?$AAw?$AAn?$AAe?$AAr@ 005025cc     DatabaseAdministrationDialog.obj
 0002:0001a5d8       ??_C@_1CM@EOAOPPGL@?$AAF?$AAi?$AAr?$AAs?$AAt?$AA?5?$AAL?$AAo?$AAg?$AAo?$AAn?$AA?5?$AAT?$AAi?$AAm@ 005025d8     DatabaseAdministrationDialog.obj
 0002:0001a604       ??_C@_1CK@OPGOODPB@?$AAL?$AAa?$AAs?$AAt?$AA?5?$AAL?$AAo?$AAg?$AAo?$AAn?$AA?5?$AAT?$AAi?$AAm?$AAe@ 00502604     DatabaseAdministrationDialog.obj
 0002:0001a630       ??_C@_1BO@BJADPHJO@?$AAC?$AAo?$AAn?$AAs?$AAo?$AAl?$AAe?$AA?5?$AAL?$AAo?$AAg?$AAo?$AAn?$AAs@ 00502630     DatabaseAdministrationDialog.obj
 0002:0001a650       ??_C@_1BM@CFACFCGC@?$AAR?$AAe?$AAm?$AAo?$AAt?$AAe?$AA?5?$AAL?$AAo?$AAg?$AAo?$AAn?$AAs@ 00502650     DatabaseAdministrationDialog.obj
 0002:0001a66c       ??_C@_1BK@LDNFPPIK@?$AAO?$AAt?$AAh?$AAe?$AAr?$AA?5?$AAL?$AAo?$AAg?$AAo?$AAn?$AAs@ 0050266c     DatabaseAdministrationDialog.obj
 0002:0001a688       ??_C@_1BE@PELFGBHM@?$AAF?$AAi?$AAl?$AAe?$AA?5?$AAN?$AAa?$AAm?$AAe@ 00502688     DatabaseAdministrationDialog.obj
 0002:0001a69c       ??_C@_1BE@BLGBFLKJ@?$AAF?$AAi?$AAl?$AAe?$AA?5?$AAP?$AAa?$AAt?$AAh@ 0050269c     DatabaseAdministrationDialog.obj
 0002:0001a6b0       ??_C@_1BK@HFIINNCE@?$AAF?$AAi?$AAl?$AAe?$AA?5?$AAV?$AAe?$AAr?$AAs?$AAi?$AAo?$AAn@ 005026b0     DatabaseAdministrationDialog.obj
 0002:0001a6cc       ??_C@_1BE@CCMLAJPM@?$AAP?$AAu?$AAb?$AAl?$AAi?$AAs?$AAh?$AAe?$AAr@ 005026cc     DatabaseAdministrationDialog.obj
 0002:0001a6e0       ??_C@_1CM@EHPOHHBH@?$AAF?$AAi?$AAr?$AAs?$AAt?$AA?5?$AAS?$AAt?$AAa?$AAr?$AAt?$AA?5?$AAT?$AAi?$AAm@ 005026e0     DatabaseAdministrationDialog.obj
 0002:0001a70c       ??_C@_1CK@OGJOGLIN@?$AAL?$AAa?$AAs?$AAt?$AA?5?$AAS?$AAt?$AAa?$AAr?$AAt?$AA?5?$AAT?$AAi?$AAm?$AAe@ 0050270c     DatabaseAdministrationDialog.obj
 0002:0001a738       ??_C@_1CC@BCNOMKAH@?$AAN?$AAu?$AAm?$AAb?$AAe?$AAr?$AA?5?$AAo?$AAf?$AA?5?$AAS?$AAt?$AAa?$AAr?$AAt@ 00502738     DatabaseAdministrationDialog.obj
 0002:0001a75c       ??_C@_1BM@CAEDOGEK@?$AAR?$AAe?$AAm?$AAo?$AAt?$AAe?$AA?5?$AAS?$AAt?$AAa?$AAr?$AAt?$AAs@ 0050275c     DatabaseAdministrationDialog.obj
 0002:0001a778       ??_C@_1BK@LGJEELKC@?$AAO?$AAt?$AAh?$AAe?$AAr?$AA?5?$AAS?$AAt?$AAa?$AAr?$AAt?$AAs@ 00502778     DatabaseAdministrationDialog.obj
 0002:0001a794       ??_C@_1BA@LGIHAEBK@?$AAC?$AAo?$AAm?$AAp?$AAa?$AAn?$AAy@ 00502794     DatabaseAdministrationDialog.obj
 0002:0001a7a4       ??_C@_1CI@LHBAIAGI@?$AAD?$AAr?$AAi?$AAv?$AAe?$AAr?$AA?5?$AAO?$AAD?$AAB?$AAC?$AA?5?$AAV?$AAe?$AAr@ 005027a4     DatabaseAdministrationDialog.obj
 0002:0001a7cc       ??_C@_1BC@FOHJDELC@?$AAD?$AAS?$AAN?$AA?5?$AAT?$AAy?$AAp?$AAe@ 005027cc     DatabaseAdministrationDialog.obj
 0002:0001a7e0       ??_C@_17MGNLLJNG@?$AAD?$AAS?$AAN@ 005027e0     DatabaseAdministrationDialog.obj
 0002:0001a7e8       ??_C@_1BG@CINJNAAO@?$AAI?$AAt?$AAe?$AAm?$AA?5?$AAC?$AAl?$AAa?$AAs?$AAs@ 005027e8     DatabaseAdministrationDialog.obj
 0002:0001a800       ??_C@_1BE@LLAAJCEG@?$AAI?$AAt?$AAe?$AAm?$AA?5?$AAN?$AAa?$AAm?$AAe@ 00502800     DatabaseAdministrationDialog.obj
 0002:0001a814       ??_C@_1BG@HBLCDPNN@?$AAI?$AAt?$AAe?$AAm?$AA?5?$AAV?$AAa?$AAl?$AAu?$AAe@ 00502814     DatabaseAdministrationDialog.obj
 0002:0001a82c       ??_C@_1BO@IKOCCFON@?$AAS?$AAM?$AAB?$AAI?$AAO?$AAS?$AA?5?$AAV?$AAe?$AAr?$AAs?$AAi?$AAo?$AAn@ 0050282c     DatabaseAdministrationDialog.obj
 0002:0001a84c       ??_C@_1BK@ICGHELB@?$AAB?$AAo?$AAa?$AAr?$AAd?$AA?5?$AAN?$AAu?$AAm?$AAb?$AAe?$AAr@ 0050284c     DatabaseAdministrationDialog.obj
 0002:0001a868       ??_C@_1CE@FNBGHBM@?$AAC?$AAo?$AAn?$AAt?$AAr?$AAo?$AAl?$AAl?$AAe?$AAr?$AA?5?$AAN?$AAu?$AAm?$AAb@ 00502868     DatabaseAdministrationDialog.obj
 0002:0001a88c       ??_C@_1BM@DOFEKMJL@?$AAM?$AAo?$AAd?$AAu?$AAl?$AAe?$AA?5?$AAN?$AAu?$AAm?$AAb?$AAe?$AAr@ 0050288c     DatabaseAdministrationDialog.obj
 0002:0001a8a8       ??_C@_1BK@PLNKMILC@?$AAC?$AAa?$AAc?$AAh?$AAe?$AA?5?$AAN?$AAu?$AAm?$AAb?$AAe?$AAr@ 005028a8     DatabaseAdministrationDialog.obj
 0002:0001a8c4       ??_C@_1BI@GFNDCPBJ@?$AAS?$AAl?$AAo?$AAt?$AA?5?$AAN?$AAu?$AAm?$AAb?$AAe?$AAr@ 005028c4     DatabaseAdministrationDialog.obj
 0002:0001a8dc       ??_C@_1BK@LNNMLDKP@?$AAA?$AAr?$AAr?$AAa?$AAy?$AA?5?$AAN?$AAu?$AAm?$AAb?$AAe?$AAr@ 005028dc     DatabaseAdministrationDialog.obj
 0002:0001a8f8       ??_C@_1BM@OEPHODOP@?$AAD?$AAe?$AAv?$AAi?$AAc?$AAe?$AA?5?$AAN?$AAu?$AAm?$AAb?$AAe?$AAr@ 005028f8     DatabaseAdministrationDialog.obj
 0002:0001a914       ??_C@_1O@MPKBHDFA@?$AAP?$AAo?$AAl?$AAi?$AAc?$AAy@ 00502914     DatabaseAdministrationDialog.obj
 0002:0001a924       ??_C@_1CC@JNIEBFIL@?$AAS?$AAe?$AAc?$AAu?$AAr?$AAi?$AAt?$AAy?$AA?5?$AAS?$AAe?$AAt?$AAt?$AAi?$AAn@ 00502924     DatabaseAdministrationDialog.obj
 0002:0001a948       ??_C@_1BI@OCFPCKMA@?$AAS?$AAe?$AAr?$AAv?$AAe?$AAr?$AA?5?$AAN?$AAa?$AAm?$AAe@ 00502948     DatabaseAdministrationDialog.obj
 0002:0001a960       ??_C@_1BG@IPPNEGOM@?$AAR?$AAe?$AAa?$AAl?$AAm?$AA?5?$AAN?$AAa?$AAm?$AAe@ 00502960     DatabaseAdministrationDialog.obj
 0002:0001a978       ??_C@_1BG@PAFMLDMC@?$AAS?$AAt?$AAa?$AAr?$AAt?$AA?5?$AAT?$AAi?$AAm?$AAe@ 00502978     DatabaseAdministrationDialog.obj
 0002:0001a990       ??_C@_1BC@JFNJAHME@?$AAE?$AAn?$AAd?$AA?5?$AAT?$AAi?$AAm?$AAe@ 00502990     DatabaseAdministrationDialog.obj
 0002:0001a9a4       ??_C@_1BG@PDBFAADJ@?$AAR?$AAe?$AAn?$AAe?$AAw?$AA?5?$AAT?$AAi?$AAm?$AAe@ 005029a4     DatabaseAdministrationDialog.obj
 0002:0001a9bc       ??_C@_1CA@JLIKAECP@?$AAE?$AAn?$AAc?$AAr?$AAy?$AAp?$AAt?$AAi?$AAo?$AAn?$AA?5?$AAT?$AAy?$AAp?$AAe@ 005029bc     DatabaseAdministrationDialog.obj
 0002:0001a9dc       ??_C@_1BK@FIEPIJJF@?$AAT?$AAi?$AAc?$AAk?$AAe?$AAt?$AA?5?$AAF?$AAl?$AAa?$AAg?$AAs@ 005029dc     DatabaseAdministrationDialog.obj
 0002:0001a9f8       ??_C@_1O@NPFKIHMF@?$AAS?$AAu?$AAb?$AAk?$AAe?$AAy@ 005029f8     DatabaseAdministrationDialog.obj
 0002:0001aa08       ??_C@_1BI@LKMBJIBH@?$AAD?$AAe?$AAs?$AAt?$AAi?$AAn?$AAa?$AAt?$AAi?$AAo?$AAn@ 00502a08     DatabaseAdministrationDialog.obj
 0002:0001aa20       ??_C@_1BA@GLEDMPLM@?$AAN?$AAe?$AAt?$AAm?$AAa?$AAs?$AAk@ 00502a20     DatabaseAdministrationDialog.obj
 0002:0001aa30       ??_C@_1BC@KBJONCKJ@?$AAN?$AAe?$AAx?$AAt?$AA?5?$AAH?$AAo?$AAp@ 00502a30     DatabaseAdministrationDialog.obj
 0002:0001aa44       ??_C@_1BE@EKPAFMCP@?$AAI?$AAn?$AAt?$AAe?$AAr?$AAf?$AAa?$AAc?$AAe@ 00502a44     DatabaseAdministrationDialog.obj
 0002:0001aa58       ??_C@_1BG@HLBEPINB@?$AAR?$AAo?$AAu?$AAt?$AAe?$AA?5?$AAT?$AAy?$AAp?$AAe@ 00502a58     DatabaseAdministrationDialog.obj
 0002:0001aa70       ??_C@_1BC@FPNDAGHF@?$AAP?$AAr?$AAo?$AAt?$AAo?$AAc?$AAo?$AAl@ 00502a70     DatabaseAdministrationDialog.obj
 0002:0001aa84       ??_C@_17GGODNKDG@?$AAA?$AAg?$AAe@ 00502a84     DatabaseAdministrationDialog.obj
 0002:0001aa8c       ??_C@_0DL@LPFADKDI@DatabaseAdministrationDialog?3?3D@ 00502a8c     DatabaseAdministrationDialog.obj
 0002:0001aac8       ??_C@_0DM@LCPPOHEL@DatabaseAdministrationDialog?3?3?$HO@ 00502ac8     DatabaseAdministrationDialog.obj
 0002:0001ab04       ??_C@_0DH@PLDLKAAB@DatabaseAdministrationDialog?3?3G@ 00502b04     DatabaseAdministrationDialog.obj
 0002:0001ab3c       ??_C@_1BE@FCDPLFLH@?$AAp?$AAS?$AAe?$AAt?$AAt?$AAi?$AAn?$AAg?$AAs@ 00502b3c     DatabaseAdministrationDialog.obj
 0002:0001ab50       ??_C@_1BC@HHHBPPOE@?$AA?$CF?$AA?$CF?$AA1?$AA?3?$AA?5?$AA?$CF?$AA?$CF?$AA2@ 00502b50     DatabaseAdministrationDialog.obj
 0002:0001ab64       ??_C@_1BA@PPHPGKPB@?$AAU?$AAn?$AAi?$AAc?$AAo?$AAd?$AAe@ 00502b64     DatabaseAdministrationDialog.obj
 0002:0001ab74       ??_C@_1BK@HDABHCPD@?$AAG?$AAR?$AAA?$AAN?$AAT?$AA?5?$AAP?$AAU?$AAB?$AAL?$AAI?$AAC@ 00502b74     DatabaseAdministrationDialog.obj
 0002:0001ab90       ??_C@_1O@PNLCOBOI@?$AA?4?$AAa?$AAc?$AAc?$AAd?$AAb@ 00502b90     DatabaseAdministrationDialog.obj
 0002:0001aba0       ??_C@_1BE@KALOIPHO@?$AAA?$AAC?$AAE?$AA?4?$AAO?$AAL?$AAE?$AAD?$AAB@ 00502ba0     DatabaseAdministrationDialog.obj
 0002:0001abb4       ??_C@_1DA@LGGAJKIO@?$AAM?$AAi?$AAc?$AAr?$AAo?$AAs?$AAo?$AAf?$AAt?$AA?4?$AAJ?$AAe?$AAt?$AA?4?$AAO@ 00502bb4     DatabaseAdministrationDialog.obj
 0002:0001abe4       ??_C@_1DC@FLJLMHEC@?$AAA?$AAu?$AAt?$AAo?$AAm?$AAa?$AAt?$AAi?$AAc?$AA?5?$AAU?$AAp?$AAd?$AAa?$AAt@ 00502be4     DatabaseAdministrationDialog.obj
 0002:0001ac18       ??_C@_1DK@CDIGJBHC@?$AAC?$AAo?$AAu?$AAn?$AAt?$AAs?$AA?5?$AAo?$AAf?$AA?5?$AAA?$AAu?$AAd?$AAi?$AAt@ 00502c18     DatabaseAdministrationDialog.obj
 0002:0001ac58       ??_C@_1FA@ENNKJJNP@?$AAC?$AAo?$AAu?$AAn?$AAt?$AAs?$AA?5?$AAo?$AAf?$AA?5?$AAC?$AAo?$AAm?$AAp?$AAu@ 00502c58     DatabaseAdministrationDialog.obj
 0002:0001aca8       ??_C@_1DC@EIIFJMIP@?$AAC?$AAo?$AAu?$AAn?$AAt?$AAs?$AA?5?$AAo?$AAf?$AA?5?$AAE?$AAr?$AAr?$AAo?$AAr@ 00502ca8     DatabaseAdministrationDialog.obj
 0002:0001ace0       ??_C@_1EM@EHOAJFGD@?$AAC?$AAo?$AAu?$AAn?$AAt?$AAs?$AA?5?$AAo?$AAf?$AA?5?$AAI?$AAn?$AAs?$AAt?$AAa@ 00502ce0     DatabaseAdministrationDialog.obj
 0002:0001ad2c       ??_C@_1CC@GMMEKOJF@?$AAC?$AAo?$AAu?$AAn?$AAt?$AAs?$AA?5?$AAo?$AAf?$AA?5?$AAM?$AAe?$AAm?$AAo?$AAr@ 00502d2c     DatabaseAdministrationDialog.obj
 0002:0001ad50       ??_C@_1DI@IBFFNNG@?$AAC?$AAo?$AAu?$AAn?$AAt?$AAs?$AA?5?$AAo?$AAf?$AA?5?$AAO?$AAp?$AAe?$AAr?$AAa@ 00502d50     DatabaseAdministrationDialog.obj
 0002:0001ad88       ??_C@_1DG@NNLJINHH@?$AAC?$AAo?$AAu?$AAn?$AAt?$AAs?$AA?5?$AAo?$AAf?$AA?5?$AAR?$AAu?$AAn?$AAn?$AAi@ 00502d88     DatabaseAdministrationDialog.obj
 0002:0001adc0       ??_C@_1CC@GIDBOBAN@?$AAH?$AAa?$AAr?$AAd?$AAw?$AAa?$AAr?$AAe?$AA?5?$AAS?$AAu?$AAm?$AAm?$AAa?$AAr@ 00502dc0     DatabaseAdministrationDialog.obj
 0002:0001ade4       ??_C@_1DI@NNEDJCDP@?$AAL?$AAa?$AAs?$AAt?$AA?5?$AAA?$AAu?$AAd?$AAi?$AAt?$AA?5?$AAD?$AAa?$AAt?$AAe@ 00502de4     DatabaseAdministrationDialog.obj
 0002:0001ae1c       ??_C@_1CG@NLMPHPGC@?$AAL?$AAi?$AAs?$AAt?$AA?5?$AAB?$AAI?$AAO?$AAS?$AA?5?$AAV?$AAe?$AAr?$AAs?$AAi@ 00502e1c     DatabaseAdministrationDialog.obj
 0002:0001ae44       ??_C@_1BM@NHNBEBBC@?$AAL?$AAi?$AAs?$AAt?$AA?5?$AAD?$AAi?$AAs?$AAp?$AAl?$AAa?$AAy?$AAs@ 00502e44     DatabaseAdministrationDialog.obj
 0002:0001ae60       ??_C@_1DA@NNAPLMJE@?$AAL?$AAi?$AAs?$AAt?$AA?5?$AAI?$AAn?$AAs?$AAt?$AAa?$AAl?$AAl?$AAe?$AAd?$AA?5@ 00502e60     DatabaseAdministrationDialog.obj
 0002:0001ae90       ??_C@_1CM@JHFNANKN@?$AAL?$AAi?$AAs?$AAt?$AA?5?$AAN?$AAe?$AAt?$AAw?$AAo?$AAr?$AAk?$AA?5?$AAA?$AAd@ 00502e90     DatabaseAdministrationDialog.obj
 0002:0001aebc       ??_C@_1CI@JFBKGIIG@?$AAL?$AAi?$AAs?$AAt?$AA?5?$AAP?$AAh?$AAy?$AAs?$AAi?$AAc?$AAa?$AAl?$AA?5?$AAD@ 00502ebc     DatabaseAdministrationDialog.obj
 0002:0001aee4       ??_C@_1CA@JMKIBGJO@?$AAL?$AAi?$AAs?$AAt?$AA?5?$AAP?$AAr?$AAo?$AAc?$AAe?$AAs?$AAs?$AAo?$AAr?$AAs@ 00502ee4     DatabaseAdministrationDialog.obj
 0002:0001af04       ??_C@_1BG@FENCBFLN@?$AAL?$AAi?$AAs?$AAt?$AA?5?$AAU?$AAs?$AAe?$AAr?$AAs@ 00502f04     DatabaseAdministrationDialog.obj
 0002:0001af1c       ??_C@_1BI@IGGKAKBP@?$AAp?$AAS?$AAt?$AAa?$AAt?$AAe?$AAm?$AAe?$AAn?$AAt?$AAs@ 00502f1c     DatabaseAdministrationDialog.obj
 0002:0001af38       ??_C@_1HGG@FOCHOLMJ@?$AAC?$AAR?$AAE?$AAA?$AAT?$AAE?$AA?5?$AAP?$AAR?$AAO?$AAC?$AAE?$AAD?$AAU?$AAR@ 00502f38     DatabaseAdministrationDialog.obj
 0002:0001b6a0       ??_C@_1DGK@PAGOBCPB@?$AAC?$AAR?$AAE?$AAA?$AAT?$AAE?$AA?5?$AAP?$AAR?$AAO?$AAC?$AAE?$AAD?$AAU?$AAR@ 005036a0     DatabaseAdministrationDialog.obj
 0002:0001ba0c       ??_C@_0DE@KKKMMLBG@DatabaseAdministrationDialog?3?3A@ 00503a0c     DatabaseAdministrationDialog.obj
 0002:0001ba40       ??_C@_1PE@FIADOOLA@?$AAC?$AAR?$AAE?$AAA?$AAT?$AAE?$AA?5?$AAT?$AAA?$AAB?$AAL?$AAE?$AA?5?$AAA?$AAu@ 00503a40     DatabaseAdministrationDialog.obj
 0002:0001bb34       ??_C@_17DELNEHOF@?$AA?$CF?$AA?$CF?$AA1@ 00503b34     DatabaseAdministrationDialog.obj
 0002:0001bb3c       ??_C@_1M@GJENDMLM@?$AAI?$AAt?$AAe?$AAm?$AA_@ 00503b3c     DatabaseAdministrationDialog.obj
 0002:0001bb48       ??_C@_13HOIJIPNN@?$AA?5@   00503b48     DatabaseAdministrationDialog.obj
 0002:0001bb4c       ??_C@_1BO@IPMMKPAN@?$AA?$CI?$AA?5?$AA2?$AA5?$AA5?$AA?5?$AA?$CJ?$AA?5?$AAN?$AAU?$AAL?$AAL?$AA?0?$AA?5@ 00503b4c     DatabaseAdministrationDialog.obj
 0002:0001bb6c       ??_C@_1BK@OOONMAMB@?$AA?$CI?$AA?5?$AA1?$AA?5?$AA?$CJ?$AA?5?$AAN?$AAU?$AAL?$AAL?$AA?0?$AA?5@ 00503b6c     DatabaseAdministrationDialog.obj
 0002:0001bb88       ??_C@_1BGO@NPNGEALN@?$AAC?$AAO?$AAN?$AAS?$AAT?$AAR?$AAA?$AAI?$AAN?$AAT?$AA?5?$AAF?$AAK?$AA_?$AAA@ 00503b88     DatabaseAdministrationDialog.obj
 0002:0001bcf8       ??_C@_1HK@OIPBHFCB@?$AAC?$AAR?$AAE?$AAA?$AAT?$AAE?$AA?5?$AAI?$AAN?$AAD?$AAE?$AAX?$AA?5?$AAi?$AAd@ 00503cf8     DatabaseAdministrationDialog.obj
 0002:0001bd78       ??_C@_1HK@EMOLPHHG@?$AAC?$AAR?$AAE?$AAA?$AAT?$AAE?$AA?5?$AAI?$AAN?$AAD?$AAE?$AAX?$AA?5?$AAi?$AAd@ 00503d78     DatabaseAdministrationDialog.obj
 0002:0001bdf8       ??_C@_1IO@HGFIEIF@?$AAC?$AAR?$AAE?$AAA?$AAT?$AAE?$AA?5?$AAV?$AAI?$AAE?$AAW?$AA?5?$AAv?$AA_?$AAA@ 00503df8     DatabaseAdministrationDialog.obj
 0002:0001be88       ??_C@_0DG@HCKIMFKC@DatabaseAdministrationDialog?3?3A@ 00503e88     DatabaseAdministrationDialog.obj
 0002:0001bec0       ??_C@_1DI@DPJBPAKH@?$AAC?$AAR?$AAE?$AAA?$AAT?$AAE?$AA?5?$AAT?$AAA?$AAB?$AAL?$AAE?$AA?5?$AAA?$AAu@ 00503ec0     DatabaseAdministrationDialog.obj
 0002:0001bef8       ??_C@_1DA@DDFFIAPK@?$AAA?$AAu?$AAd?$AAi?$AAt?$AA_?$AAI?$AAD?$AA?5?$AA?$CF?$AA?$CF?$AA1?$AA?5?$AAN?$AAO@ 00503ef8     DatabaseAdministrationDialog.obj
 0002:0001bf28       ??_C@_1DI@CCLNPAGB@?$AAA?$AAu?$AAd?$AAi?$AAt?$AA_?$AAG?$AAU?$AAI?$AAD?$AA?5?$AA?$CF?$AA?$CF?$AA1?$AA?$CI@ 00503f28     DatabaseAdministrationDialog.obj
 0002:0001bf60       ??_C@_1DO@PFJDCAJA@?$AAD?$AAB?$AA_?$AAU?$AAs?$AAe?$AAr?$AA_?$AAN?$AAa?$AAm?$AAe?$AA?5?$AA?$CF?$AA?$CF@ 00503f60     DatabaseAdministrationDialog.obj
 0002:0001bfa0       ??_C@_1DE@EBMCPMNM@?$AAD?$AAa?$AAt?$AAa?$AAb?$AAa?$AAs?$AAe?$AA_?$AAL?$AAo?$AAc?$AAa?$AAl?$AA?5@ 00503fa0     DatabaseAdministrationDialog.obj
 0002:0001bfd4       ??_C@_1DA@JJEKKIIC@?$AAD?$AAa?$AAt?$AAa?$AAb?$AAa?$AAs?$AAe?$AA_?$AAU?$AAT?$AAC?$AA?5?$AA?$CF?$AA?$CF@ 00503fd4     DatabaseAdministrationDialog.obj
 0002:0001c004       ??_C@_1DE@BLNOEHBF@?$AAC?$AAo?$AAm?$AAp?$AAu?$AAt?$AAe?$AAr?$AA_?$AAL?$AAo?$AAc?$AAa?$AAl?$AA?5@ 00504004     DatabaseAdministrationDialog.obj
 0002:0001c038       ??_C@_1DA@PINKAFBL@?$AAC?$AAo?$AAm?$AAp?$AAu?$AAt?$AAe?$AAr?$AA_?$AAU?$AAT?$AAC?$AA?5?$AA?$CF?$AA?$CF@ 00504038     DatabaseAdministrationDialog.obj
 0002:0001c068       ??_C@_1CO@DMKKJHAM@?$AAC?$AAo?$AAm?$AAp?$AAu?$AAt?$AAe?$AAr?$AA_?$AAI?$AAD?$AA?5?$AA?$CF?$AA?$CF?$AA1@ 00504068     DatabaseAdministrationDialog.obj
 0002:0001c098       ??_C@_1BAC@KBFLNHLK@?$AAC?$AAO?$AAN?$AAS?$AAT?$AAR?$AAA?$AAI?$AAN?$AAT?$AA?5?$AAF?$AAK?$AA_?$AAA@ 00504098     DatabaseAdministrationDialog.obj
 0002:0001c1a0       ??_C@_1GO@OOGAPKIF@?$AAC?$AAO?$AAN?$AAS?$AAT?$AAR?$AAA?$AAI?$AAN?$AAT?$AA?5?$AAP?$AAK?$AA_?$AAA@ 005041a0     DatabaseAdministrationDialog.obj
 0002:0001c210       ??_C@_1IK@IGNHENEE@?$AAC?$AAR?$AAE?$AAA?$AAT?$AAE?$AA?5?$AAU?$AAN?$AAI?$AAQ?$AAU?$AAE?$AA?5?$AAI@ 00504210     DatabaseAdministrationDialog.obj
 0002:0001c2a0       ??_C@_1IA@KJBOKPCH@?$AAC?$AAR?$AAE?$AAA?$AAT?$AAE?$AA?5?$AAI?$AAN?$AAD?$AAE?$AAX?$AA?5?$AAi?$AAd@ 005042a0     DatabaseAdministrationDialog.obj
 0002:0001c320       ??_C@_0DJ@KJDLNIGG@DatabaseAdministrationDialog?3?3A@ 00504320     DatabaseAdministrationDialog.obj
 0002:0001c35c       ??_C@_1DO@BIJBMPNP@?$AAC?$AAR?$AAE?$AAA?$AAT?$AAE?$AA?5?$AAT?$AAA?$AAB?$AAL?$AAE?$AA?5?$AAC?$AAo@ 0050435c     DatabaseAdministrationDialog.obj
 0002:0001c39c       ??_C@_1DG@EKGGHKCN@?$AAC?$AAo?$AAm?$AAp?$AAu?$AAt?$AAe?$AAr?$AA_?$AAI?$AAD?$AA?5?$AA?$CF?$AA?$CF?$AA1@ 0050439c     DatabaseAdministrationDialog.obj
 0002:0001c3d4       ??_C@_1DO@JIEHBNEO@?$AAC?$AAo?$AAm?$AAp?$AAu?$AAt?$AAe?$AAr?$AA_?$AAG?$AAU?$AAI?$AAD?$AA?5?$AA?$CF@ 005043d4     DatabaseAdministrationDialog.obj
 0002:0001c414       ??_C@_1DC@MGDMINPN@?$AAL?$AAa?$AAs?$AAt?$AA_?$AAA?$AAu?$AAd?$AAi?$AAt?$AA_?$AAI?$AAD?$AA?5?$AA?$CF@ 00504414     DatabaseAdministrationDialog.obj
 0002:0001c448       ??_C@_1DK@DHKGIILP@?$AAM?$AAA?$AAC?$AA_?$AAA?$AAd?$AAd?$AAr?$AAe?$AAs?$AAs?$AA?5?$AA?$CF?$AA?$CF?$AA1@ 00504448     DatabaseAdministrationDialog.obj
 0002:0001c484       ??_C@_1DK@HBBKNLEP@?$AAS?$AAm?$AAb?$AAi?$AAo?$AAs?$AA_?$AAU?$AAU?$AAI?$AAD?$AA?5?$AA?$CF?$AA?$CF?$AA1@ 00504484     DatabaseAdministrationDialog.obj
 0002:0001c4c0       ??_C@_1CM@LGGIPCCK@?$AAA?$AAs?$AAs?$AAe?$AAt?$AA_?$AAT?$AAa?$AAg?$AA?5?$AA?$CF?$AA?$CF?$AA1?$AA?$CI?$AA?5@ 005044c0     DatabaseAdministrationDialog.obj
 0002:0001c4f0       ??_C@_1FI@CDCMAGDD@?$AAF?$AAu?$AAl?$AAl?$AAy?$AA_?$AAQ?$AAu?$AAa?$AAl?$AAi?$AAf?$AAi?$AAe?$AAd@ 005044f0     DatabaseAdministrationDialog.obj
 0002:0001c548       ??_C@_1DG@FGAGIMPF@?$AAS?$AAi?$AAt?$AAe?$AA_?$AAN?$AAa?$AAm?$AAe?$AA?5?$AA?$CF?$AA?$CF?$AA1?$AA?$CI?$AA?5@ 00504548     DatabaseAdministrationDialog.obj
 0002:0001c580       ??_C@_1DK@GAONMAJF@?$AAD?$AAo?$AAm?$AAa?$AAi?$AAn?$AA_?$AAN?$AAa?$AAm?$AAe?$AA?5?$AA?$CF?$AA?$CF?$AA1@ 00504580     DatabaseAdministrationDialog.obj
 0002:0001c5bc       ??_C@_1DO@LOEIECKA@?$AAC?$AAo?$AAm?$AAp?$AAu?$AAt?$AAe?$AAr?$AA_?$AAN?$AAa?$AAm?$AAe?$AA?5?$AA?$CF@ 005045bc     DatabaseAdministrationDialog.obj
 0002:0001c5fc       ??_C@_1DO@OCJGEDMA@?$AAO?$AAS?$AA_?$AAP?$AAr?$AAo?$AAd?$AAu?$AAc?$AAt?$AA_?$AAI?$AAD?$AA?5?$AA?$CF@ 005045fc     DatabaseAdministrationDialog.obj
 0002:0001c640       ??_C@_1EE@PFCPEONK@?$AAO?$AAt?$AAh?$AAe?$AAr?$AA_?$AAI?$AAd?$AAe?$AAn?$AAt?$AAi?$AAf?$AAi?$AAe@ 00504640     DatabaseAdministrationDialog.obj
 0002:0001c684       ??_C@_1DO@KADLNBAG@?$AAW?$AAi?$AAn?$AAA?$AAu?$AAd?$AAi?$AAt?$AA_?$AAG?$AAU?$AAI?$AAD?$AA?5?$AA?$CF@ 00504684     DatabaseAdministrationDialog.obj
 0002:0001c6c8       ??_C@_1HC@HAHGLNKA@?$AAC?$AAO?$AAN?$AAS?$AAT?$AAR?$AAA?$AAI?$AAN?$AAT?$AA?5?$AAP?$AAK?$AA_?$AAC@ 005046c8     DatabaseAdministrationDialog.obj
 0002:0001c740       ??_C@_1IO@BGIDOPPO@?$AAC?$AAR?$AAE?$AAA?$AAT?$AAE?$AA?5?$AAI?$AAN?$AAD?$AAE?$AAX?$AA?5?$AAi?$AAd@ 00504740     DatabaseAdministrationDialog.obj
 0002:0001c7d0       ??_C@_1IG@PCIGHHEP@?$AAC?$AAR?$AAE?$AAA?$AAT?$AAE?$AA?5?$AAI?$AAN?$AAD?$AAE?$AAX?$AA?5?$AAi?$AAd@ 005047d0     DatabaseAdministrationDialog.obj
 0002:0001c858       ??_C@_1JI@GIBKLMOB@?$AAC?$AAR?$AAE?$AAA?$AAT?$AAE?$AA?5?$AAI?$AAN?$AAD?$AAE?$AAX?$AA?5?$AAi?$AAd@ 00504858     DatabaseAdministrationDialog.obj
 0002:0001c8f0       ??_C@_1IO@PLEGPIEC@?$AAC?$AAR?$AAE?$AAA?$AAT?$AAE?$AA?5?$AAI?$AAN?$AAD?$AAE?$AAX?$AA?5?$AAi?$AAd@ 005048f0     DatabaseAdministrationDialog.obj
 0002:0001c980       ??_C@_1JM@MIJANNCM@?$AAC?$AAR?$AAE?$AAA?$AAT?$AAE?$AA?5?$AAU?$AAN?$AAI?$AAQ?$AAU?$AAE?$AA?5?$AAI@ 00504980     DatabaseAdministrationDialog.obj
 0002:0001ca1c       ??_C@_0DH@BBDHMEJL@DatabaseAdministrationDialog?3?3A@ 00504a1c     DatabaseAdministrationDialog.obj
 0002:0001ca54       ??_C@_1DK@GGDBNOJA@?$AAC?$AAR?$AAE?$AAA?$AAT?$AAE?$AA?5?$AAT?$AAA?$AAB?$AAL?$AAE?$AA?5?$AAD?$AAi@ 00504a54     DatabaseAdministrationDialog.obj
 0002:0001ca90       ??_C@_1DG@CMCACLPD@?$AAC?$AAa?$AAt?$AAe?$AAg?$AAo?$AAr?$AAy?$AA_?$AAI?$AAD?$AA?5?$AA?$CF?$AA?$CF?$AA1@ 00504a90     DatabaseAdministrationDialog.obj
 0002:0001cac8       ??_C@_1EA@MLKGKOHH@?$AAC?$AAa?$AAt?$AAe?$AAg?$AAo?$AAr?$AAy?$AA_?$AAN?$AAa?$AAm?$AAe?$AA?5?$AA?$CF@ 00504ac8     DatabaseAdministrationDialog.obj
 0002:0001cb08       ??_C@_1BM@ONOEIHLL@?$AA?$CI?$AA?5?$AA3?$AA6?$AA?5?$AA?$CJ?$AA?5?$AAN?$AAU?$AAL?$AAL?$AA?0?$AA?5@ 00504b08     DatabaseAdministrationDialog.obj
 0002:0001cb28       ??_C@_1HA@GNILBJIJ@?$AAC?$AAO?$AAN?$AAS?$AAT?$AAR?$AAA?$AAI?$AAN?$AAT?$AA?5?$AAP?$AAK?$AA_?$AAD@ 00504b28     DatabaseAdministrationDialog.obj
 0002:0001cb98       ??_C@_1DE@CPJIAJOE@?$AAI?$AAN?$AAS?$AAE?$AAR?$AAT?$AA?5?$AAI?$AAN?$AAT?$AAO?$AA?5?$AAD?$AAi?$AAs@ 00504b98     DatabaseAdministrationDialog.obj
 0002:0001cbd0       ??_C@_1EA@OBCNHFPE@?$AA?5?$AA?$CI?$AA?5?$AAC?$AAa?$AAt?$AAe?$AAg?$AAo?$AAr?$AAy?$AA_?$AAI?$AAD?$AA?0@ 00504bd0     DatabaseAdministrationDialog.obj
 0002:0001cc10       ??_C@_17OENMFDO@?$AA?0?$AA?5?$AA?8@ 00504c10     DatabaseAdministrationDialog.obj
 0002:0001cc18       ??_C@_17LJDCCBKK@?$AA?8?$AA?0?$AA?5@ 00504c18     DatabaseAdministrationDialog.obj
 0002:0001cc20       ??_C@_0CO@LPGKODAB@DatabaseAdministrationDialog?3?3A@ 00504c20     DatabaseAdministrationDialog.obj
 0002:0001cc50       ??_C@_1O@NGALICPD@?$AA?$FL?$AA?$CF?$AA?$CF?$AA1?$AA?$FN?$AA?4@ 00504c50     DatabaseAdministrationDialog.obj
 0002:0001cc60       ??_C@_1FO@HEIJOOEP@?$AAG?$AAR?$AAA?$AAN?$AAT?$AA?5?$AAI?$AAN?$AAS?$AAE?$AAR?$AAT?$AA?5?$AAO?$AAN@ 00504c60     DatabaseAdministrationDialog.obj
 0002:0001ccc0       ??_C@_1FO@KKAHCLAL@?$AAG?$AAR?$AAA?$AAN?$AAT?$AA?5?$AAS?$AAE?$AAL?$AAE?$AAC?$AAT?$AA?5?$AAO?$AAN@ 00504cc0     DatabaseAdministrationDialog.obj
 0002:0001cd20       ??_C@_1IA@DFPNFNKJ@?$AAG?$AAR?$AAA?$AAN?$AAT?$AA?5?$AAU?$AAP?$AAD?$AAA?$AAT?$AAE?$AA?$CI?$AA?5?$AAL@ 00504d20     DatabaseAdministrationDialog.obj
 0002:0001cda0       ??_C@_1FI@DDPOHC@?$AAG?$AAR?$AAA?$AAN?$AAT?$AA?5?$AAI?$AAN?$AAS?$AAE?$AAR?$AAT?$AA?5?$AAO?$AAN@ 00504da0     DatabaseAdministrationDialog.obj
 0002:0001cdf8       ??_C@_1IE@HDNADNKN@?$AAG?$AAR?$AAA?$AAN?$AAT?$AA?5?$AAS?$AAE?$AAL?$AAE?$AAC?$AAT?$AA?5?$AAO?$AAN@ 00504df8     DatabaseAdministrationDialog.obj
 0002:0001ce80       ??_C@_1FE@CDBIPPIK@?$AAG?$AAR?$AAA?$AAN?$AAT?$AA?5?$AAI?$AAN?$AAS?$AAE?$AAR?$AAT?$AA?5?$AAO?$AAN@ 00504e80     DatabaseAdministrationDialog.obj
 0002:0001ced8       ??_C@_1GE@GLACDJPF@?$AAG?$AAR?$AAA?$AAN?$AAT?$AA?5?$AAI?$AAN?$AAS?$AAE?$AAR?$AAT?$AA?5?$AAO?$AAN@ 00504ed8     DatabaseAdministrationDialog.obj
 0002:0001cf40       ??_C@_1GE@FEKPMPBG@?$AAG?$AAR?$AAA?$AAN?$AAT?$AA?5?$AAS?$AAE?$AAL?$AAE?$AAC?$AAT?$AA?5?$AAO?$AAN@ 00504f40     DatabaseAdministrationDialog.obj
 0002:0001cfa8       ??_C@_1HM@HKIAOBFE@?$AAG?$AAR?$AAA?$AAN?$AAT?$AA?5?$AAE?$AAX?$AAE?$AAC?$AAU?$AAT?$AAE?$AA?5?$AAO@ 00504fa8     DatabaseAdministrationDialog.obj
 0002:0001d028       ??_C@_1HG@JPAKKDLG@?$AAG?$AAR?$AAA?$AAN?$AAT?$AA?5?$AAE?$AAX?$AAE?$AAC?$AAU?$AAT?$AAE?$AA?5?$AAO@ 00505028     DatabaseAdministrationDialog.obj
 0002:0001d0a0       ??_C@_1HIM@PPGOMJBL@?$AAC?$AAR?$AAE?$AAA?$AAT?$AAE?$AA?5?$AAP?$AAR?$AAO?$AAC?$AAE?$AAD?$AAU?$AAR@ 005050a0     DatabaseAdministrationDialog.obj
 0002:0001d830       ??_C@_1DKK@NBPJAPOF@?$AAC?$AAR?$AAE?$AAA?$AAT?$AAE?$AA?5?$AAP?$AAR?$AAO?$AAC?$AAE?$AAD?$AAU?$AAR@ 00505830     DatabaseAdministrationDialog.obj
 0002:0001dbe0       ??_C@_1MIO@EJHAGDNA@?$AAC?$AAR?$AAE?$AAA?$AAT?$AAE?$AA?5?$AAP?$AAR?$AAO?$AAC?$AAE?$AAD?$AAU?$AAR@ 00505be0     DatabaseAdministrationDialog.obj
 0002:0001e870       ??_C@_1FJG@BNBPOFJH@?$AAC?$AAR?$AAE?$AAA?$AAT?$AAE?$AA?5?$AAP?$AAR?$AAO?$AAC?$AAE?$AAD?$AAU?$AAR@ 00506870     DatabaseAdministrationDialog.obj
 0002:0001ee08       ??_C@_0CN@HPOANJHH@DatabaseAdministrationDialog?3?3A@ 00506e08     DatabaseAdministrationDialog.obj
 0002:0001ee38       ??_C@_15CIKPHE@?$AAv?$AA_@ 00506e38     DatabaseAdministrationDialog.obj
 0002:0001ee40       ??_C@_1BI@BNBALPGE@?$AAv?$AA_?$AAP?$AAr?$AAo?$AAc?$AAe?$AAs?$AAs?$AAo?$AAr@ 00506e40     DatabaseAdministrationDialog.obj
 0002:0001ee58       ??_C@_13ENNFDPBH@?$AA_@    00506e58     DatabaseAdministrationDialog.obj
 0002:0001ee5c       ??_C@_1CO@EFPIOOOO@?$AA?7?$AAA?$AAu?$AAd?$AAi?$AAt?$AA_?$AAI?$AAD?$AA?5?$AAa?$AAs?$AA?5?$AAA?$AAu@ 00506e5c     DatabaseAdministrationDialog.obj
 0002:0001ee8c       ??_C@_1DM@GOIMAPMF@?$AA?7?$AAR?$AAe?$AAc?$AAo?$AAr?$AAd?$AA_?$AAO?$AAr?$AAd?$AAi?$AAn?$AAa?$AAl@ 00506e8c     DatabaseAdministrationDialog.obj
 0002:0001eec8       ??_C@_1DG@IJHPOCKG@?$AA?7?$AAC?$AAo?$AAm?$AAp?$AAu?$AAt?$AAe?$AAr?$AA_?$AAI?$AAD?$AA?5?$AAa?$AAs@ 00506ec8     DatabaseAdministrationDialog.obj
 0002:0001ef00       ??_C@_19JMDHIDEN@?$AA?5?$AAA?$AAS?$AA?5@ 00506f00     DatabaseAdministrationDialog.obj
 0002:0001ef0c       ??_C@_1BK@FAKCONPC@?$AAC?$AAR?$AAE?$AAA?$AAT?$AAE?$AA?5?$AAV?$AAI?$AAE?$AAW?$AA?5@ 00506f0c     DatabaseAdministrationDialog.obj
 0002:0001ef28       ??_C@_1O@DAJAKJNI@?$AA?5?$AAA?$AAS?$AA?5?$AA?$AN?$AA?6@ 00506f28     DatabaseAdministrationDialog.obj
 0002:0001ef38       ??_C@_1BE@EFNLFNHM@?$AAS?$AAE?$AAL?$AAE?$AAC?$AAT?$AA?5?$AA?$AN?$AA?6@ 00506f38     DatabaseAdministrationDialog.obj
 0002:0001ef4c       ??_C@_1CM@DDLKDGAF@?$AAF?$AAR?$AAO?$AAM?$AA?5?$AAA?$AAu?$AAd?$AAi?$AAt?$AA_?$AAD?$AAa?$AAt?$AAa@ 00506f4c     DatabaseAdministrationDialog.obj
 0002:0001ef78       ??_C@_1CK@DDOIMEGE@?$AAW?$AAH?$AAE?$AAR?$AAE?$AA?5?$AAC?$AAa?$AAt?$AAe?$AAg?$AAo?$AAr?$AAy?$AA_@ 00506f78     DatabaseAdministrationDialog.obj
 0002:0001efa4       ??_C@_0CI@CFAIDPML@DatabaseAdministrationDialog?3?3C@ 00506fa4     DatabaseAdministrationDialog.obj
 0002:0001efcc       ??_C@_1DA@JCAPIDPP@?$AAm?$AA_?$AAS?$AAe?$AAt?$AAt?$AAi?$AAn?$AAg?$AAs?$AA?4?$AAD?$AAa?$AAt?$AAa@ 00506fcc     DatabaseAdministrationDialog.obj
 0002:0001effc       ??_C@_1CA@LIPIJGAI@?$AAm?$AA_?$AAS?$AAe?$AAt?$AAt?$AAi?$AAn?$AAg?$AAs?$AA?4?$AAD?$AAB?$AAM?$AAS@ 00506ffc     DatabaseAdministrationDialog.obj
 0002:0001f01c       ??_C@_1CC@BEJIIJBC@?$AAM?$AAy?$AAS?$AAq?$AAl?$AAD?$AAr?$AAi?$AAv?$AAe?$AAr?$AA?$DN?$AAN?$AAU?$AAL@ 0050701c     DatabaseAdministrationDialog.obj
 0002:0001f040       ??_C@_1CM@NKJMEPAK@?$AAP?$AAo?$AAs?$AAt?$AAg?$AAr?$AAe?$AAS?$AAq?$AAl?$AAD?$AAr?$AAi?$AAv?$AAe@ 00507040     DatabaseAdministrationDialog.obj
 0002:0001f06c       ??_C@_1DI@GEEIPCHB@?$AAI?$AAn?$AA?5?$AAc?$AAo?$AAn?$AAn?$AAe?$AAc?$AAt?$AAi?$AAo?$AAn?$AA?5?$AAs@ 0050706c     DatabaseAdministrationDialog.obj
 0002:0001f0a4       ??_C@_19EEFGDEE@?$AA?4?$AAm?$AAd?$AAb@ 005070a4     DatabaseAdministrationDialog.obj
 0002:0001f0b0       ??_C@_0DD@EBIMHMLH@DatabaseAdministrationDialog?3?3C@ 005070b0     DatabaseAdministrationDialog.obj
 0002:0001f0e4       ??_C@_1M@FADNNGDF@?$AAa?$AAd?$AAm?$AAi?$AAn@ 005070e4     DatabaseAdministrationDialog.obj
 0002:0001f0f0       ??_C@_1EA@EFAABGKE@?$AAC?$AAr?$AAe?$AAa?$AAt?$AAi?$AAn?$AAg?$AA?5?$AAt?$AAh?$AAe?$AA?5?$AAW?$AAi@ 005070f0     DatabaseAdministrationDialog.obj
 0002:0001f130       ??_C@_1DA@EKHGBCJP@?$AAC?$AAr?$AAe?$AAa?$AAt?$AAe?$AAd?$AA?5?$AAd?$AAa?$AAt?$AAa?$AAb?$AAa?$AAs@ 00507130     DatabaseAdministrationDialog.obj
 0002:0001f160       ??_C@_1CC@MJIHFOHD@?$AAC?$AAR?$AAE?$AAA?$AAT?$AAE?$AA?5?$AAD?$AAA?$AAT?$AAA?$AAB?$AAA?$AAS?$AAE@ 00507160     DatabaseAdministrationDialog.obj
 0002:0001f184       ??_C@_19GHEGBKEB@?$AAU?$AAS?$AAE?$AA?5@ 00507184     DatabaseAdministrationDialog.obj
 0002:0001f190       ??_C@_1BG@GIICHEEA@?$AAU?$AAS?$AAE?$AA?5?$AAm?$AAa?$AAs?$AAt?$AAe?$AAr@ 00507190     DatabaseAdministrationDialog.obj
 0002:0001f1a8       ??_C@_1CM@LLPGHEKJ@?$AAD?$AAe?$AAl?$AAe?$AAt?$AAe?$AAi?$AAn?$AAg?$AA?5?$AAo?$AAl?$AAd?$AA?5?$AAa@ 005071a8     DatabaseAdministrationDialog.obj
 0002:0001f1d8       ??_C@_1BGI@CADALAEM@?$AAS?$AAE?$AAL?$AAE?$AAC?$AAT?$AA?5?$AAA?$AAu?$AAd?$AAi?$AAt?$AA_?$AAM?$AAa@ 005071d8     DatabaseAdministrationDialog.obj
 0002:0001f340       ??_C@_1FI@KFNLNLLP@?$AAD?$AAe?$AAl?$AAe?$AAt?$AAe?$AA?5?$AAF?$AAR?$AAO?$AAM?$AA?5?$AAA?$AAu?$AAd@ 00507340     DatabaseAdministrationDialog.obj
 0002:0001f398       ??_C@_1CA@BNLLONDJ@?$AA?5?$AAA?$AAN?$AAD?$AA?5?$AAA?$AAu?$AAd?$AAi?$AAt?$AA_?$AAI?$AAD?$AA?$DM?$AA?5@ 00507398     DatabaseAdministrationDialog.obj
 0002:0001f3b8       ??_C@_1EI@MJJBJPJI@?$AAF?$AAo?$AAu?$AAn?$AAd?$AA?5?$AAo?$AAl?$AAd?$AA?5?$AAa?$AAu?$AAd?$AAi?$AAt@ 005073b8     DatabaseAdministrationDialog.obj
 0002:0001f400       ??_C@_0DK@PDLICPHF@DatabaseAdministrationDialog?3?3G@ 00507400     DatabaseAdministrationDialog.obj
 0002:0001f43c       ??_C@_1BM@OKNCAPKK@?$AAA?$AAU?$AAT?$AAO?$AAI?$AAN?$AAC?$AAR?$AAE?$AAM?$AAE?$AAN?$AAT@ 0050743c     DatabaseAdministrationDialog.obj
 0002:0001f458       ??_C@_1BA@KOIPLMCF@?$AAV?$AAA?$AAR?$AAC?$AAH?$AAA?$AAR@ 00507458     DatabaseAdministrationDialog.obj
 0002:0001f468       ??_C@_1BA@DAEENEGK@?$AAI?$AAN?$AAT?$AAE?$AAG?$AAE?$AAR@ 00507468     DatabaseAdministrationDialog.obj
 0002:0001f478       ??_C@_1M@LHDGBHHA@?$AAS?$AAH?$AAO?$AAR?$AAT@ 00507478     DatabaseAdministrationDialog.obj
 0002:0001f484       ??_C@_1BC@KGJBDKJA@?$AAD?$AAA?$AAT?$AAE?$AAT?$AAI?$AAM?$AAE@ 00507484     DatabaseAdministrationDialog.obj
 0002:0001f498       ??_C@_1BC@IGIPFKNE@?$AAN?$AAV?$AAA?$AAR?$AAC?$AAH?$AAA?$AAR@ 00507498     DatabaseAdministrationDialog.obj
 0002:0001f4ac       ??_C@_1CG@GAADDAGO@?$AAI?$AAN?$AAT?$AA?5?$AAA?$AAU?$AAT?$AAO?$AA_?$AAI?$AAN?$AAC?$AAR?$AAE?$AAM@ 005074ac     DatabaseAdministrationDialog.obj
 0002:0001f4d4       ??_C@_1BK@LNNHJFKE@?$AAi?$AAn?$AAt?$AA?5?$AAI?$AAD?$AAE?$AAN?$AAT?$AAI?$AAT?$AAY@ 005074d4     DatabaseAdministrationDialog.obj
 0002:0001f4f0       ??_C@_1BC@IBGPBDH@?$AAn?$AAv?$AAa?$AAr?$AAc?$AAh?$AAa?$AAr@ 005074f0     DatabaseAdministrationDialog.obj
 0002:0001f508       ??_C@_1EA@HAIKJII@?$AAO?$AAv?$AAe?$AAr?$AAr?$AAi?$AAd?$AAi?$AAn?$AAg?$AA?5?$AA?8?$AA?$CF?$AA?$CF?$AA1@ 00507508     DatabaseAdministrationDialog.obj
 0002:0001f548       ??_C@_1O@EDBLBJGB@?$AAS?$AAE?$AAR?$AAI?$AAA?$AAL@ 00507548     DatabaseAdministrationDialog.obj
 0002:0001f558       ??_C@_1DA@BCKBGPIB@?$AAm?$AA_?$AAS?$AAe?$AAt?$AAt?$AAi?$AAn?$AAg?$AAs?$AA?4?$AAD?$AAB?$AAM?$AAS@ 00507558     DatabaseAdministrationDialog.obj
 0002:0001f588       ??_C@_1DE@KMJAFKBL@?$AAA?$AAU?$AAT?$AAO?$AAI?$AAN?$AAC?$AAR?$AAE?$AAM?$AAE?$AAN?$AAT?$AA?5?$AA?5@ 00507588     DatabaseAdministrationDialog.obj
 0002:0001f5bc       ??_C@_1DE@BLBOPGOK@?$AAS?$AAQ?$AAL?$AA_?$AAC?$AAH?$AAA?$AAR?$AA?5?$AA?5?$AA?5?$AA?5?$AA?5?$AA?5?$AA?5@ 005075bc     DatabaseAdministrationDialog.obj
 0002:0001f5f0       ??_C@_1DE@OKBBKIHC@?$AAS?$AAQ?$AAL?$AA_?$AAI?$AAN?$AAT?$AAE?$AAG?$AAE?$AAR?$AA?5?$AA?5?$AA?5?$AA?5@ 005075f0     DatabaseAdministrationDialog.obj
 0002:0001f624       ??_C@_1DE@PMAKLAGE@?$AAS?$AAQ?$AAL?$AA_?$AAS?$AAM?$AAA?$AAL?$AAL?$AAI?$AAN?$AAT?$AA?5?$AA?5?$AA?5@ 00507624     DatabaseAdministrationDialog.obj
 0002:0001f658       ??_C@_1DE@BAEAGIBI@?$AAS?$AAQ?$AAL?$AA_?$AAT?$AAY?$AAP?$AAE?$AA_?$AAT?$AAI?$AAM?$AAE?$AAS?$AAT@ 00507658     DatabaseAdministrationDialog.obj
 0002:0001f68c       ??_C@_1DE@NBIMFJBA@?$AAS?$AAQ?$AAL?$AA_?$AAV?$AAA?$AAR?$AAC?$AAH?$AAA?$AAR?$AA?5?$AA?5?$AA?5?$AA?5@ 0050768c     DatabaseAdministrationDialog.obj
 0002:0001f6c0       ??_C@_1DE@FKKGEOML@?$AAS?$AAQ?$AAL?$AA_?$AAW?$AAC?$AAH?$AAA?$AAR?$AA?5?$AA?5?$AA?5?$AA?5?$AA?5?$AA?5@ 005076c0     DatabaseAdministrationDialog.obj
 0002:0001f6f4       ??_C@_1DE@MMINAGHM@?$AAA?$AAQ?$AAL?$AA_?$AAW?$AAV?$AAA?$AAR?$AAC?$AAH?$AAA?$AAR?$AA?5?$AA?5?$AA?5@ 005076f4     DatabaseAdministrationDialog.obj
 0002:0001f728       ??_C@_0CM@HKHHHIPE@DatabaseAdministrationDialog?3?3M@ 00507728     DatabaseAdministrationDialog.obj
 0002:0001f754       ??_C@_1BE@OJAOEHGA@?$AAp?$AAS?$AAq?$AAl?$AAQ?$AAu?$AAe?$AAr?$AAy@ 00507754     DatabaseAdministrationDialog.obj
 0002:0001f768       ??_C@_1DFE@MNMDMIFB@?$AAS?$AAE?$AAL?$AAE?$AAC?$AAT?$AA?5?$AAC?$AAo?$AAm?$AAp?$AAu?$AAt?$AAe?$AAr@ 00507768     DatabaseAdministrationDialog.obj
 0002:0001fac0       ??_C@_1DFO@GMNMCGOO@?$AAS?$AAE?$AAL?$AAE?$AAC?$AAT?$AA?5?$AA?$CF?$AA?$CF?$AA1?$AA?$CI?$AA?5?$AAC?$AAo?$AAm@ 00507ac0     DatabaseAdministrationDialog.obj
 0002:0001fe20       ??_C@_1BMM@JODFBKDJ@?$AAS?$AAE?$AAL?$AAE?$AAC?$AAT?$AA?5?$AA?$CF?$AA?$CF?$AA1?$AA?$CI?$AA?5?$AAC?$AAo?$AAm@ 00507e20     DatabaseAdministrationDialog.obj
 0002:0001fff0       ??_C@_1CFG@BGDOJGOA@?$AAS?$AAE?$AAL?$AAE?$AAC?$AAT?$AA?5?$AA?$CF?$AA?$CF?$AA1?$AA?$CI?$AA?5?$AAA?$AAu?$AAd@ 00507ff0     DatabaseAdministrationDialog.obj
 0002:00020248       ??_C@_1CGC@MBBPADGO@?$AAS?$AAE?$AAL?$AAE?$AAC?$AAT?$AA?5?$AA?$CF?$AA?$CF?$AA1?$AA?$CI?$AA?5?$AAA?$AAu?$AAd@ 00508248     DatabaseAdministrationDialog.obj
 0002:000204b0       ??_C@_1CEC@CPMJNOHI@?$AAS?$AAE?$AAL?$AAE?$AAC?$AAT?$AA?5?$AAA?$AAu?$AAd?$AAi?$AAt?$AA_?$AAD?$AAa@ 005084b0     DatabaseAdministrationDialog.obj
 0002:000206f8       ??_C@_1CGI@GFNIAKJC@?$AAS?$AAE?$AAL?$AAE?$AAC?$AAT?$AA?5?$AA?$CF?$AA?$CF?$AA1?$AA?$CI?$AA?5?$AAA?$AAu?$AAd@ 005086f8     DatabaseAdministrationDialog.obj
 0002:00020960       ??_C@_1CGA@LLBKBMNH@?$AAS?$AAE?$AAL?$AAE?$AAC?$AAT?$AA?5?$AA?$CF?$AA?$CF?$AA1?$AA?$CI?$AA?5?$AAA?$AAu?$AAd@ 00508960     DatabaseAdministrationDialog.obj
 0002:00020bc0       ??_C@_1CMC@DBKEINGP@?$AAS?$AAE?$AAL?$AAE?$AAC?$AAT?$AA?5?$AAC?$AAo?$AAm?$AAp?$AAu?$AAt?$AAe?$AAr@ 00508bc0     DatabaseAdministrationDialog.obj
 0002:00020e88       ??_C@_1CJG@FCHMHMPO@?$AAS?$AAE?$AAL?$AAE?$AAC?$AAT?$AA?5?$AAC?$AAo?$AAm?$AAp?$AAu?$AAt?$AAe?$AAr@ 00508e88     DatabaseAdministrationDialog.obj
 0002:00021120       ??_C@_1CEK@NDOLNGEH@?$AAS?$AAE?$AAL?$AAE?$AAC?$AAT?$AA?5?$AAC?$AAo?$AAm?$AAp?$AAu?$AAt?$AAe?$AAr@ 00509120     DatabaseAdministrationDialog.obj
 0002:00021370       ??_C@_1CHO@DKLLEJHM@?$AAS?$AAE?$AAL?$AAE?$AAC?$AAT?$AA?5?$AAC?$AAo?$AAm?$AAp?$AAu?$AAt?$AAe?$AAr@ 00509370     DatabaseAdministrationDialog.obj
 0002:000215f0       ??_C@_1CHK@MKCCNNCJ@?$AAS?$AAE?$AAL?$AAE?$AAC?$AAT?$AA?5?$AAC?$AAo?$AAm?$AAp?$AAu?$AAt?$AAe?$AAr@ 005095f0     DatabaseAdministrationDialog.obj
 0002:00021870       ??_C@_1CNC@GJOJEAFI@?$AAS?$AAE?$AAL?$AAE?$AAC?$AAT?$AA?5?$AAC?$AAo?$AAm?$AAp?$AAu?$AAt?$AAe?$AAr@ 00509870     DatabaseAdministrationDialog.obj
 0002:00021b48       ??_C@_1CGM@KJHGCMPP@?$AAS?$AAE?$AAL?$AAE?$AAC?$AAT?$AA?5?$AAC?$AAo?$AAm?$AAp?$AAu?$AAt?$AAe?$AAr@ 00509b48     DatabaseAdministrationDialog.obj
 0002:00021db8       ??_C@_1CFM@IDAGGJB@?$AAS?$AAE?$AAL?$AAE?$AAC?$AAT?$AA?5?$AAC?$AAo?$AAm?$AAp?$AAu?$AAt?$AAe?$AAr@ 00509db8     DatabaseAdministrationDialog.obj
 0002:00022018       ??_C@_1CMC@DAJBGJIN@?$AAS?$AAE?$AAL?$AAE?$AAC?$AAT?$AA?5?$AAC?$AAo?$AAm?$AAp?$AAu?$AAt?$AAe?$AAr@ 0050a018     DatabaseAdministrationDialog.obj
 0002:000222e0       ??_C@_1LC@PPIOJCIK@?$AA?2?$AAp?$AAa?$AAr?$AA?2?$AAt?$AAr?$AAo?$AAw?$AAd?$AA?2?$AAt?$AAr?$AAg?$AAa@ 0050a2e0     DatabaseAdministrationDialog.obj
 0002:00022394       ??_C@_1BM@NCCDFPJF@?$AA?2?$AAp?$AAa?$AAr?$AA?2?$AAq?$AAc?$AA?2?$AAu?$AAl?$AA?2?$AAb?$AA?5@ 0050a394     DatabaseAdministrationDialog.obj
 0002:000223b0       ??_C@_1DA@ODALNKJC@?$AA?5?$AA?2?$AAb?$AA0?$AA?2?$AAu?$AAl?$AA0?$AA?2?$AAp?$AAa?$AAr?$AA?2?$AAp?$AAa@ 0050a3b0     DatabaseAdministrationDialog.obj
 0002:000223e0       ??_C@_1DM@HEJMCNJM@?$AA?2?$AAt?$AAr?$AAo?$AAw?$AAd?$AA?2?$AAt?$AAr?$AAg?$AAa?$AAp?$AAh?$AA1?$AA0@ 0050a3e0     DatabaseAdministrationDialog.obj
 0002:00022420       ??_C@_1NA@EINKJNJO@?$AA?2?$AAc?$AAl?$AAc?$AAb?$AAp?$AAa?$AAt?$AA1?$AA?2?$AAc?$AAl?$AAb?$AAr?$AAd@ 0050a420     DatabaseAdministrationDialog.obj
 0002:000224f0       ??_C@_1BM@JDKIOCJD@?$AA?2?$AAp?$AAa?$AAr?$AAd?$AA?2?$AAi?$AAn?$AAt?$AAb?$AAl?$AA?$AN?$AA?6@ 0050a4f0     DatabaseAdministrationDialog.obj
 0002:0002250c       ??_C@_17HNFKMHHA@?$AA?2?$AAb?$AA?5@ 0050a50c     DatabaseAdministrationDialog.obj
 0002:00022514       ??_C@_1BG@PHCIPING@?$AA?2?$AAb?$AA0?$AA?2?$AAc?$AAe?$AAl?$AAl?$AA?$AN?$AA?6@ 0050a514     DatabaseAdministrationDialog.obj
 0002:0002252c       ??_C@_1BC@HFHDMENM@?$AA?2?$AAr?$AAo?$AAw?$AA?$AN?$AA?6?$AA?$AN?$AA?6@ 0050a52c     DatabaseAdministrationDialog.obj
 0002:00022540       ??_C@_1BE@HBEABLPC@?$AA?2?$AAc?$AAl?$AAc?$AAb?$AAp?$AAa?$AAt?$AA2@ 0050a540     DatabaseAdministrationDialog.obj
 0002:00022558       ??_C@_1LO@BJECFCN@?$AA?2?$AAc?$AAl?$AAb?$AAr?$AAd?$AAr?$AAl?$AA?2?$AAb?$AAr?$AAd?$AAr?$AAw?$AA1@ 0050a558     DatabaseAdministrationDialog.obj
 0002:00022618       ??_C@_1BC@HFCIIAHE@?$AA?5?$AA?2?$AAc?$AAe?$AAl?$AAl?$AA?$AN?$AA?6@ 0050a618     DatabaseAdministrationDialog.obj
 0002:0002262c       ??_C@_1BE@DPCLJOKJ@?$AA?2?$AAp?$AAa?$AAr?$AAd?$AA?$AN?$AA?6?$AA?$AN?$AA?6@ 0050a62c     DatabaseAdministrationDialog.obj
 0002:00022640       ??_C@_1O@NPGKECFE@?$AAU?$AAs?$AAe?$AAr?$AA?3?$AA?7@ 0050a640     DatabaseAdministrationDialog.obj
 0002:00022650       ??_C@_1M@LBILAIFE@?$AA?2?$AAp?$AAa?$AAr?$AA?5@ 0050a650     DatabaseAdministrationDialog.obj
 0002:0002265c       ??_C@_1O@HKOGDOMJ@?$AAD?$AAa?$AAt?$AAe?$AA?3?$AA?7@ 0050a65c     DatabaseAdministrationDialog.obj
 0002:0002266c       ??_C@_1O@FMEEBJKC@?$AAR?$AAo?$AAw?$AAs?$AA?3?$AA?7@ 0050a66c     DatabaseAdministrationDialog.obj
 0002:0002267c       ??_C@_1BA@KDMOLMFM@?$AA?2?$AAc?$AAe?$AAl?$AAl?$AA?$AN?$AA?6@ 0050a67c     DatabaseAdministrationDialog.obj
 0002:0002268c       ??_C@_1O@LOJBPHCN@?$AA?2?$AAr?$AAo?$AAw?$AA?$AN?$AA?6@ 0050a68c     DatabaseAdministrationDialog.obj
 0002:0002269c       ??_C@_1BC@OFCEKJMA@?$AA?2?$AAp?$AAa?$AAr?$AAd?$AA?2?$AAr?$AA?6@ 0050a69c     DatabaseAdministrationDialog.obj
 0002:000226b0       ??_C@_19PBPFLCIL@?$AA?2?$AAq?$AAc?$AA?5@ 0050a6b0     DatabaseAdministrationDialog.obj
 0002:000226bc       ??_C@_1BM@FHHJLKLC@?$AAG?$AAe?$AAn?$AAe?$AAr?$AAa?$AAt?$AAe?$AAd?$AA?5?$AAb?$AAy?$AA?5@ 0050a6bc     DatabaseAdministrationDialog.obj
 0002:000226d8       ??_C@_1BA@COLMBOIK@?$AA?5?$AA?2?$AAp?$AAa?$AAr?$AA?$AN?$AA?6@ 0050a6d8     DatabaseAdministrationDialog.obj
 0002:000226e8       ??_C@_13EHOOFIKC@?$AA?$HN@ 0050a6e8     DatabaseAdministrationDialog.obj
 0002:000226ec       ??_C@_0CB@IEKPJDBL@TArray?$DMclass?5StaticControl?$DO?3?3Ge@ 0050a6ec     DatabaseAdministrationDialog.obj
 0002:00022710       ??_C@_0CB@FLNEFDND@TArray?$DMclass?5StaticControl?$DO?3?3Se@ 0050a710     DatabaseAdministrationDialog.obj
 0002:00022734       ??_C@_0CE@JEHAHLMG@TArray?$DMclass?5StaticControl?$DO?3?3In@ 0050a734     DatabaseAdministrationDialog.obj
 0002:0002275c       ??_7DatabaseAdministrationDialog@@6B@ 0050a75c     DatabaseAdministrationDialog.obj
 0002:000227ec       ??_C@_0BM@ILCJBDKJ@DeviceInformation?3?3FillData@ 0050a7ec     DeviceInformation.obj
 0002:00022808       ??_C@_1CI@CCFEBEPF@?$AAS?$AAe?$AAt?$AAu?$AAp?$AAD?$AAi?$AAG?$AAe?$AAt?$AAC?$AAl?$AAa?$AAs?$AAs@ 0050a808     DeviceInformation.obj
 0002:00022830       ??_C@_0CD@CKOIHOL@DeviceInformation?3?3GetDeviceSta@ 0050a830     DeviceInformation.obj
 0002:00022854       ??_C@_1BA@MKJEEMNP@?$AAP?$AAo?$AAi?$AAn?$AAt?$AAe?$AAr@ 0050a854     DeviceInformation.obj
 0002:00022868       ??_C@_1EO@HDKMJCBG@?$AAC?$AAM?$AA_?$AAG?$AAe?$AAt?$AA_?$AAD?$AAe?$AAv?$AAN?$AAo?$AAd?$AAe?$AA_@ 0050a868     DeviceInformation.obj
 0002:000228b8       ??_C@_15PMCGDJNJ@?$AAO?$AAK@ 0050a8b8     DeviceInformation.obj
 0002:000228c0       ??_C@_0CB@OPBODBFF@DeviceInformation?3?3GetDriverInf@ 0050a8c0     DeviceInformation.obj
 0002:000228e8       ??_C@_1JE@HMLLAALE@?$AAS?$AAP?$AAD?$AAR?$AAP?$AA_?$AAD?$AAR?$AAI?$AAV?$AAE?$AAR?$AA?5?$AAp?$AAr@ 0050a8e8     DeviceInformation.obj
 0002:00022980       ??_C@_1IG@FEBMKGPJ@?$AAS?$AAe?$AAt?$AAu?$AAp?$AAD?$AAi?$AAG?$AAe?$AAt?$AAD?$AAe?$AAv?$AAi?$AAc@ 0050a980     DeviceInformation.obj
 0002:00022a08       ??_C@_1FA@LOJAGBPI@?$AAS?$AAy?$AAs?$AAt?$AAe?$AAm?$AA?2?$AAC?$AAu?$AAr?$AAr?$AAe?$AAn?$AAt?$AAC@ 0050aa08     DeviceInformation.obj
 0002:00022a58       ??_C@_1BK@IDHMMGND@?$AAP?$AAr?$AAo?$AAv?$AAi?$AAd?$AAe?$AAr?$AAN?$AAa?$AAm?$AAe@ 0050aa58     DeviceInformation.obj
 0002:00022a74       ??_C@_1BM@JBLBDIOG@?$AAD?$AAr?$AAi?$AAv?$AAe?$AAr?$AAV?$AAe?$AAr?$AAs?$AAi?$AAo?$AAn@ 0050aa74     DeviceInformation.obj
 0002:00022a90       ??_C@_1BG@IAFOGIBK@?$AAD?$AAr?$AAi?$AAv?$AAe?$AAr?$AAD?$AAa?$AAt?$AAe@ 0050aa90     DeviceInformation.obj
 0002:00022aa8       ??_C@_0CF@MBAFALIJ@DeviceInformation?3?3GetNextDevic@ 0050aaa8     DeviceInformation.obj
 0002:00022ad0       ??_C@_1CK@KCPLKNAA@?$AAp?$AAD?$AAe?$AAv?$AAi?$AAc?$AAe?$AAT?$AAy?$AAp?$AAe?$AA?1?$AAp?$AAR?$AAe@ 0050aad0     DeviceInformation.obj
 0002:00022b00       ??_C@_1FC@PICMAIBL@?$AAT?$AAh?$AAi?$AAs?$AA?5?$AAd?$AAe?$AAv?$AAi?$AAc?$AAe?$AA?5?$AAi?$AAs?$AA?5@ 0050ab00     DeviceInformation.obj
 0002:00022b58       ??_C@_1NO@MKELEEMM@?$AAT?$AAh?$AAe?$AA?5?$AAd?$AAr?$AAi?$AAv?$AAe?$AAr?$AA?5?$AAf?$AAo?$AAr?$AA?5@ 0050ab58     DeviceInformation.obj
 0002:00022c38       ??_C@_1DE@MFDACBGO@?$AAT?$AAh?$AAi?$AAs?$AA?5?$AAd?$AAe?$AAv?$AAi?$AAc?$AAe?$AA?5?$AAc?$AAa?$AAn@ 0050ac38     DeviceInformation.obj
 0002:00022c70       ??_C@_1BEC@FDDEDNEP@?$AAT?$AAh?$AAi?$AAs?$AA?5?$AAd?$AAe?$AAv?$AAi?$AAc?$AAe?$AA?5?$AAc?$AAa?$AAn@ 0050ac70     DeviceInformation.obj
 0002:00022db8       ??_C@_1IE@BPPIOACC@?$AAT?$AAh?$AAi?$AAs?$AA?5?$AAd?$AAe?$AAv?$AAi?$AAc?$AAe?$AA?5?$AAc?$AAa?$AAn@ 0050adb8     DeviceInformation.obj
 0002:00022e40       ??_C@_1HI@FIBEID@?$AAW?$AAi?$AAn?$AAd?$AAo?$AAw?$AAs?$AA?5?$AAc?$AAa?$AAn?$AAn?$AAo?$AAt?$AA?5@ 0050ae40     DeviceInformation.obj
 0002:00022eb8       ??_C@_1EO@NFCILDKF@?$AAR?$AAe?$AAi?$AAn?$AAs?$AAt?$AAa?$AAl?$AAl?$AA?5?$AAt?$AAh?$AAe?$AA?5?$AAd@ 0050aeb8     DeviceInformation.obj
 0002:00022f08       ??_C@_1PI@ICONMHDH@?$AAW?$AAi?$AAn?$AAd?$AAo?$AAw?$AAs?$AA?5?$AAc?$AAa?$AAn?$AAn?$AAo?$AAt?$AA?5@ 0050af08     DeviceInformation.obj
 0002:00023000       ??_C@_1EC@MBAPMGCK@?$AAW?$AAi?$AAn?$AAd?$AAo?$AAw?$AAs?$AA?5?$AAi?$AAs?$AA?5?$AAr?$AAe?$AAm?$AAo@ 0050b000     DeviceInformation.obj
 0002:00023044       ??_C@_1DC@LNEGEFON@?$AAT?$AAh?$AAi?$AAs?$AA?5?$AAd?$AAe?$AAv?$AAi?$AAc?$AAe?$AA?5?$AAi?$AAs?$AA?5@ 0050b044     DeviceInformation.obj
 0002:00023078       ??_C@_1MC@KCNOFBJ@?$AAT?$AAh?$AAi?$AAs?$AA?5?$AAd?$AAe?$AAv?$AAi?$AAc?$AAe?$AA?5?$AAi?$AAs?$AA?5@ 0050b078     DeviceInformation.obj
 0002:00023140       ??_C@_1FO@EDLCBGAI@?$AAT?$AAh?$AAe?$AA?5?$AAd?$AAr?$AAi?$AAv?$AAe?$AAr?$AAs?$AA?5?$AAf?$AAo?$AAr@ 0050b140     DeviceInformation.obj
 0002:000231a0       ??_C@_1MG@LAOMMKAF@?$AAT?$AAh?$AAi?$AAs?$AA?5?$AAd?$AAe?$AAv?$AAi?$AAc?$AAe?$AA?5?$AAi?$AAs?$AA?5@ 0050b1a0     DeviceInformation.obj
 0002:00023268       ??_C@_1MM@DEGAIKDN@?$AAT?$AAh?$AAi?$AAs?$AA?5?$AAd?$AAe?$AAv?$AAi?$AAc?$AAe?$AA?5?$AAi?$AAs?$AA?5@ 0050b268     DeviceInformation.obj
 0002:00023338       ??_C@_1NO@JNBEEJJH@?$AAA?$AA?5?$AAd?$AAr?$AAi?$AAv?$AAe?$AAr?$AA?5?$AA?$CI?$AAs?$AAe?$AAr?$AAv?$AAi@ 0050b338     DeviceInformation.obj
 0002:00023418       ??_C@_1IO@IGGOOODP@?$AAW?$AAi?$AAn?$AAd?$AAo?$AAw?$AAs?$AA?5?$AAc?$AAa?$AAn?$AAn?$AAo?$AAt?$AA?5@ 0050b418     DeviceInformation.obj
 0002:000234a8       ??_C@_1BDO@JHCNJNBF@?$AAW?$AAi?$AAn?$AAd?$AAo?$AAw?$AAs?$AA?5?$AAc?$AAa?$AAn?$AAn?$AAo?$AAt?$AA?5@ 0050b4a8     DeviceInformation.obj
 0002:000235e8       ??_C@_1BJG@CFHHAGAM@?$AAY?$AAo?$AAu?$AAr?$AA?5?$AAc?$AAo?$AAm?$AAp?$AAu?$AAt?$AAe?$AAr?$AA?8?$AAs@ 0050b5e8     DeviceInformation.obj
 0002:00023780       ??_C@_1BHO@JKADJDFE@?$AAT?$AAh?$AAi?$AAs?$AA?5?$AAd?$AAe?$AAv?$AAi?$AAc?$AAe?$AA?5?$AAi?$AAs?$AA?5@ 0050b780     DeviceInformation.obj
 0002:00023900       ??_C@_1HO@OGBELJPC@?$AAW?$AAi?$AAn?$AAd?$AAo?$AAw?$AAs?$AA?5?$AAc?$AAa?$AAn?$AAn?$AAo?$AAt?$AA?5@ 0050b900     DeviceInformation.obj
 0002:00023980       ??_C@_1PK@HDAMGCIH@?$AAW?$AAi?$AAn?$AAd?$AAo?$AAw?$AAs?$AA?5?$AAc?$AAa?$AAn?$AAn?$AAo?$AAt?$AA?5@ 0050b980     DeviceInformation.obj
 0002:00023a80       ??_C@_1MC@EPJNAGDF@?$AAW?$AAi?$AAn?$AAd?$AAo?$AAw?$AAs?$AA?5?$AAc?$AAa?$AAn?$AAn?$AAo?$AAt?$AA?5@ 0050ba80     DeviceInformation.obj
 0002:00023b48       ??_C@_1PI@OPCBBJHM@?$AAW?$AAi?$AAn?$AAd?$AAo?$AAw?$AAs?$AA?5?$AAc?$AAa?$AAn?$AAn?$AAo?$AAt?$AA?5@ 0050bb48     DeviceInformation.obj
 0002:00023c40       ??_C@_1MK@FKLDCNEB@?$AAW?$AAi?$AAn?$AAd?$AAo?$AAw?$AAs?$AA?5?$AAs?$AAu?$AAc?$AAc?$AAe?$AAs?$AAs@ 0050bc40     DeviceInformation.obj
 0002:00023d10       ??_C@_1PG@HHHJHGLH@?$AAW?$AAi?$AAn?$AAd?$AAo?$AAw?$AAs?$AA?5?$AAc?$AAa?$AAn?$AAn?$AAo?$AAt?$AA?5@ 0050bd10     DeviceInformation.obj
 0002:00023e08       ??_C@_1IE@OIEMENC@?$AAW?$AAi?$AAn?$AAd?$AAo?$AAw?$AAs?$AA?5?$AAh?$AAa?$AAs?$AA?5?$AAs?$AAt?$AAo@ 0050be08     DeviceInformation.obj
 0002:00023e90       ??_C@_1HM@OIHPCIHG@?$AAA?$AAn?$AA?5?$AAa?$AAp?$AAp?$AAl?$AAi?$AAc?$AAa?$AAt?$AAi?$AAo?$AAn?$AA?5@ 0050be90     DeviceInformation.obj
 0002:00023f10       ??_C@_1IE@CHDKNOIL@?$AAC?$AAu?$AAr?$AAr?$AAe?$AAn?$AAt?$AAl?$AAy?$AA?0?$AA?5?$AAt?$AAh?$AAi?$AAs@ 0050bf10     DeviceInformation.obj
 0002:00023f98       ??_C@_1OI@BMDLENKF@?$AAW?$AAi?$AAn?$AAd?$AAo?$AAw?$AAs?$AA?5?$AAc?$AAa?$AAn?$AAn?$AAo?$AAt?$AA?5@ 0050bf98     DeviceInformation.obj
 0002:00024080       ??_C@_1BBA@LIFPKEFG@?$AAW?$AAi?$AAn?$AAd?$AAo?$AAw?$AAs?$AA?5?$AAc?$AAa?$AAn?$AAn?$AAo?$AAt?$AA?5@ 0050c080     DeviceInformation.obj
 0002:00024190       ??_C@_1BDK@DAHJGMAP@?$AAT?$AAh?$AAe?$AA?5?$AAs?$AAo?$AAf?$AAt?$AAw?$AAa?$AAr?$AAe?$AA?5?$AAf?$AAo@ 0050c190     DeviceInformation.obj
 0002:000242d0       ??_C@_1OE@LMHGIBKM@?$AAW?$AAi?$AAn?$AAd?$AAo?$AAw?$AAs?$AA?5?$AAc?$AAa?$AAn?$AAn?$AAo?$AAt?$AA?5@ 0050c2d0     DeviceInformation.obj
 0002:000243b4       ??_C@_0CH@NMAPHGO@DeviceInformation?3?3TranslateDev@ 0050c3b4     DeviceInformation.obj
 0002:000243dc       ??_C@_1BA@IEFODAFK@?$AAp?$AAS?$AAt?$AAa?$AAt?$AAu?$AAs@ 0050c3dc     DeviceInformation.obj
 0002:000243ec       ??_C@_1M@EPJBJMPL@?$AAC?$AAo?$AAd?$AAe?$AA?5@ 0050c3ec     DeviceInformation.obj
 0002:000243f8       ??_C@_1EK@KPHNCDHM@?$AAU?$AAn?$AAr?$AAe?$AAc?$AAo?$AAg?$AAn?$AAi?$AAs?$AAe?$AAd?$AA?5?$AAC?$AAo@ 0050c3f8     DeviceInformation.obj
 0002:00024444       ??_C@_0CC@JNMACNGI@TArray?$DMclass?5AuditRecord?$DO?3?3Appe@ 0050c444     DeviceInformation.obj
 0002:00024468       ??_C@_0DL@NALBOLLF@TList?$DMstruct?5DeviceInformation?3@ 0050c468     DeviceInformation.obj
 0002:000244a4       ??_C@_1BA@IECPBFNF@?$AAm?$AA_?$AAp?$AAT?$AAa?$AAi?$AAl@ 0050c4a4     DeviceInformation.obj
 0002:000244b4       ??_C@_0DP@MGEGLEAM@TList?$DMstruct?5DeviceInformation?3@ 0050c4b4     DeviceInformation.obj
 0002:000244f4       ??_C@_1BG@JKBLODFB@?$AAm?$AA_?$AAp?$AAC?$AAu?$AAr?$AAr?$AAe?$AAn?$AAt@ 0050c4f4     DeviceInformation.obj
 0002:0002450c       ??_C@_1BC@HJMDPCPE@?$AAp?$AAE?$AAl?$AAe?$AAm?$AAe?$AAn?$AAt@ 0050c50c     DeviceInformation.obj
 0002:00024520       ??_C@_0EB@KNPLHAPO@TList?$DMstruct?5DeviceInformation?3@ 0050c520     DeviceInformation.obj
 0002:00024568       ??_C@_1GA@LFIGILGM@?$AAI?$AAO?$AAC?$AAT?$AAL?$AA_?$AAS?$AAT?$AAO?$AAR?$AAA?$AAG?$AAE?$AA_?$AAP@ 0050c568     DiskInformation.obj
 0002:000245c8       ??_C@_1CK@NELPAGPC@?$AAF?$AAa?$AAi?$AAl?$AAe?$AAd?$AA?5?$AAw?$AAi?$AAt?$AAh?$AA?5?$AAc?$AAo?$AAd@ 0050c5c8     DiskInformation.obj
 0002:000245f4       ??_C@_0CL@HOOPPNAE@DiskInformation?3?3GetStorageAdap@ 0050c5f4     DiskInformation.obj
 0002:00024620       ??_C@_1CC@NOGGIBCE@?$AAp?$AAA?$AAd?$AAa?$AAp?$AAt?$AAe?$AAr?$AAP?$AAr?$AAo?$AAp?$AAe?$AAr?$AAt@ 0050c620     DiskInformation.obj
 0002:00024648       ??_C@_1FA@DIPIBJO@?$AA?5?$AAI?$AAO?$AAC?$AAT?$AAL?$AA_?$AAS?$AAT?$AAO?$AAR?$AAA?$AAG?$AAE?$AA_@ 0050c648     DiskInformation.obj
 0002:00024698       ??_C@_1GC@CILBNPA@?$AAI?$AAO?$AAC?$AAT?$AAL?$AA_?$AAS?$AAT?$AAO?$AAR?$AAA?$AAG?$AAE?$AA_?$AAQ@ 0050c698     DiskInformation.obj
 0002:000246fc       ??_C@_1DE@HKEHCIKA@?$AAM?$AAa?$AAx?$AAi?$AAm?$AAu?$AAm?$AA?5?$AAT?$AAr?$AAa?$AAn?$AAs?$AAf?$AAe@ 0050c6fc     DiskInformation.obj
 0002:00024730       ??_C@_15BKLPDEEF@?$AAK?$AAB@ 0050c730     DiskInformation.obj
 0002:00024738       ??_C@_1DE@MFABMCCB@?$AAM?$AAa?$AAx?$AAi?$AAm?$AAu?$AAm?$AA?5?$AAP?$AAh?$AAy?$AAs?$AAi?$AAc?$AAa@ 0050c738     DiskInformation.obj
 0002:0002476c       ??_C@_1DE@CKFIKCN@?$AAT?$AAr?$AAa?$AAn?$AAs?$AAf?$AAe?$AAr?$AA?5?$AAA?$AAl?$AAi?$AAg?$AAn?$AAm@ 0050c76c     DiskInformation.obj
 0002:000247a0       ??_C@_1DE@FJGKDAMF@?$AAA?$AAd?$AAa?$AAp?$AAt?$AAe?$AAr?$AA?5?$AAU?$AAs?$AAe?$AAs?$AA?5?$AAP?$AAI@ 0050c7a0     DiskInformation.obj
 0002:000247d4       ??_C@_1DE@PBCHAOIK@?$AAA?$AAd?$AAa?$AAp?$AAt?$AAe?$AAr?$AA?5?$AAS?$AAc?$AAa?$AAn?$AAs?$AA?5?$AAD@ 0050c7d4     DiskInformation.obj
 0002:00024808       ??_C@_1DE@NBCOEBNH@?$AAC?$AAo?$AAm?$AAm?$AAa?$AAn?$AAd?$AA?5?$AAQ?$AAu?$AAe?$AAu?$AAe?$AAi?$AAn@ 0050c808     DiskInformation.obj
 0002:0002483c       ??_C@_1DE@CNLOCLLK@?$AAA?$AAc?$AAc?$AAe?$AAl?$AAe?$AAr?$AAa?$AAt?$AAe?$AAd?$AA?5?$AAT?$AAr?$AAa@ 0050c83c     DiskInformation.obj
 0002:00024870       ??_C@_1DE@GPKMIODL@?$AAB?$AAu?$AAs?$AA?5?$AAM?$AAa?$AAj?$AAo?$AAr?$AA?5?$AAV?$AAe?$AAr?$AAs?$AAi@ 0050c870     DiskInformation.obj
 0002:000248a4       ??_C@_1DE@LGLGPJFD@?$AAB?$AAu?$AAs?$AA?5?$AAM?$AAi?$AAn?$AAo?$AAr?$AA?5?$AAV?$AAe?$AAr?$AAs?$AAi@ 0050c8a4     DiskInformation.obj
 0002:000248d8       ??_C@_0CM@PJECENNB@DiskInformation?3?3GetStorageDevi@ 0050c8d8     DiskInformation.obj
 0002:00024908       ??_C@_1FE@IIHBPGI@?$AAI?$AAO?$AAC?$AAT?$AAL?$AA_?$AAS?$AAT?$AAO?$AAR?$AAA?$AAG?$AAE?$AA_?$AAQ@ 0050c908     DiskInformation.obj
 0002:0002495c       ??_C@_0CF@JDPILJBB@DiskInformation?3?3GetWmiDiskDriv@ 0050c95c     DiskInformation.obj
 0002:00024984       ??_C@_1CE@FJBJFFN@?$AAp?$AAW?$AAm?$AAi?$AAD?$AAi?$AAs?$AAk?$AAD?$AAr?$AAi?$AAv?$AAe?$AAD?$AAa@ 0050c984     DiskInformation.obj
 0002:000249a8       ??_C@_1DC@EKFFFINH@?$AA?9?$AA?9?$AA?9?$AA?9?$AA?9?$AA?9?$AA?9?$AA?9?$AA?9?$AA?9?$AA?9?$AA?9?$AA?9?$AA?9?$AA?9@ 0050c9a8     DiskInformation.obj
 0002:000249dc       ??_C@_1DC@NGJBELCL@?$AAD?$AAi?$AAs?$AAk?$AA?5?$AAD?$AAr?$AAi?$AAv?$AAe?$AA?5?$AAE?$AAn?$AAu?$AAm@ 0050c9dc     DiskInformation.obj
 0002:00024a10       ??_C@_1DM@FMMFLJLA@?$AAS?$AAe?$AAl?$AAe?$AAc?$AAt?$AA?5?$AA?$CK?$AA?5?$AAf?$AAr?$AAo?$AAm?$AA?5?$AAW@ 0050ca10     DiskInformation.obj
 0002:00024a4c       ??_C@_1CE@CKONILLL@?$AAD?$AAi?$AAs?$AAk?$AA?5?$AAP?$AAr?$AAo?$AAp?$AAe?$AAr?$AAt?$AAi?$AAe?$AAs@ 0050ca4c     DiskInformation.obj
 0002:00024a70       ??_C@_1DK@PINMEHIL@?$AA?9?$AA?9?$AA?9?$AA?9?$AA?9?$AA?9?$AA?9?$AA?9?$AA?9?$AA?9?$AA?9?$AA?9?$AA?9?$AA?9?$AA?9@ 0050ca70     DiskInformation.obj
 0002:00024aac       ??_C@_1DK@ONHHGBIK@?$AAP?$AAh?$AAy?$AAs?$AAi?$AAc?$AAa?$AAl?$AA?5?$AAM?$AAe?$AAd?$AAi?$AAa?$AA?5@ 0050caac     DiskInformation.obj
 0002:00024ae8       ??_C@_1EE@EFDDKJLK@?$AAS?$AAe?$AAl?$AAe?$AAc?$AAt?$AA?5?$AA?$CK?$AA?5?$AAf?$AAr?$AAo?$AAm?$AA?5?$AAW@ 0050cae8     DiskInformation.obj
 0002:00024b2c       ??_C@_1CG@EDGLIEAE@?$AA?9?$AA?9?$AA?9?$AA?9?$AA?9?$AA?9?$AA?9?$AA?9?$AA?9?$AA?9?$AA?9?$AA?9?$AA?9?$AA?9?$AA?9@ 0050cb2c     DiskInformation.obj
 0002:00024b54       ??_C@_1CG@EBPHJMFP@?$AAM?$AAe?$AAd?$AAi?$AAa?$AA?5?$AAP?$AAr?$AAo?$AAp?$AAe?$AAr?$AAt?$AAi?$AAe@ 0050cb54     DiskInformation.obj
 0002:00024b7c       ??_C@_0CH@KHMKNFBD@DiskInformation?3?3PhysDriveNumTo@ 0050cb7c     DiskInformation.obj
 0002:00024ba4       ??_C@_1BI@ODGPIGHO@?$AAp?$AAD?$AAi?$AAs?$AAk?$AAN?$AAu?$AAm?$AAb?$AAe?$AAr@ 0050cba4     DiskInformation.obj
 0002:00024bbc       ??_C@_1BC@FDCEPNJ@?$AAS?$AAC?$AAS?$AAI?$AAP?$AAo?$AAr?$AAt@ 0050cbbc     DiskInformation.obj
 0002:00024bd0       ??_C@_1BK@PJCIDEHO@?$AAS?$AAC?$AAS?$AAI?$AAT?$AAa?$AAr?$AAg?$AAe?$AAt?$AAI?$AAd@ 0050cbd0     DiskInformation.obj
 0002:00024bec       ??_C@_0CF@JAFAOEPC@DiskInformation?3?3ResolveManufac@ 0050cbec     DiskInformation.obj
 0002:00024c14       ??_C@_15IAEILMPA@?$AAS?$AAT@ 0050cc14     DiskInformation.obj
 0002:00024c1c       ??_C@_19MDJEBBFD@?$AAW?$AAD?$AAC?$AA?5@ 0050cc1c     DiskInformation.obj
 0002:00024c28       ??_C@_1O@EMLLFJNI@?$AAA?$AAc?$AAt?$AAi?$AAv?$AAe@ 0050cc28     DiskInformation.obj
 0002:00024c38       ??_C@_1BG@LCLBHGLH@?$AAN?$AAo?$AAt?$AA?5?$AAA?$AAc?$AAt?$AAi?$AAv?$AAe@ 0050cc38     DiskInformation.obj
 0002:00024c50       ??_C@_1BM@JEOPKLJH@?$AAN?$AAo?$AAt?$AA?5?$AAS?$AAu?$AAp?$AAp?$AAo?$AAr?$AAt?$AAe?$AAd@ 0050cc50     DiskInformation.obj
 0002:00024c6c       ??_C@_19CFBBIEKO@?$AAD?$AAi?$AAs?$AAk@ 0050cc6c     DiskInformation.obj
 0002:00024c78       ??_C@_19LHBBBLGO@?$AAT?$AAa?$AAp?$AAe@ 0050cc78     DiskInformation.obj
 0002:00024c84       ??_C@_1BA@BLNMAAOI@?$AAP?$AAr?$AAi?$AAn?$AAt?$AAe?$AAr@ 0050cc84     DiskInformation.obj
 0002:00024c94       ??_C@_1BE@BJHLLGKN@?$AAP?$AAr?$AAo?$AAc?$AAe?$AAs?$AAs?$AAo?$AAr@ 0050cc94     DiskInformation.obj
 0002:00024ca8       ??_C@_19MBNADLLL@?$AAW?$AAo?$AAr?$AAm@ 0050cca8     DiskInformation.obj
 0002:00024cb4       ??_C@_1M@DMDGJOHA@?$AAC?$AAd?$AAR?$AAo?$AAm@ 0050ccb4     DiskInformation.obj
 0002:00024cc0       ??_C@_1BA@CCNODCBN@?$AAS?$AAc?$AAa?$AAn?$AAn?$AAe?$AAr@ 0050ccc0     DiskInformation.obj
 0002:00024cd0       ??_C@_1BA@LPDNDAAC@?$AAO?$AAp?$AAt?$AAi?$AAc?$AAa?$AAl@ 0050ccd0     DiskInformation.obj
 0002:00024ce0       ??_C@_1BA@JEIOCMEF@?$AAC?$AAh?$AAa?$AAn?$AAg?$AAe?$AAr@ 0050cce0     DiskInformation.obj
 0002:00024cf0       ??_C@_17BKKOFJGL@?$AAN?$AAe?$AAt@ 0050ccf0     DiskInformation.obj
 0002:00024cf8       ??_C@_1M@KDHOHJAD@?$AAO?$AAt?$AAh?$AAe?$AAr@ 0050ccf8     DiskInformation.obj
 0002:00024d04       ??_C@_0CI@CJIDKGKB@DiskInformation?3?3TranslateIdeDe@ 0050cd04     DiskInformation.obj
 0002:00024d30       ??_C@_1EA@GKLILBOG@?$AAU?$AAn?$AAr?$AAe?$AAc?$AAo?$AAg?$AAn?$AAi?$AAs?$AAe?$AAd?$AA?5?$AAd?$AAe@ 0050cd30     DiskInformation.obj
 0002:00024d70       ??_C@_1DG@IICILKGB@?$AAA?$AAn?$AA?5?$AAu?$AAn?$AAu?$AAs?$AAe?$AAd?$AA?5?$AAe?$AAn?$AAt?$AAr?$AAy@ 0050cd70     DiskInformation.obj
 0002:00024da8       ??_C@_1CO@JGOLEEJM@?$AAA?$AAn?$AA?5?$AAe?$AAx?$AAt?$AAe?$AAn?$AAd?$AAe?$AAd?$AA?5?$AAp?$AAa?$AAr@ 0050cda8     DiskInformation.obj
 0002:00024dd8       ??_C@_1DO@NEBHJFLE@?$AAA?$AA?5?$AAF?$AAA?$AAT?$AA1?$AA2?$AA?5?$AAf?$AAi?$AAl?$AAe?$AA?5?$AAs?$AAy@ 0050cdd8     DiskInformation.obj
 0002:00024e18       ??_C@_1DO@KJEAPILD@?$AAA?$AA?5?$AAF?$AAA?$AAT?$AA1?$AA6?$AA?5?$AAf?$AAi?$AAl?$AAe?$AA?5?$AAs?$AAy@ 0050ce18     DiskInformation.obj
 0002:00024e58       ??_C@_1DO@HIOGNKO@?$AAA?$AA?5?$AAF?$AAA?$AAT?$AA3?$AA2?$AA?5?$AAf?$AAi?$AAl?$AAe?$AA?5?$AAs?$AAy@ 0050ce58     DiskInformation.obj
 0002:00024e98       ??_C@_1DO@FPJFLKBF@?$AAA?$AAn?$AA?5?$AAN?$AAT?$AAF?$AAS?$AA?5?$AAp?$AAa?$AAr?$AAt?$AAi?$AAt?$AAi@ 0050ce98     DiskInformation.obj
 0002:00024ed8       ??_C@_1EE@IJIPHBBA@?$AAA?$AA?5?$AAl?$AAo?$AAg?$AAi?$AAc?$AAa?$AAl?$AA?5?$AAd?$AAi?$AAs?$AAk?$AA?5@ 0050ced8     DiskInformation.obj
 0002:00024f1c       ??_C@_1CG@CIBEHODA@?$AAA?$AAn?$AA?5?$AAN?$AAT?$AAF?$AAT?$AA?5?$AAp?$AAa?$AAr?$AAt?$AAi?$AAt?$AAi@ 0050cf1c     DiskInformation.obj
 0002:00024f44       ??_C@_1DA@KGHGPFKJ@?$AAA?$AA?5?$AAv?$AAa?$AAl?$AAi?$AAd?$AA?5?$AAN?$AAT?$AAF?$AAT?$AA?5?$AAp?$AAa@ 0050cf44     DiskInformation.obj
 0002:00024f78       ??_C@_1EC@JCHPIPCN@?$AAU?$AAn?$AAr?$AAe?$AAc?$AAo?$AAg?$AAn?$AAi?$AAs?$AAe?$AAd?$AA?5?$AAp?$AAa@ 0050cf78     DiskInformation.obj
 0002:00024fbc       ??_C@_1BA@LEPJIIOK@?$AAU?$AAn?$AAk?$AAn?$AAo?$AAw?$AAn@ 0050cfbc     DiskInformation.obj
 0002:00024fcc       ??_C@_19IFECACCC@?$AAS?$AAC?$AAS?$AAI@ 0050cfcc     DiskInformation.obj
 0002:00024fd8       ??_C@_1M@JALGDJAO@?$AAA?$AAT?$AAA?$AAP?$AAI@ 0050cfd8     DiskInformation.obj
 0002:00024fe4       ??_C@_17MLFNJHFM@?$AAA?$AAT?$AAA@ 0050cfe4     DiskInformation.obj
 0002:00024fec       ??_C@_1BE@DKFKNFJE@?$AAI?$AAE?$AAE?$AAE?$AA?5?$AA1?$AA3?$AA9?$AA4@ 0050cfec     DiskInformation.obj
 0002:00025000       ??_C@_17OIMGJBLC@?$AAS?$AAS?$AAA@ 0050d000     DiskInformation.obj
 0002:00025008       ??_C@_1BM@FLLLFMPO@?$AAF?$AAi?$AAb?$AAr?$AAe?$AA?5?$AAC?$AAh?$AAa?$AAn?$AAn?$AAe?$AAl@ 0050d008     DiskInformation.obj
 0002:00025024       ??_C@_17DMBMDHNL@?$AAU?$AAS?$AAB@ 0050d024     DiskInformation.obj
 0002:0002502c       ??_C@_19HIICJHEB@?$AAR?$AAA?$AAI?$AAD@ 0050d02c     DiskInformation.obj
 0002:00025038       ??_C@_1M@KIOGPKKC@?$AAi?$AAS?$AAC?$AAS?$AAI@ 0050d038     DiskInformation.obj
 0002:00025044       ??_C@_1CK@MOONFIOI@?$AAS?$AAe?$AAr?$AAi?$AAa?$AAl?$AA?9?$AAA?$AAt?$AAt?$AAa?$AAc?$AAh?$AAe?$AAd@ 0050d044     DiskInformation.obj
 0002:00025070       ??_C@_19BPNGBNAI@?$AAS?$AAA?$AAT?$AAA@ 0050d070     DiskInformation.obj
 0002:0002507c       ??_C@_1BO@MBPAMDPN@?$AAS?$AAe?$AAc?$AAu?$AAr?$AAe?$AA?5?$AAd?$AAi?$AAg?$AAi?$AAt?$AAa?$AAl@ 0050d07c     DiskInformation.obj
 0002:0002509c       ??_C@_1CA@MFIBOCPN@?$AAM?$AAu?$AAl?$AAt?$AAi?$AAm?$AAe?$AAd?$AAi?$AAa?$AA?5?$AAc?$AAa?$AAr?$AAd@ 0050d09c     DiskInformation.obj
 0002:000250bc       ??_C@_1BA@MLDMFEHK@?$AAV?$AAi?$AAr?$AAt?$AAu?$AAa?$AAl@ 0050d0bc     DiskInformation.obj
 0002:000250cc       ??_C@_1CI@OOIEDHHG@?$AAF?$AAi?$AAl?$AAe?$AA?5?$AAb?$AAa?$AAc?$AAk?$AAe?$AAd?$AA?5?$AAv?$AAi?$AAr@ 0050d0cc     DiskInformation.obj
 0002:000250f4       ??_C@_1BO@FBIBMGMP@?$AAS?$AAt?$AAo?$AAr?$AAa?$AAg?$AAe?$AA?5?$AAs?$AAp?$AAa?$AAc?$AAe?$AAs@ 0050d0f4     DiskInformation.obj
 0002:00025114       ??_C@_19EOKLCDDI@?$AAN?$AAv?$AAm?$AAe@ 0050d114     DiskInformation.obj
 0002:00025120       ??_C@_17KBMGCMJB@?$AAS?$AAC?$AAM@ 0050d120     DiskInformation.obj
 0002:00025128       ??_C@_17CADMDOAB@?$AAU?$AAf?$AAs@ 0050d128     DiskInformation.obj
 0002:00025130       ??_C@_0CJ@LFHIMAKB@DiskInformation?3?3TranslateStora@ 0050d130     DiskInformation.obj
 0002:0002515c       ??_C@_1DK@EODPMIGJ@?$AAU?$AAn?$AAr?$AAe?$AAc?$AAo?$AAg?$AAn?$AAi?$AAs?$AAe?$AAd?$AA?5?$AAb?$AAu@ 0050d15c     DiskInformation.obj
 0002:00025198       ??_C@_11LOCGONAA@@         0050d198     DiskInformation.obj
 0002:0002519c       ??_C@_0CA@OHCIDLCA@DiskInformation?3?3GetDiagnostics@ 0050d19c     DiskInformation.obj
 0002:000251c0       ??_C@_1EE@FAEPDNPO@?$AAD?$AAi?$AAs?$AAk?$AA?0?$AA?5?$AAA?$AAd?$AAa?$AAp?$AAt?$AAe?$AAr?$AA?5?$AAa@ 0050d1c0     DiskInformation.obj
 0002:00025208       ??_C@_1GI@IFAPNF@?$AA?$DN?$AA?$DN?$AA?$DN?$AA?$DN?$AA?$DN?$AA?$DN?$AA?$DN?$AA?$DN?$AA?$DN?$AA?$DN?$AA?$DN?$AA?$DN?$AA?$DN?$AA?$DN?$AA?$DN@ 0050d208     DiskInformation.obj
 0002:00025270       ??_C@_1GI@IPHJEIEB@?$AA?$HM?$AA?5?$AA?5?$AA?5?$AA?5?$AA?5?$AA?5?$AA?5?$AA?5?$AA?5?$AA?5?$AA?5?$AA?5?$AA?5?$AA?5@ 0050d270     DiskInformation.obj
 0002:000252d8       ??_C@_1GI@LPNELFGK@?$AA?$HM?$AA?5?$AA?5?$AA?5?$AA?5?$AA?5?$AA?5?$AA?5?$AA?5?$AA?5?$AA?5?$AA?5?$AA?5?$AA?5?$AA?5@ 0050d2d8     DiskInformation.obj
 0002:00025340       ??_C@_1GI@LHKLJCEC@?$AA?$HM?$AA?5?$AA?5?$AA?5?$AA?5?$AA?5?$AA?5?$AA?5?$AA?5?$AA?5?$AA?5?$AA?5?$AA?5?$AA?5?$AAR@ 0050d340     DiskInformation.obj
 0002:000253a8       ??_C@_1GE@EICIEAPA@?$AA?$DN?$AA?$DN?$AA?$DN?$AA?$DN?$AA?$DN?$AA?$DN?$AA?$DN?$AA?$DN?$AA?$DN?$AA?$DN?$AA?$DN?$AA?$DN?$AA?$DN?$AA?$DN?$AA?$DN@ 0050d3a8     DiskInformation.obj
 0002:00025410       ??_C@_1GI@OFEAOPJJ@?$AA?$HM?$AA?5?$AA?5?$AA?5?$AA?5?$AA?5?$AA?5?$AAW?$AAi?$AAn?$AAd?$AAo?$AAw?$AAs?$AA?5@ 0050d410     DiskInformation.obj
 0002:00025478       ??_C@_1GI@GJGNEDDL@?$AA?$HM?$AA?5?$AA?5?$AA?5?$AA?5?$AA?5?$AAC?$AAo?$AAn?$AAf?$AAi?$AAg?$AAu?$AAr?$AAa@ 0050d478     DiskInformation.obj
 0002:000254e0       ??_C@_1GI@BDHCGENA@?$AA?$HM?$AA?5?$AA?5?$AA?5?$AA?5?$AA?5?$AA?5?$AA?5?$AA?5?$AA?5?$AA?5?$AA?5?$AA?5?$AA?5?$AA?5@ 0050d4e0     DiskInformation.obj
 0002:00025548       ??_C@_1CE@NMMGLAKA@?$AAd?$AAr?$AAi?$AAv?$AAe?$AAr?$AAs?$AA?2?$AAa?$AAt?$AAa?$AAp?$AAi?$AA?4?$AAs@ 0050d548     DiskInformation.obj
 0002:0002556c       ??_C@_1CC@OOMEEKEO@?$AAd?$AAr?$AAi?$AAv?$AAe?$AAr?$AAs?$AA?2?$AAc?$AAd?$AAf?$AAs?$AA?4?$AAs?$AAy@ 0050d56c     DiskInformation.obj
 0002:00025590       ??_C@_1CE@MEGEKDLN@?$AAd?$AAr?$AAi?$AAv?$AAe?$AAr?$AAs?$AA?2?$AAc?$AAd?$AAr?$AAo?$AAm?$AA?4?$AAs@ 0050d590     DiskInformation.obj
 0002:000255b4       ??_C@_1CI@EKHFIMLB@?$AAd?$AAr?$AAi?$AAv?$AAe?$AAr?$AAs?$AA?2?$AAc?$AAr?$AAc?$AAd?$AAi?$AAs?$AAk@ 0050d5b4     DiskInformation.obj
 0002:000255dc       ??_C@_1CK@GKGFDIFM@?$AAd?$AAr?$AAi?$AAv?$AAe?$AAr?$AAs?$AA?2?$AAc?$AAl?$AAa?$AAs?$AAs?$AAp?$AAn@ 0050d5dc     DiskInformation.obj
 0002:00025608       ??_C@_1CC@OOKFMLHA@?$AAd?$AAr?$AAi?$AAv?$AAe?$AAr?$AAs?$AA?2?$AAd?$AAi?$AAs?$AAk?$AA?4?$AAs?$AAy@ 0050d608     DiskInformation.obj
 0002:0002562c       ??_C@_1CG@JPGLCCIL@?$AAd?$AAr?$AAi?$AAv?$AAe?$AAr?$AAs?$AA?2?$AAd?$AAm?$AAb?$AAo?$AAo?$AAt?$AA?4@ 0050d62c     DiskInformation.obj
 0002:00025654       ??_C@_1CC@INBHFKHP@?$AAd?$AAr?$AAi?$AAv?$AAe?$AAr?$AAs?$AA?2?$AAd?$AAm?$AAi?$AAo?$AA?4?$AAs?$AAy@ 0050d654     DiskInformation.obj
 0002:00025678       ??_C@_1CG@EBMFIIHO@?$AAd?$AAr?$AAi?$AAv?$AAe?$AAr?$AAs?$AA?2?$AAd?$AAm?$AAl?$AAo?$AAa?$AAd?$AA?4@ 0050d678     DiskInformation.obj
 0002:000256a0       ??_C@_1CG@MGGHKHHH@?$AAd?$AAr?$AAi?$AAv?$AAe?$AAr?$AAs?$AA?2?$AAf?$AAt?$AAd?$AAi?$AAs?$AAk?$AA?4@ 0050d6a0     DiskInformation.obj
 0002:000256c8       ??_C@_1CE@JHLNCCOH@?$AAd?$AAr?$AAi?$AAv?$AAe?$AAr?$AAs?$AA?2?$AAi?$AAm?$AAa?$AAp?$AAi?$AA?4?$AAs@ 0050d6c8     DiskInformation.obj
 0002:000256ec       ??_C@_1CK@NAKKJBLG@?$AAd?$AAr?$AAi?$AAv?$AAe?$AAr?$AAs?$AA?2?$AAi?$AAn?$AAt?$AAe?$AAl?$AAi?$AAd@ 0050d6ec     DiskInformation.obj
 0002:00025718       ??_C@_1CC@PLEILLDL@?$AAd?$AAr?$AAi?$AAv?$AAe?$AAr?$AAs?$AA?2?$AAn?$AAt?$AAf?$AAs?$AA?4?$AAs?$AAy@ 0050d718     DiskInformation.obj
 0002:0002573c       ??_C@_1CI@GMBDFJED@?$AAd?$AAr?$AAi?$AAv?$AAe?$AAr?$AAs?$AA?2?$AAp?$AAa?$AAr?$AAt?$AAm?$AAg?$AAr@ 0050d73c     DiskInformation.obj
 0002:00025764       ??_C@_1CI@JLNNBBHP@?$AAd?$AAr?$AAi?$AAv?$AAe?$AAr?$AAs?$AA?2?$AAp?$AAc?$AAi?$AAi?$AAd?$AAe?$AAx@ 0050d764     DiskInformation.obj
 0002:0002578c       ??_C@_1CI@IIPLDMBJ@?$AAd?$AAr?$AAi?$AAv?$AAe?$AAr?$AAs?$AA?2?$AAr?$AAe?$AAd?$AAb?$AAo?$AAo?$AAk@ 0050d78c     DiskInformation.obj
 0002:000257b4       ??_C@_1CG@DHLDGEOL@?$AAd?$AAr?$AAi?$AAv?$AAe?$AAr?$AAs?$AA?2?$AAv?$AAi?$AAa?$AAi?$AAd?$AAe?$AA?4@ 0050d7b4     DiskInformation.obj
 0002:000257dc       ??_C@_1CK@NOFMPCMP@?$AAd?$AAr?$AAi?$AAv?$AAe?$AAr?$AAs?$AA?2?$AAs?$AAc?$AAs?$AAi?$AAp?$AAo?$AAr@ 0050d7dc     DiskInformation.obj
 0002:00025808       ??_C@_1CI@OGBOEPHK@?$AAd?$AAr?$AAi?$AAv?$AAe?$AAr?$AAs?$AA?2?$AAs?$AAf?$AAl?$AAo?$AAp?$AAp?$AAy@ 0050d808     DiskInformation.obj
 0002:00025830       ??_C@_1CK@OIOHFJJ@?$AAd?$AAr?$AAi?$AAv?$AAe?$AAr?$AAs?$AA?2?$AAs?$AAt?$AAo?$AAr?$AAp?$AAo?$AAr@ 0050d830     DiskInformation.obj
 0002:0002585c       ??_C@_1CC@CGEFPOOC@?$AAd?$AAr?$AAi?$AAv?$AAe?$AAr?$AAs?$AA?2?$AAt?$AAa?$AAp?$AAe?$AA?4?$AAs?$AAy@ 0050d85c     DiskInformation.obj
 0002:00025880       ??_C@_1BK@KPJLMFFA@?$AAu?$AAp?$AAd?$AAs?$AAp?$AAa?$AAp?$AAi?$AA?4?$AAd?$AAl?$AAl@ 0050d880     DiskInformation.obj
